   1              		.cpu cortex-m4
   2              		.eabi_attribute 27, 1
   3              		.eabi_attribute 20, 1
   4              		.eabi_attribute 21, 1
   5              		.eabi_attribute 23, 3
   6              		.eabi_attribute 24, 1
   7              		.eabi_attribute 25, 1
   8              		.eabi_attribute 26, 1
   9              		.eabi_attribute 30, 6
  10              		.eabi_attribute 34, 1
  11              		.eabi_attribute 18, 4
  12              		.file	"PartA.c"
  13              		.text
  14              	.Ltext0:
  15              		.cfi_sections	.debug_frame
  16              		.comm	dotDuration,1,1
  17              		.comm	dashDuration,2,2
  18              		.comm	letterSpacing,2,2
  19              		.comm	wordSpacing,2,2
  20              		.comm	globalSysTickCounter,4,4
  21              		.global	pauseDuration
  22              		.section	.rodata
  23              		.align	1
  26              	pauseDuration:
  27 0000 8813     		.short	5000
  28              		.section	.text.main,"ax",%progbits
  29              		.align	1
  30              		.global	main
  31              		.syntax unified
  32              		.thumb
  33              		.thumb_func
  34              		.fpu fpv4-sp-d16
  36              	main:
  37              	.LFB128:
  38              		.file 1 "PartA.c"
   1:PartA.c       **** /**
   2:PartA.c       **** *	Created By: Tapan Sharma
   3:PartA.c       **** *	Matrikulation Number: 03712841
   4:PartA.c       **** *   
   5:PartA.c       **** *   Assignment: Implementation of Morse Code using LED1 on Pin P1.1 to send Code Word "I CAN MORSE"
   6:PartA.c       **** */
   7:PartA.c       **** 
   8:PartA.c       **** /**************************************************************************************************
   9:PartA.c       **** 																							HEADER FILES																															
  10:PartA.c       **** ***************************************************************************************************
  11:PartA.c       **** 
  12:PartA.c       **** #include "morse_definition.h"
  13:PartA.c       **** #include "timer_config.h"
  14:PartA.c       **** 
  15:PartA.c       **** /**************************************************************************************************
  16:PartA.c       **** 														STANDARD DEFINITIONS, MACROS, DECLARATIONS AND GLOBAL CONSTANTS														
  17:PartA.c       **** ***************************************************************************************************
  18:PartA.c       **** 
  19:PartA.c       **** const uint16_t pauseDuration = 5000;
  20:PartA.c       ****  
  21:PartA.c       **** /**************************************************************************************************
  22:PartA.c       **** 																							FUNCTION DEFINITIONS														
  23:PartA.c       **** ***************************************************************************************************
  24:PartA.c       **** 
  25:PartA.c       **** int main(void) {
  39              		.loc 1 25 0
  40              		.cfi_startproc
  41              		@ args = 0, pretend = 0, frame = 8
  42              		@ frame_needed = 1, uses_anonymous_args = 0
  43 0000 80B5     		push	{r7, lr}
  44              	.LCFI0:
  45              		.cfi_def_cfa_offset 8
  46              		.cfi_offset 7, -8
  47              		.cfi_offset 14, -4
  48 0002 82B0     		sub	sp, sp, #8
  49              	.LCFI1:
  50              		.cfi_def_cfa_offset 16
  51 0004 00AF     		add	r7, sp, #0
  52              	.LCFI2:
  53              		.cfi_def_cfa_register 7
  26:PartA.c       **** 	
  27:PartA.c       **** 	// 1. Initialise System Clock.
  28:PartA.c       **** 	initSysTick();
  54              		.loc 1 28 0
  55 0006 FFF7FEFF 		bl	initSysTick
  29:PartA.c       **** 	
  30:PartA.c       **** 	// 2. Initialise GPIO
  31:PartA.c       **** 	initGPIO();
  56              		.loc 1 31 0
  57 000a FFF7FEFF 		bl	initGPIO
  58              	.L2:
  59              	.LBB2:
  32:PartA.c       **** 	
  33:PartA.c       **** 	// 3. Program Logic
  34:PartA.c       **** 	while(1) {
  35:PartA.c       **** 		transmitMessage();
  60              		.loc 1 35 0 discriminator 1
  61 000e FFF7FEFF 		bl	transmitMessage
  36:PartA.c       **** 		int delayNextSequenceBy = pauseDuration - dotDuration;
  62              		.loc 1 36 0 discriminator 1
  63 0012 41F28833 		movw	r3, #5000
  64 0016 1A46     		mov	r2, r3
  65 0018 044B     		ldr	r3, .L3
  66 001a 1B78     		ldrb	r3, [r3]	@ zero_extendqisi2
  67 001c D31A     		subs	r3, r2, r3
  68 001e 7B60     		str	r3, [r7, #4]
  37:PartA.c       **** 		delay(delayNextSequenceBy);
  69              		.loc 1 37 0 discriminator 1
  70 0020 7B68     		ldr	r3, [r7, #4]
  71 0022 1846     		mov	r0, r3
  72 0024 FFF7FEFF 		bl	delay
  73              	.LBE2:
  34:PartA.c       **** 		transmitMessage();
  74              		.loc 1 34 0 discriminator 1
  75 0028 F1E7     		b	.L2
  76              	.L4:
  77 002a 00BF     		.align	2
  78              	.L3:
  79 002c 00000000 		.word	dotDuration
  80              		.cfi_endproc
  81              	.LFE128:
  83              		.text
  84              	.Letext0:
  85              		.file 2 "/usr/arm-none-eabi/include/machine/_default_types.h"
  86              		.file 3 "/usr/arm-none-eabi/include/sys/_stdint.h"
  87              		.file 4 "/usr/arm-none-eabi/include/sys/lock.h"
  88              		.file 5 "/usr/arm-none-eabi/include/sys/_types.h"
  89              		.file 6 "/usr/lib/gcc/arm-none-eabi/7.3.1/include/stddef.h"
  90              		.file 7 "/usr/arm-none-eabi/include/sys/reent.h"
  91              		.file 8 "/opt/XMClib/XMC_Peripheral_Library_v2.1.16/CMSIS/Include/core_cm4.h"
  92              		.file 9 "/opt/XMClib/XMC_Peripheral_Library_v2.1.16/CMSIS/Infineon/XMC4500_series/Include/system_X
  93              		.file 10 "morse_definition.h"
  94              		.file 11 "timer_config.h"