   1              		.cpu cortex-m4
   2              		.eabi_attribute 27, 1
   3              		.eabi_attribute 20, 1
   4              		.eabi_attribute 21, 1
   5              		.eabi_attribute 23, 3
   6              		.eabi_attribute 24, 1
   7              		.eabi_attribute 25, 1
   8              		.eabi_attribute 26, 1
   9              		.eabi_attribute 30, 6
  10              		.eabi_attribute 34, 1
  11              		.eabi_attribute 18, 4
  12              		.file	"timing.c"
  13              		.text
  14              	.Ltext0:
  15              		.cfi_sections	.debug_frame
  16              		.comm	request_sent_at_time,4,4
  17              		.comm	response_received_at_time,4,4
  18              		.comm	max_response_time,4,4
  19              		.comm	send_message_flag,1,1
  20              		.comm	send_enter_flag,1,1
  21              		.comm	max_iteration_time,672,8
  22              		.comm	samples_response_time,8,8
  23              		.comm	response_counter,4,4
  24              		.comm	max_index,4,4
  25              		.comm	consume_on,1,1
  26              		.global	CORE_TIME_VARIABLE
  27              		.bss
  28              		.align	2
  31              	CORE_TIME_VARIABLE:
  32 0000 00000000 		.space	4
  33              		.global	clock_config
  34              		.section	.rodata
  35              		.align	2
  38              	clock_config:
  39 0000 50       		.byte	80
  40 0001 02       		.byte	2
  41 0002 04       		.byte	4
  42 0003 01       		.byte	1
  43 0004 0000     		.short	0
  44 0006 01       		.byte	1
  45 0007 00       		.space	1
  46 0008 00       		.byte	0
  47 0009 000000   		.space	3
  48 000c 00000100 		.word	65536
  49 0010 01       		.byte	1
  50 0011 01       		.byte	1
  51 0012 01       		.byte	1
  52 0013 01       		.byte	1
  53              		.section	.text.SysTick_Handler,"ax",%progbits
  54              		.align	1
  55              		.global	SysTick_Handler
  56              		.syntax unified
  57              		.thumb
  58              		.thumb_func
  59              		.fpu fpv4-sp-d16
  61              	SysTick_Handler:
  62              	.LFB203:
  63              		.file 1 "timing.c"
   1:timing.c      **** #include "timing.h"
   2:timing.c      **** 
   3:timing.c      **** /* Variables: */
   4:timing.c      **** uint32_t CORE_TIME_VARIABLE = 0;
   5:timing.c      **** 
   6:timing.c      **** XMC_SCU_CLOCK_CONFIG_t clock_config = {
   7:timing.c      ****     .syspll_config.p_div = 2,
   8:timing.c      ****     .syspll_config.n_div = 80,
   9:timing.c      ****     .syspll_config.k_div = 4,
  10:timing.c      ****     .syspll_config.mode = XMC_SCU_CLOCK_SYSPLL_MODE_NORMAL,
  11:timing.c      ****     .syspll_config.clksrc = XMC_SCU_CLOCK_SYSPLLCLKSRC_OSCHP,
  12:timing.c      ****     .enable_oschp = true,
  13:timing.c      ****     .calibration_mode = XMC_SCU_CLOCK_FOFI_CALIBRATION_MODE_FACTORY,
  14:timing.c      ****     .fsys_clksrc = XMC_SCU_CLOCK_SYSCLKSRC_PLL,
  15:timing.c      ****     .fsys_clkdiv = 1,
  16:timing.c      ****     .fcpu_clkdiv = 1,
  17:timing.c      ****     .fccu_clkdiv = 1,
  18:timing.c      ****     .fperipheral_clkdiv = 1};
  19:timing.c      **** 
  20:timing.c      **** void SysTick_Handler(void) { CORE_TIME_VARIABLE++; }
  64              		.loc 1 20 0
  65              		.cfi_startproc
  66              		@ args = 0, pretend = 0, frame = 0
  67              		@ frame_needed = 1, uses_anonymous_args = 0
  68              		@ link register save eliminated.
  69 0000 80B4     		push	{r7}
  70              	.LCFI0:
  71              		.cfi_def_cfa_offset 4
  72              		.cfi_offset 7, -4
  73 0002 00AF     		add	r7, sp, #0
  74              	.LCFI1:
  75              		.cfi_def_cfa_register 7
  76              		.loc 1 20 0
  77 0004 044B     		ldr	r3, .L2
  78 0006 1B68     		ldr	r3, [r3]
  79 0008 0133     		adds	r3, r3, #1
  80 000a 034A     		ldr	r2, .L2
  81 000c 1360     		str	r3, [r2]
  82 000e 00BF     		nop
  83 0010 BD46     		mov	sp, r7
  84              	.LCFI2:
  85              		.cfi_def_cfa_register 13
  86              		@ sp needed
  87 0012 5DF8047B 		ldr	r7, [sp], #4
  88              	.LCFI3:
  89              		.cfi_restore 7
  90              		.cfi_def_cfa_offset 0
  91 0016 7047     		bx	lr
  92              	.L3:
  93              		.align	2
  94              	.L2:
  95 0018 00000000 		.word	CORE_TIME_VARIABLE
  96              		.cfi_endproc
  97              	.LFE203:
  99              		.section	.text.SystemCoreClockSetup,"ax",%progbits
 100              		.align	1
 101              		.global	SystemCoreClockSetup
 102              		.syntax unified
 103              		.thumb
 104              		.thumb_func
 105              		.fpu fpv4-sp-d16
 107              	SystemCoreClockSetup:
 108              	.LFB204:
  21:timing.c      **** 
  22:timing.c      **** void SystemCoreClockSetup(void) {
 109              		.loc 1 22 0
 110              		.cfi_startproc
 111              		@ args = 0, pretend = 0, frame = 0
 112              		@ frame_needed = 1, uses_anonymous_args = 0
 113 0000 80B5     		push	{r7, lr}
 114              	.LCFI4:
 115              		.cfi_def_cfa_offset 8
 116              		.cfi_offset 7, -8
 117              		.cfi_offset 14, -4
 118 0002 00AF     		add	r7, sp, #0
 119              	.LCFI5:
 120              		.cfi_def_cfa_register 7
  23:timing.c      ****   /* Setup settings for USB clock */
  24:timing.c      ****   XMC_SCU_CLOCK_Init(&clock_config);
 121              		.loc 1 24 0
 122 0004 0A48     		ldr	r0, .L5
 123 0006 FFF7FEFF 		bl	XMC_SCU_CLOCK_Init
  25:timing.c      **** 
  26:timing.c      ****   XMC_SCU_CLOCK_EnableUsbPll();
 124              		.loc 1 26 0
 125 000a FFF7FEFF 		bl	XMC_SCU_CLOCK_EnableUsbPll
  27:timing.c      ****   XMC_SCU_CLOCK_StartUsbPll(2, 64);
 126              		.loc 1 27 0
 127 000e 4021     		movs	r1, #64
 128 0010 0220     		movs	r0, #2
 129 0012 FFF7FEFF 		bl	XMC_SCU_CLOCK_StartUsbPll
  28:timing.c      ****   XMC_SCU_CLOCK_SetUsbClockDivider(4);
 130              		.loc 1 28 0
 131 0016 0420     		movs	r0, #4
 132 0018 FFF7FEFF 		bl	XMC_SCU_CLOCK_SetUsbClockDivider
  29:timing.c      ****   XMC_SCU_CLOCK_SetUsbClockSource(XMC_SCU_CLOCK_USBCLKSRC_USBPLL);
 133              		.loc 1 29 0
 134 001c 0020     		movs	r0, #0
 135 001e FFF7FEFF 		bl	XMC_SCU_CLOCK_SetUsbClockSource
  30:timing.c      ****   XMC_SCU_CLOCK_EnableClock(XMC_SCU_CLOCK_USB);
 136              		.loc 1 30 0
 137 0022 0120     		movs	r0, #1
 138 0024 FFF7FEFF 		bl	XMC_SCU_CLOCK_EnableClock
  31:timing.c      **** 
  32:timing.c      ****   SystemCoreClockUpdate();
 139              		.loc 1 32 0
 140 0028 FFF7FEFF 		bl	SystemCoreClockUpdate
  33:timing.c      **** }
 141              		.loc 1 33 0
 142 002c 00BF     		nop
 143 002e 80BD     		pop	{r7, pc}
 144              	.L6:
 145              		.align	2
 146              	.L5:
 147 0030 00000000 		.word	clock_config
 148              		.cfi_endproc
 149              	.LFE204:
 151              		.section	.text.get_system_time,"ax",%progbits
 152              		.align	1
 153              		.global	get_system_time
 154              		.syntax unified
 155              		.thumb
 156              		.thumb_func
 157              		.fpu fpv4-sp-d16
 159              	get_system_time:
 160              	.LFB205:
  34:timing.c      **** 
  35:timing.c      **** uint32_t get_system_time(void) { return CORE_TIME_VARIABLE; }
 161              		.loc 1 35 0
 162              		.cfi_startproc
 163              		@ args = 0, pretend = 0, frame = 0
 164              		@ frame_needed = 1, uses_anonymous_args = 0
 165              		@ link register save eliminated.
 166 0000 80B4     		push	{r7}
 167              	.LCFI6:
 168              		.cfi_def_cfa_offset 4
 169              		.cfi_offset 7, -4
 170 0002 00AF     		add	r7, sp, #0
 171              	.LCFI7:
 172              		.cfi_def_cfa_register 7
 173              		.loc 1 35 0
 174 0004 034B     		ldr	r3, .L9
 175 0006 1B68     		ldr	r3, [r3]
 176 0008 1846     		mov	r0, r3
 177 000a BD46     		mov	sp, r7
 178              	.LCFI8:
 179              		.cfi_def_cfa_register 13
 180              		@ sp needed
 181 000c 5DF8047B 		ldr	r7, [sp], #4
 182              	.LCFI9:
 183              		.cfi_restore 7
 184              		.cfi_def_cfa_offset 0
 185 0010 7047     		bx	lr
 186              	.L10:
 187 0012 00BF     		.align	2
 188              	.L9:
 189 0014 00000000 		.word	CORE_TIME_VARIABLE
 190              		.cfi_endproc
 191              	.LFE205:
 193              		.text
 194              	.Letext0:
 195              		.file 2 "/usr/arm-none-eabi/include/machine/_default_types.h"
 196              		.file 3 "/usr/arm-none-eabi/include/sys/_stdint.h"
 197              		.file 4 "/usr/arm-none-eabi/include/sys/lock.h"
 198              		.file 5 "/usr/arm-none-eabi/include/sys/_types.h"
 199              		.file 6 "/usr/lib/gcc/arm-none-eabi/7.3.1/include/stddef.h"
 200              		.file 7 "/usr/arm-none-eabi/include/sys/reent.h"
 201              		.file 8 "/opt/XMClib/XMC_Peripheral_Library_v2.1.16/CMSIS/Include/core_cm4.h"
 202              		.file 9 "/opt/XMClib/XMC_Peripheral_Library_v2.1.16/CMSIS/Infineon/XMC4500_series/Include/system_X
 203              		.file 10 "/opt/XMClib/XMC_Peripheral_Library_v2.1.16/CMSIS/Infineon/XMC4500_series/Include/XMC4500
 204              		.file 11 "/usr/arm-none-eabi/include/stdlib.h"
 205              		.file 12 "/opt/XMClib/XMC_Peripheral_Library_v2.1.16/XMCLib/inc/xmc_usbd_regs.h"
 206              		.file 13 "/opt/XMClib/XMC_Peripheral_Library_v2.1.16/XMCLib/inc/xmc4_scu.h"
 207              		.file 14 "/opt/XMClib/XMC_Peripheral_Library_v2.1.16/XMCLib/inc/xmc_usbd.h"
 208              		.file 15 "/opt/XMClib/XMC_Peripheral_Library_v2.1.16/ThirdPartyLibraries/USBlib/USB/Core/XMC4000/U
 209              		.file 16 "/opt/XMClib/XMC_Peripheral_Library_v2.1.16/ThirdPartyLibraries/USBlib/USB/Core/XMC4000/.
 210              		.file 17 "/opt/XMClib/XMC_Peripheral_Library_v2.1.16/ThirdPartyLibraries/USBlib/USB/Core/XMC4000/.
 211              		.file 18 "/opt/XMClib/XMC_Peripheral_Library_v2.1.16/ThirdPartyLibraries/USBlib/USB/Core/XMC4000/.
 212              		.file 19 "/opt/XMClib/XMC_Peripheral_Library_v2.1.16/ThirdPartyLibraries/USBlib/USB/Core/USBTask.h
 213              		.file 20 "/opt/XMClib/XMC_Peripheral_Library_v2.1.16/ThirdPartyLibraries/USBlib/USB/Class/Device/H
 214              		.file 21 "KeyboardHID.h"
 215              		.file 22 "authenticator_crack.h"