
build/main.elf:     file format elf32-littlearm

Sections:
Idx Name          Size      VMA       LMA       File off  Algn
  0 .text         00007ea0  08000000  0c000000  00010000  2**6
                  CONTENTS, ALLOC, LOAD, READONLY, CODE
  1 .ARM.exidx    00000008  08007ea0  0c007ea0  00017ea0  2**2
                  CONTENTS, ALLOC, LOAD, READONLY, DATA
  2 Stack         00000800  10000000  10000000  00030000  2**0
                  ALLOC
  3 .ram_code     00000000  10000800  10000800  000209ac  2**0
                  CONTENTS
  4 PSRAM_DATA    00000000  10000800  10000800  000209ac  2**0
                  CONTENTS
  5 PSRAM_BSS     00000000  10000800  10000800  000209ac  2**0
                  CONTENTS
  6 .data         000009ac  20000000  0c007ea8  00020000  2**3
                  CONTENTS, ALLOC, LOAD, DATA
  7 .bss          0000009c  200009ac  0c008854  000209ac  2**2
                  ALLOC
  8 .no_init      00000014  2000ffc0  2000ffc0  0002ffc0  2**2
                  ALLOC
  9 DSRAM2_DATA   00000000  30000000  30000000  000209ac  2**0
                  CONTENTS
 10 DSRAM2_BSS    00000000  30000000  30000000  000209ac  2**0
                  CONTENTS
 11 .debug_aranges 00000218  00000000  00000000  000209b0  2**3
                  CONTENTS, READONLY, DEBUGGING
 12 .debug_info   00007b8e  00000000  00000000  00020bc8  2**0
                  CONTENTS, READONLY, DEBUGGING
 13 .debug_abbrev 000013a0  00000000  00000000  00028756  2**0
                  CONTENTS, READONLY, DEBUGGING
 14 .debug_line   000022c0  00000000  00000000  00029af6  2**0
                  CONTENTS, READONLY, DEBUGGING
 15 .debug_frame  00001394  00000000  00000000  0002bdb8  2**2
                  CONTENTS, READONLY, DEBUGGING
 16 .debug_str    000772f1  00000000  00000000  0002d14c  2**0
                  CONTENTS, READONLY, DEBUGGING
 17 .debug_loc    00000a50  00000000  00000000  000a443d  2**0
                  CONTENTS, READONLY, DEBUGGING
 18 .debug_ranges 00000168  00000000  00000000  000a4e8d  2**0
                  CONTENTS, READONLY, DEBUGGING
 19 .build_attributes 000009fc  00000000  00000000  000a4ff5  2**0
                  CONTENTS, READONLY
 20 .debug_macro  00019597  00000000  00000000  000a59f1  2**0
                  CONTENTS, READONLY, DEBUGGING

Disassembly of section .text:

08000000 <__Vectors>:
 8000000:	00 08 00 10 01 02 00 08 b1 02 00 08 b1 02 00 08     ................
 8000010:	b1 02 00 08 b1 02 00 08 b1 02 00 08 00 00 00 00     ................
	...
 800002c:	b1 02 00 08 b1 02 00 08 00 00 00 00 b1 02 00 08     ................
 800003c:	ad 0e 00 08 b1 02 00 08 b1 02 00 08 b1 02 00 08     ................
 800004c:	b1 02 00 08 b1 02 00 08 b1 02 00 08 b1 02 00 08     ................
 800005c:	b1 02 00 08 b1 02 00 08 00 00 00 00 00 00 00 00     ................
 800006c:	00 00 00 00 b1 02 00 08 00 00 00 00 b1 02 00 08     ................
 800007c:	b1 02 00 08 b1 02 00 08 b1 02 00 08 b1 02 00 08     ................
 800008c:	b1 02 00 08 b1 02 00 08 b1 02 00 08 b1 02 00 08     ................
 800009c:	b1 02 00 08 b1 02 00 08 b1 02 00 08 b1 02 00 08     ................
 80000ac:	b1 02 00 08 b1 02 00 08 b1 02 00 08 b1 02 00 08     ................
 80000bc:	b1 02 00 08 b1 02 00 08 b1 02 00 08 b1 02 00 08     ................
 80000cc:	b1 02 00 08 b1 02 00 08 b1 02 00 08 b1 02 00 08     ................
 80000dc:	b1 02 00 08 b1 02 00 08 b1 02 00 08 b1 02 00 08     ................
 80000ec:	b1 02 00 08 b1 02 00 08 b1 02 00 08 b1 02 00 08     ................
 80000fc:	b1 02 00 08 b1 02 00 08 b1 02 00 08 b1 02 00 08     ................
 800010c:	b1 02 00 08 b1 02 00 08 b1 02 00 08 b1 02 00 08     ................
 800011c:	b1 02 00 08 b1 02 00 08 b1 02 00 08 b1 02 00 08     ................
 800012c:	b1 02 00 08 b1 02 00 08 b1 02 00 08 b1 02 00 08     ................
 800013c:	b1 02 00 08 b1 02 00 08 b1 02 00 08 b1 02 00 08     ................
 800014c:	b1 02 00 08 b1 02 00 08 b1 02 00 08 b1 02 00 08     ................
 800015c:	b1 02 00 08 00 00 00 00 00 00 00 00 00 00 00 00     ................
 800016c:	00 00 00 00 b1 02 00 08 b1 02 00 08 b1 02 00 08     ................
 800017c:	b1 02 00 08 b1 02 00 08 b1 02 00 08 b1 02 00 08     ................
 800018c:	b1 02 00 08 b1 02 00 08 b1 02 00 08 b1 02 00 08     ................
 800019c:	b1 02 00 08 b1 02 00 08 b1 02 00 08 b1 02 00 08     ................
 80001ac:	b1 02 00 08 b1 02 00 08 b1 02 00 08 b1 02 00 08     ................
 80001bc:	b1 02 00 08 b1 02 00 08 b1 02 00 08 b1 02 00 08     ................
 80001cc:	b1 02 00 08 b1 02 00 08 b1 02 00 08 b1 02 00 08     ................
 80001dc:	00 00 00 00 b1 02 00 08 b1 02 00 08 b1 02 00 08     ................
 80001ec:	b1 02 00 08 b1 02 00 08 00 00 00 00 b1 02 00 08     ................
 80001fc:	00 00 00 00                                         ....

08000200 <Reset_Handler>:
/* Reset Handler */
    .thumb_func
    .globl  Reset_Handler
    .type   Reset_Handler, %function
Reset_Handler:
    ldr sp,=__initial_sp
 8000200:	f8df d08c 	ldr.w	sp, [pc, #140]	; 8000290 <__zero_table_end__>

#ifndef __SKIP_SYSTEM_INIT
    ldr  r0, =SystemInit
 8000204:	4823      	ldr	r0, [pc, #140]	; (8000294 <__zero_table_end__+0x4>)
    blx  r0
 8000206:	4780      	blx	r0
 *    offset 4: VMA of start of a section to copy to
 *    offset 8: size of the section to copy. Must be multiply of 4
 *
 *  All addresses must be aligned to 4 bytes boundary.
 */
	ldr	r4, =__copy_table_start__
 8000208:	4c23      	ldr	r4, [pc, #140]	; (8000298 <__zero_table_end__+0x8>)
	ldr	r5, =__copy_table_end__
 800020a:	4d24      	ldr	r5, [pc, #144]	; (800029c <__zero_table_end__+0xc>)

.L_loop0:
	cmp	r4, r5
 800020c:	42ac      	cmp	r4, r5
	bge	.L_loop0_done
 800020e:	da09      	bge.n	8000224 <Reset_Handler+0x24>
	ldr	r1, [r4]
 8000210:	6821      	ldr	r1, [r4, #0]
	ldr	r2, [r4, #4]
 8000212:	6862      	ldr	r2, [r4, #4]
	ldr	r3, [r4, #8]
 8000214:	68a3      	ldr	r3, [r4, #8]

.L_loop0_0:
	subs	r3, #4
 8000216:	3b04      	subs	r3, #4
	ittt	ge
 8000218:	bfa2      	ittt	ge
	ldrge	r0, [r1, r3]
 800021a:	58c8      	ldrge	r0, [r1, r3]
	strge	r0, [r2, r3]
 800021c:	50d0      	strge	r0, [r2, r3]
	bge	.L_loop0_0
 800021e:	e7fa      	bge.n	8000216 <Reset_Handler+0x16>

	adds	r4, #12
 8000220:	340c      	adds	r4, #12
	b	.L_loop0
 8000222:	e7f3      	b.n	800020c <Reset_Handler+0xc>
 *    offset 4: Size of this BSS section. Must be multiply of 4
 *
 *  Define __SKIP_BSS_CLEAR to disable zeroing uninitialzed data in startup.
 */    
#ifndef __SKIP_BSS_CLEAR
	ldr	r3, =__zero_table_start__
 8000224:	4b1e      	ldr	r3, [pc, #120]	; (80002a0 <__zero_table_end__+0x10>)
	ldr	r4, =__zero_table_end__
 8000226:	4c1f      	ldr	r4, [pc, #124]	; (80002a4 <__zero_table_end__+0x14>)

.L_loop2:
	cmp	r3, r4
 8000228:	42a3      	cmp	r3, r4
	bge	.L_loop2_done
 800022a:	da08      	bge.n	800023e <Reset_Handler+0x3e>
	ldr	r1, [r3]
 800022c:	6819      	ldr	r1, [r3, #0]
	ldr	r2, [r3, #4]
 800022e:	685a      	ldr	r2, [r3, #4]
	movs	r0, 0
 8000230:	2000      	movs	r0, #0

.L_loop2_0:
	subs	r2, #4
 8000232:	3a04      	subs	r2, #4
	itt	ge
 8000234:	bfa4      	itt	ge
	strge	r0, [r1, r2]
 8000236:	5088      	strge	r0, [r1, r2]
	bge	.L_loop2_0
 8000238:	e7fb      	bge.n	8000232 <Reset_Handler+0x32>

	adds	r3, #8
 800023a:	3308      	adds	r3, #8
	b	.L_loop2
 800023c:	e7f4      	b.n	8000228 <Reset_Handler+0x28>
.L_loop2_done:    
#endif /* __SKIP_BSS_CLEAR */
   
#ifndef __SKIP_LIBC_INIT_ARRAY
    ldr  r0, =__libc_init_array
 800023e:	481a      	ldr	r0, [pc, #104]	; (80002a8 <__zero_table_end__+0x18>)
    blx  r0
 8000240:	4780      	blx	r0
#endif

    ldr  r0, =main
 8000242:	481a      	ldr	r0, [pc, #104]	; (80002ac <__zero_table_end__+0x1c>)
    blx  r0
 8000244:	4780      	blx	r0
	...

08000248 <__copy_table_start__>:
 8000248:	0c007ea8 	.word	0x0c007ea8
 800024c:	20000000 	.word	0x20000000
 8000250:	000009ac 	.word	0x000009ac
 8000254:	0c008854 	.word	0x0c008854
 8000258:	30000000 	.word	0x30000000
 800025c:	00000000 	.word	0x00000000
 8000260:	0c007ea8 	.word	0x0c007ea8
 8000264:	10000800 	.word	0x10000800
 8000268:	00000000 	.word	0x00000000
 800026c:	0c007ea8 	.word	0x0c007ea8
 8000270:	10000800 	.word	0x10000800
 8000274:	00000000 	.word	0x00000000

08000278 <__copy_table_end__>:
 8000278:	200009ac 	.word	0x200009ac
 800027c:	00000098 	.word	0x00000098
 8000280:	30000000 	.word	0x30000000
 8000284:	00000000 	.word	0x00000000
 8000288:	10000800 	.word	0x10000800
 800028c:	00000000 	.word	0x00000000

08000290 <__zero_table_end__>:
    ldr sp,=__initial_sp
 8000290:	10000800 	.word	0x10000800
    ldr  r0, =SystemInit
 8000294:	08000fa9 	.word	0x08000fa9
	ldr	r4, =__copy_table_start__
 8000298:	08000248 	.word	0x08000248
	ldr	r5, =__copy_table_end__
 800029c:	08000278 	.word	0x08000278
	ldr	r3, =__zero_table_start__
 80002a0:	08000278 	.word	0x08000278
	ldr	r4, =__zero_table_end__
 80002a4:	08000290 	.word	0x08000290
    ldr  r0, =__libc_init_array
 80002a8:	08002309 	.word	0x08002309
    ldr  r0, =main
 80002ac:	080002b5 	.word	0x080002b5

080002b0 <BusFault_Handler>:
	.align	1
    .thumb_func
    .weak Default_Handler
    .type Default_Handler, %function
Default_Handler:
    b .
 80002b0:	e7fe      	b.n	80002b0 <BusFault_Handler>
	...

080002b4 <main>:
*********************************************************************************************************************************************************************************************/

/**
*	Main function of PartB of Assignment. 
*/
int main (void) {
 80002b4:	b580      	push	{r7, lr}
 80002b6:	b084      	sub	sp, #16
 80002b8:	af00      	add	r7, sp, #0
	
	// 1. Initialise System Clock.
	init_sys_tick();
 80002ba:	f000 fde5 	bl	8000e88 <init_sys_tick>
	
	// 2. Capture Boot Time.
	boot_time = get_current_time();
 80002be:	f000 fe1b 	bl	8000ef8 <get_current_time>
 80002c2:	4602      	mov	r2, r0
 80002c4:	4b71      	ldr	r3, [pc, #452]	; (800048c <main+0x1d8>)
 80002c6:	601a      	str	r2, [r3, #0]
	
	// 3. Initialise I/O
	init_GPIO();
 80002c8:	f000 faec 	bl	80008a4 <init_GPIO>
	init_button_for_input_read();
 80002cc:	f000 faaa 	bl	8000824 <init_button_for_input_read>
	
	// 4. Program Logic
	
	if(button1_counter == 0) {
 80002d0:	4b6f      	ldr	r3, [pc, #444]	; (8000490 <main+0x1dc>)
 80002d2:	681b      	ldr	r3, [r3, #0]
 80002d4:	2b00      	cmp	r3, #0
 80002d6:	d102      	bne.n	80002de <main+0x2a>
				print_time_once = true;
 80002d8:	4b6e      	ldr	r3, [pc, #440]	; (8000494 <main+0x1e0>)
 80002da:	2201      	movs	r2, #1
 80002dc:	701a      	strb	r2, [r3, #0]
		}
		
	while (1) {
		uint32_t current_time_ms = get_current_time();
 80002de:	f000 fe0b 	bl	8000ef8 <get_current_time>
 80002e2:	6078      	str	r0, [r7, #4]
		bool button1_state = get_button1_state();
 80002e4:	f000 fa62 	bl	80007ac <get_button1_state>
 80002e8:	4603      	mov	r3, r0
 80002ea:	70fb      	strb	r3, [r7, #3]
		bool button2_state = get_button2_state();
 80002ec:	f000 fa68 	bl	80007c0 <get_button2_state>
 80002f0:	4603      	mov	r3, r0
 80002f2:	70bb      	strb	r3, [r7, #2]
		
		if (button1_state && prev_button1_state) {
 80002f4:	78fb      	ldrb	r3, [r7, #3]
 80002f6:	2b00      	cmp	r3, #0
 80002f8:	d05d      	beq.n	80003b6 <main+0x102>
 80002fa:	4b67      	ldr	r3, [pc, #412]	; (8000498 <main+0x1e4>)
 80002fc:	781b      	ldrb	r3, [r3, #0]
 80002fe:	2b00      	cmp	r3, #0
 8000300:	d059      	beq.n	80003b6 <main+0x102>
			if(!button2_state) {
 8000302:	78bb      	ldrb	r3, [r7, #2]
 8000304:	f083 0301 	eor.w	r3, r3, #1
 8000308:	b2db      	uxtb	r3, r3
 800030a:	2b00      	cmp	r3, #0
 800030c:	d024      	beq.n	8000358 <main+0xa4>
				button1_counter++;
 800030e:	4b60      	ldr	r3, [pc, #384]	; (8000490 <main+0x1dc>)
 8000310:	681b      	ldr	r3, [r3, #0]
 8000312:	3301      	adds	r3, #1
 8000314:	4a5e      	ldr	r2, [pc, #376]	; (8000490 <main+0x1dc>)
 8000316:	6013      	str	r3, [r2, #0]
				if(button1_counter == 1) {
 8000318:	4b5d      	ldr	r3, [pc, #372]	; (8000490 <main+0x1dc>)
 800031a:	681b      	ldr	r3, [r3, #0]
 800031c:	2b01      	cmp	r3, #1
 800031e:	d102      	bne.n	8000326 <main+0x72>
					button1_first_press = current_time_ms;
 8000320:	4a5e      	ldr	r2, [pc, #376]	; (800049c <main+0x1e8>)
 8000322:	687b      	ldr	r3, [r7, #4]
 8000324:	6013      	str	r3, [r2, #0]
				}
				time_between_two_button1_press = current_time_ms - button1_previous_time;
 8000326:	4b5e      	ldr	r3, [pc, #376]	; (80004a0 <main+0x1ec>)
 8000328:	681b      	ldr	r3, [r3, #0]
 800032a:	687a      	ldr	r2, [r7, #4]
 800032c:	1ad3      	subs	r3, r2, r3
 800032e:	4a5d      	ldr	r2, [pc, #372]	; (80004a4 <main+0x1f0>)
 8000330:	6013      	str	r3, [r2, #0]
				button1_previous_time = current_time_ms;
 8000332:	4a5b      	ldr	r2, [pc, #364]	; (80004a0 <main+0x1ec>)
 8000334:	687b      	ldr	r3, [r7, #4]
 8000336:	6013      	str	r3, [r2, #0]
				print_time_once = true;
 8000338:	4b56      	ldr	r3, [pc, #344]	; (8000494 <main+0x1e0>)
 800033a:	2201      	movs	r2, #1
 800033c:	701a      	strb	r2, [r3, #0]
				if (!has_string_transmitted) {
 800033e:	4b5a      	ldr	r3, [pc, #360]	; (80004a8 <main+0x1f4>)
 8000340:	781b      	ldrb	r3, [r3, #0]
 8000342:	f083 0301 	eor.w	r3, r3, #1
 8000346:	b2db      	uxtb	r3, r3
 8000348:	2b00      	cmp	r3, #0
 800034a:	d030      	beq.n	80003ae <main+0xfa>
					transmit_message();
 800034c:	f000 faf4 	bl	8000938 <transmit_message>
					has_string_transmitted = true;
 8000350:	4b55      	ldr	r3, [pc, #340]	; (80004a8 <main+0x1f4>)
 8000352:	2201      	movs	r2, #1
 8000354:	701a      	strb	r2, [r3, #0]
 8000356:	e02a      	b.n	80003ae <main+0xfa>
				}
			} else {
				while(!button2_state) {
 8000358:	bf00      	nop
 800035a:	78bb      	ldrb	r3, [r7, #2]
 800035c:	f083 0301 	eor.w	r3, r3, #1
 8000360:	b2db      	uxtb	r3, r3
 8000362:	2b00      	cmp	r3, #0
 8000364:	d1f9      	bne.n	800035a <main+0xa6>
					// Do Nothing. i.e. wait until button2 is released..
				}
				button1_counter++;
 8000366:	4b4a      	ldr	r3, [pc, #296]	; (8000490 <main+0x1dc>)
 8000368:	681b      	ldr	r3, [r3, #0]
 800036a:	3301      	adds	r3, #1
 800036c:	4a48      	ldr	r2, [pc, #288]	; (8000490 <main+0x1dc>)
 800036e:	6013      	str	r3, [r2, #0]
				if(button1_counter == 1) {
 8000370:	4b47      	ldr	r3, [pc, #284]	; (8000490 <main+0x1dc>)
 8000372:	681b      	ldr	r3, [r3, #0]
 8000374:	2b01      	cmp	r3, #1
 8000376:	d102      	bne.n	800037e <main+0xca>
					button1_first_press = current_time_ms;
 8000378:	4a48      	ldr	r2, [pc, #288]	; (800049c <main+0x1e8>)
 800037a:	687b      	ldr	r3, [r7, #4]
 800037c:	6013      	str	r3, [r2, #0]
				}
				time_between_two_button1_press = current_time_ms - button1_previous_time;
 800037e:	4b48      	ldr	r3, [pc, #288]	; (80004a0 <main+0x1ec>)
 8000380:	681b      	ldr	r3, [r3, #0]
 8000382:	687a      	ldr	r2, [r7, #4]
 8000384:	1ad3      	subs	r3, r2, r3
 8000386:	4a47      	ldr	r2, [pc, #284]	; (80004a4 <main+0x1f0>)
 8000388:	6013      	str	r3, [r2, #0]
				button1_previous_time = current_time_ms;
 800038a:	4a45      	ldr	r2, [pc, #276]	; (80004a0 <main+0x1ec>)
 800038c:	687b      	ldr	r3, [r7, #4]
 800038e:	6013      	str	r3, [r2, #0]
				print_time_once = true;
 8000390:	4b40      	ldr	r3, [pc, #256]	; (8000494 <main+0x1e0>)
 8000392:	2201      	movs	r2, #1
 8000394:	701a      	strb	r2, [r3, #0]
				if (!has_string_transmitted) {
 8000396:	4b44      	ldr	r3, [pc, #272]	; (80004a8 <main+0x1f4>)
 8000398:	781b      	ldrb	r3, [r3, #0]
 800039a:	f083 0301 	eor.w	r3, r3, #1
 800039e:	b2db      	uxtb	r3, r3
 80003a0:	2b00      	cmp	r3, #0
 80003a2:	d004      	beq.n	80003ae <main+0xfa>
					transmit_message();
 80003a4:	f000 fac8 	bl	8000938 <transmit_message>
					has_string_transmitted = true;
 80003a8:	4b3f      	ldr	r3, [pc, #252]	; (80004a8 <main+0x1f4>)
 80003aa:	2201      	movs	r2, #1
 80003ac:	701a      	strb	r2, [r3, #0]
				}
			}
			delay(50);
 80003ae:	2032      	movs	r0, #50	; 0x32
 80003b0:	f000 fd8a 	bl	8000ec8 <delay>
 80003b4:	e002      	b.n	80003bc <main+0x108>
		} else {
			has_string_transmitted = false;
 80003b6:	4b3c      	ldr	r3, [pc, #240]	; (80004a8 <main+0x1f4>)
 80003b8:	2200      	movs	r2, #0
 80003ba:	701a      	strb	r2, [r3, #0]
		}	
		
		prev_button1_state = button1_state;
 80003bc:	4a36      	ldr	r2, [pc, #216]	; (8000498 <main+0x1e4>)
 80003be:	78fb      	ldrb	r3, [r7, #3]
 80003c0:	7013      	strb	r3, [r2, #0]
		
		if(button2_state && prev_button2_state) {
 80003c2:	78bb      	ldrb	r3, [r7, #2]
 80003c4:	2b00      	cmp	r3, #0
 80003c6:	d05c      	beq.n	8000482 <main+0x1ce>
 80003c8:	4b38      	ldr	r3, [pc, #224]	; (80004ac <main+0x1f8>)
 80003ca:	781b      	ldrb	r3, [r3, #0]
 80003cc:	2b00      	cmp	r3, #0
 80003ce:	d058      	beq.n	8000482 <main+0x1ce>
			if (!button1_state) {
 80003d0:	78fb      	ldrb	r3, [r7, #3]
 80003d2:	f083 0301 	eor.w	r3, r3, #1
 80003d6:	b2db      	uxtb	r3, r3
 80003d8:	2b00      	cmp	r3, #0
 80003da:	d024      	beq.n	8000426 <main+0x172>
				char* message;
				switch(button1_counter) {
 80003dc:	4b2c      	ldr	r3, [pc, #176]	; (8000490 <main+0x1dc>)
 80003de:	681b      	ldr	r3, [r3, #0]
 80003e0:	2b00      	cmp	r3, #0
 80003e2:	d002      	beq.n	80003ea <main+0x136>
 80003e4:	2b01      	cmp	r3, #1
 80003e6:	d003      	beq.n	80003f0 <main+0x13c>
 80003e8:	e00c      	b.n	8000404 <main+0x150>
					case 0:
							message = "0";
 80003ea:	4b31      	ldr	r3, [pc, #196]	; (80004b0 <main+0x1fc>)
 80003ec:	60fb      	str	r3, [r7, #12]
							break;
 80003ee:	e00f      	b.n	8000410 <main+0x15c>
					case 1:
							message = character_notation_of_number(button1_first_press - boot_time);
 80003f0:	4b2a      	ldr	r3, [pc, #168]	; (800049c <main+0x1e8>)
 80003f2:	681a      	ldr	r2, [r3, #0]
 80003f4:	4b25      	ldr	r3, [pc, #148]	; (800048c <main+0x1d8>)
 80003f6:	681b      	ldr	r3, [r3, #0]
 80003f8:	1ad3      	subs	r3, r2, r3
 80003fa:	4618      	mov	r0, r3
 80003fc:	f000 fd88 	bl	8000f10 <character_notation_of_number>
 8000400:	60f8      	str	r0, [r7, #12]
							break;
 8000402:	e005      	b.n	8000410 <main+0x15c>
					default:
							message = character_notation_of_number(time_between_two_button1_press);
 8000404:	4b27      	ldr	r3, [pc, #156]	; (80004a4 <main+0x1f0>)
 8000406:	681b      	ldr	r3, [r3, #0]
 8000408:	4618      	mov	r0, r3
 800040a:	f000 fd81 	bl	8000f10 <character_notation_of_number>
 800040e:	60f8      	str	r0, [r7, #12]
				}
				if (print_time_once) {
 8000410:	4b20      	ldr	r3, [pc, #128]	; (8000494 <main+0x1e0>)
 8000412:	781b      	ldrb	r3, [r3, #0]
 8000414:	2b00      	cmp	r3, #0
 8000416:	d031      	beq.n	800047c <main+0x1c8>
					transmit_time(message);
 8000418:	68f8      	ldr	r0, [r7, #12]
 800041a:	f000 faed 	bl	80009f8 <transmit_time>
					print_time_once = false;
 800041e:	4b1d      	ldr	r3, [pc, #116]	; (8000494 <main+0x1e0>)
 8000420:	2200      	movs	r2, #0
 8000422:	701a      	strb	r2, [r3, #0]
 8000424:	e02a      	b.n	800047c <main+0x1c8>
				} 
			} else {
				while(!button1_state) {
 8000426:	bf00      	nop
 8000428:	78fb      	ldrb	r3, [r7, #3]
 800042a:	f083 0301 	eor.w	r3, r3, #1
 800042e:	b2db      	uxtb	r3, r3
 8000430:	2b00      	cmp	r3, #0
 8000432:	d1f9      	bne.n	8000428 <main+0x174>
					// Do Nothing. i.e. wait until button1 is released.
				}
				char* message;
				switch(button1_counter) {
 8000434:	4b16      	ldr	r3, [pc, #88]	; (8000490 <main+0x1dc>)
 8000436:	681b      	ldr	r3, [r3, #0]
 8000438:	2b00      	cmp	r3, #0
 800043a:	d002      	beq.n	8000442 <main+0x18e>
 800043c:	2b01      	cmp	r3, #1
 800043e:	d003      	beq.n	8000448 <main+0x194>
 8000440:	e00c      	b.n	800045c <main+0x1a8>
					case 0:
							message = "0";
 8000442:	4b1b      	ldr	r3, [pc, #108]	; (80004b0 <main+0x1fc>)
 8000444:	60bb      	str	r3, [r7, #8]
							break;
 8000446:	e00f      	b.n	8000468 <main+0x1b4>
					case 1:
							message = character_notation_of_number(button1_first_press - boot_time);
 8000448:	4b14      	ldr	r3, [pc, #80]	; (800049c <main+0x1e8>)
 800044a:	681a      	ldr	r2, [r3, #0]
 800044c:	4b0f      	ldr	r3, [pc, #60]	; (800048c <main+0x1d8>)
 800044e:	681b      	ldr	r3, [r3, #0]
 8000450:	1ad3      	subs	r3, r2, r3
 8000452:	4618      	mov	r0, r3
 8000454:	f000 fd5c 	bl	8000f10 <character_notation_of_number>
 8000458:	60b8      	str	r0, [r7, #8]
							break;
 800045a:	e005      	b.n	8000468 <main+0x1b4>
					default:
							message = character_notation_of_number(time_between_two_button1_press);
 800045c:	4b11      	ldr	r3, [pc, #68]	; (80004a4 <main+0x1f0>)
 800045e:	681b      	ldr	r3, [r3, #0]
 8000460:	4618      	mov	r0, r3
 8000462:	f000 fd55 	bl	8000f10 <character_notation_of_number>
 8000466:	60b8      	str	r0, [r7, #8]
				}
				if(print_time_once) {
 8000468:	4b0a      	ldr	r3, [pc, #40]	; (8000494 <main+0x1e0>)
 800046a:	781b      	ldrb	r3, [r3, #0]
 800046c:	2b00      	cmp	r3, #0
 800046e:	d005      	beq.n	800047c <main+0x1c8>
					transmit_time(message);
 8000470:	68b8      	ldr	r0, [r7, #8]
 8000472:	f000 fac1 	bl	80009f8 <transmit_time>
					print_time_once = false;
 8000476:	4b07      	ldr	r3, [pc, #28]	; (8000494 <main+0x1e0>)
 8000478:	2200      	movs	r2, #0
 800047a:	701a      	strb	r2, [r3, #0]
				}
			}
			delay(50);
 800047c:	2032      	movs	r0, #50	; 0x32
 800047e:	f000 fd23 	bl	8000ec8 <delay>
		}
		
		prev_button2_state = button2_state;
 8000482:	4a0a      	ldr	r2, [pc, #40]	; (80004ac <main+0x1f8>)
 8000484:	78bb      	ldrb	r3, [r7, #2]
 8000486:	7013      	strb	r3, [r2, #0]
	while (1) {
 8000488:	e729      	b.n	80002de <main+0x2a>
 800048a:	bf00      	nop
 800048c:	20000a18 	.word	0x20000a18
 8000490:	200009bc 	.word	0x200009bc
 8000494:	200009b9 	.word	0x200009b9
 8000498:	200009c0 	.word	0x200009c0
 800049c:	200009b0 	.word	0x200009b0
 80004a0:	200009ac 	.word	0x200009ac
 80004a4:	200009b4 	.word	0x200009b4
 80004a8:	200009b8 	.word	0x200009b8
 80004ac:	200009c1 	.word	0x200009c1
 80004b0:	08007b9c 	.word	0x08007b9c

080004b4 <XMC_GPIO_SetMode>:
/*******************************************************************************
 * API IMPLEMENTATION
 *******************************************************************************/

void XMC_GPIO_SetMode(XMC_GPIO_PORT_t *const port, const uint8_t pin, const XMC_GPIO_MODE_t mode)
{
 80004b4:	b480      	push	{r7}
 80004b6:	b083      	sub	sp, #12
 80004b8:	af00      	add	r7, sp, #0
 80004ba:	6078      	str	r0, [r7, #4]
 80004bc:	460b      	mov	r3, r1
 80004be:	70fb      	strb	r3, [r7, #3]
 80004c0:	4613      	mov	r3, r2
 80004c2:	70bb      	strb	r3, [r7, #2]
  XMC_ASSERT("XMC_GPIO_SetMode: Invalid port", XMC_GPIO_CHECK_PORT(port));
  XMC_ASSERT("XMC_GPIO_SetMode: Invalid mode", XMC_GPIO_IsModeValid(mode));

  port->IOCR[(uint32_t)pin >> 2U] &= ~(uint32_t)((uint32_t)PORT_IOCR_PC_Msk << ((uint32_t)PORT_IOCR_PC_Size * ((uint32_t)pin & 0x3U)));
 80004c4:	78fb      	ldrb	r3, [r7, #3]
 80004c6:	089b      	lsrs	r3, r3, #2
 80004c8:	b2db      	uxtb	r3, r3
 80004ca:	461a      	mov	r2, r3
 80004cc:	687b      	ldr	r3, [r7, #4]
 80004ce:	3204      	adds	r2, #4
 80004d0:	f853 2022 	ldr.w	r2, [r3, r2, lsl #2]
 80004d4:	78fb      	ldrb	r3, [r7, #3]
 80004d6:	f003 0303 	and.w	r3, r3, #3
 80004da:	00db      	lsls	r3, r3, #3
 80004dc:	21f8      	movs	r1, #248	; 0xf8
 80004de:	fa01 f303 	lsl.w	r3, r1, r3
 80004e2:	43db      	mvns	r3, r3
 80004e4:	78f9      	ldrb	r1, [r7, #3]
 80004e6:	0889      	lsrs	r1, r1, #2
 80004e8:	b2c9      	uxtb	r1, r1
 80004ea:	4608      	mov	r0, r1
 80004ec:	ea02 0103 	and.w	r1, r2, r3
 80004f0:	687b      	ldr	r3, [r7, #4]
 80004f2:	1d02      	adds	r2, r0, #4
 80004f4:	f843 1022 	str.w	r1, [r3, r2, lsl #2]
  port->IOCR[(uint32_t)pin >> 2U] |= (uint32_t)mode << ((uint32_t)PORT_IOCR_PC_Size * ((uint32_t)pin & 0x3U));
 80004f8:	78fb      	ldrb	r3, [r7, #3]
 80004fa:	089b      	lsrs	r3, r3, #2
 80004fc:	b2db      	uxtb	r3, r3
 80004fe:	461a      	mov	r2, r3
 8000500:	687b      	ldr	r3, [r7, #4]
 8000502:	3204      	adds	r2, #4
 8000504:	f853 2022 	ldr.w	r2, [r3, r2, lsl #2]
 8000508:	78b9      	ldrb	r1, [r7, #2]
 800050a:	78fb      	ldrb	r3, [r7, #3]
 800050c:	f003 0303 	and.w	r3, r3, #3
 8000510:	00db      	lsls	r3, r3, #3
 8000512:	fa01 f303 	lsl.w	r3, r1, r3
 8000516:	78f9      	ldrb	r1, [r7, #3]
 8000518:	0889      	lsrs	r1, r1, #2
 800051a:	b2c9      	uxtb	r1, r1
 800051c:	4608      	mov	r0, r1
 800051e:	ea42 0103 	orr.w	r1, r2, r3
 8000522:	687b      	ldr	r3, [r7, #4]
 8000524:	1d02      	adds	r2, r0, #4
 8000526:	f843 1022 	str.w	r1, [r3, r2, lsl #2]
}
 800052a:	bf00      	nop
 800052c:	370c      	adds	r7, #12
 800052e:	46bd      	mov	sp, r7
 8000530:	f85d 7b04 	ldr.w	r7, [sp], #4
 8000534:	4770      	bx	lr

08000536 <XMC_GPIO_SetHardwareControl>:

void XMC_GPIO_SetHardwareControl(XMC_GPIO_PORT_t *const port, const uint8_t pin, const XMC_GPIO_HWCTRL_t hwctrl)
{
 8000536:	b480      	push	{r7}
 8000538:	b083      	sub	sp, #12
 800053a:	af00      	add	r7, sp, #0
 800053c:	6078      	str	r0, [r7, #4]
 800053e:	460b      	mov	r3, r1
 8000540:	70fb      	strb	r3, [r7, #3]
 8000542:	4613      	mov	r3, r2
 8000544:	70bb      	strb	r3, [r7, #2]
  XMC_ASSERT("XMC_GPIO_SetHardwareControl: Invalid port", XMC_GPIO_CHECK_PORT(port));
  XMC_ASSERT("XMC_GPIO_SetHardwareControl: Invalid hwctrl", XMC_GPIO_CHECK_HWCTRL(hwctrl));

  port->HWSEL &= ~(uint32_t)((uint32_t)PORT_HWSEL_Msk << ((uint32_t)pin << 1U));
 8000546:	687b      	ldr	r3, [r7, #4]
 8000548:	6f5a      	ldr	r2, [r3, #116]	; 0x74
 800054a:	78fb      	ldrb	r3, [r7, #3]
 800054c:	005b      	lsls	r3, r3, #1
 800054e:	2103      	movs	r1, #3
 8000550:	fa01 f303 	lsl.w	r3, r1, r3
 8000554:	43db      	mvns	r3, r3
 8000556:	401a      	ands	r2, r3
 8000558:	687b      	ldr	r3, [r7, #4]
 800055a:	675a      	str	r2, [r3, #116]	; 0x74
  port->HWSEL |= (uint32_t)hwctrl << ((uint32_t)pin << 1U);
 800055c:	687b      	ldr	r3, [r7, #4]
 800055e:	6f5a      	ldr	r2, [r3, #116]	; 0x74
 8000560:	78b9      	ldrb	r1, [r7, #2]
 8000562:	78fb      	ldrb	r3, [r7, #3]
 8000564:	005b      	lsls	r3, r3, #1
 8000566:	fa01 f303 	lsl.w	r3, r1, r3
 800056a:	431a      	orrs	r2, r3
 800056c:	687b      	ldr	r3, [r7, #4]
 800056e:	675a      	str	r2, [r3, #116]	; 0x74
}
 8000570:	bf00      	nop
 8000572:	370c      	adds	r7, #12
 8000574:	46bd      	mov	sp, r7
 8000576:	f85d 7b04 	ldr.w	r7, [sp], #4
 800057a:	4770      	bx	lr

0800057c <XMC_GPIO_Init>:
/*******************************************************************************
 * API IMPLEMENTATION
 *******************************************************************************/

void XMC_GPIO_Init(XMC_GPIO_PORT_t *const port, const uint8_t pin, const XMC_GPIO_CONFIG_t *const config)
{
 800057c:	b480      	push	{r7}
 800057e:	b085      	sub	sp, #20
 8000580:	af00      	add	r7, sp, #0
 8000582:	60f8      	str	r0, [r7, #12]
 8000584:	460b      	mov	r3, r1
 8000586:	607a      	str	r2, [r7, #4]
 8000588:	72fb      	strb	r3, [r7, #11]
  XMC_ASSERT("XMC_GPIO_Init: Invalid port", XMC_GPIO_CHECK_PORT(port));
  XMC_ASSERT("XMC_GPIO_Init: Invalid mode", XMC_GPIO_IsModeValid(config->mode));
 
  /* Switch to input */
  port->IOCR[pin >> 2U] &= (uint32_t)~(PORT_IOCR_PC_Msk << (PORT_IOCR_PC_Size * (pin & 0x3U)));
 800058a:	7afb      	ldrb	r3, [r7, #11]
 800058c:	089b      	lsrs	r3, r3, #2
 800058e:	b2db      	uxtb	r3, r3
 8000590:	461a      	mov	r2, r3
 8000592:	68fb      	ldr	r3, [r7, #12]
 8000594:	3204      	adds	r2, #4
 8000596:	f853 2022 	ldr.w	r2, [r3, r2, lsl #2]
 800059a:	7afb      	ldrb	r3, [r7, #11]
 800059c:	f003 0303 	and.w	r3, r3, #3
 80005a0:	00db      	lsls	r3, r3, #3
 80005a2:	21f8      	movs	r1, #248	; 0xf8
 80005a4:	fa01 f303 	lsl.w	r3, r1, r3
 80005a8:	43db      	mvns	r3, r3
 80005aa:	7af9      	ldrb	r1, [r7, #11]
 80005ac:	0889      	lsrs	r1, r1, #2
 80005ae:	b2c9      	uxtb	r1, r1
 80005b0:	4608      	mov	r0, r1
 80005b2:	ea02 0103 	and.w	r1, r2, r3
 80005b6:	68fb      	ldr	r3, [r7, #12]
 80005b8:	1d02      	adds	r2, r0, #4
 80005ba:	f843 1022 	str.w	r1, [r3, r2, lsl #2]

  /* HW port control is disabled */
  port->HWSEL &= ~(uint32_t)((uint32_t)PORT_HWSEL_Msk << ((uint32_t)pin << 1U));
 80005be:	68fb      	ldr	r3, [r7, #12]
 80005c0:	6f5a      	ldr	r2, [r3, #116]	; 0x74
 80005c2:	7afb      	ldrb	r3, [r7, #11]
 80005c4:	005b      	lsls	r3, r3, #1
 80005c6:	2103      	movs	r1, #3
 80005c8:	fa01 f303 	lsl.w	r3, r1, r3
 80005cc:	43db      	mvns	r3, r3
 80005ce:	401a      	ands	r2, r3
 80005d0:	68fb      	ldr	r3, [r7, #12]
 80005d2:	675a      	str	r2, [r3, #116]	; 0x74


  /* Enable digital input */
  if (XMC_GPIO_CHECK_ANALOG_PORT(port))
 80005d4:	68fb      	ldr	r3, [r7, #12]
 80005d6:	4a38      	ldr	r2, [pc, #224]	; (80006b8 <XMC_GPIO_Init+0x13c>)
 80005d8:	4293      	cmp	r3, r2
 80005da:	d003      	beq.n	80005e4 <XMC_GPIO_Init+0x68>
 80005dc:	68fb      	ldr	r3, [r7, #12]
 80005de:	4a37      	ldr	r2, [pc, #220]	; (80006bc <XMC_GPIO_Init+0x140>)
 80005e0:	4293      	cmp	r3, r2
 80005e2:	d10a      	bne.n	80005fa <XMC_GPIO_Init+0x7e>
  {
    port->PDISC &= ~(uint32_t)((uint32_t)0x1U << pin);
 80005e4:	68fb      	ldr	r3, [r7, #12]
 80005e6:	6e1a      	ldr	r2, [r3, #96]	; 0x60
 80005e8:	7afb      	ldrb	r3, [r7, #11]
 80005ea:	2101      	movs	r1, #1
 80005ec:	fa01 f303 	lsl.w	r3, r1, r3
 80005f0:	43db      	mvns	r3, r3
 80005f2:	401a      	ands	r2, r3
 80005f4:	68fb      	ldr	r3, [r7, #12]
 80005f6:	661a      	str	r2, [r3, #96]	; 0x60
 80005f8:	e03c      	b.n	8000674 <XMC_GPIO_Init+0xf8>
  }
  else
  {
    /* Set output level */
    port->OMR = (uint32_t)config->output_level << pin;
 80005fa:	687b      	ldr	r3, [r7, #4]
 80005fc:	685a      	ldr	r2, [r3, #4]
 80005fe:	7afb      	ldrb	r3, [r7, #11]
 8000600:	409a      	lsls	r2, r3
 8000602:	68fb      	ldr	r3, [r7, #12]
 8000604:	605a      	str	r2, [r3, #4]

    /* Set output driver strength */
    port->PDR[pin >> 3U] &= (uint32_t)~(PORT_PDR_Msk << ((uint32_t)PORT_PDR_Size * ((uint32_t)pin & 0x7U)));
 8000606:	7afb      	ldrb	r3, [r7, #11]
 8000608:	08db      	lsrs	r3, r3, #3
 800060a:	b2db      	uxtb	r3, r3
 800060c:	461a      	mov	r2, r3
 800060e:	68fb      	ldr	r3, [r7, #12]
 8000610:	3210      	adds	r2, #16
 8000612:	f853 2022 	ldr.w	r2, [r3, r2, lsl #2]
 8000616:	7afb      	ldrb	r3, [r7, #11]
 8000618:	f003 0307 	and.w	r3, r3, #7
 800061c:	009b      	lsls	r3, r3, #2
 800061e:	2107      	movs	r1, #7
 8000620:	fa01 f303 	lsl.w	r3, r1, r3
 8000624:	43db      	mvns	r3, r3
 8000626:	7af9      	ldrb	r1, [r7, #11]
 8000628:	08c9      	lsrs	r1, r1, #3
 800062a:	b2c9      	uxtb	r1, r1
 800062c:	4608      	mov	r0, r1
 800062e:	ea02 0103 	and.w	r1, r2, r3
 8000632:	68fb      	ldr	r3, [r7, #12]
 8000634:	f100 0210 	add.w	r2, r0, #16
 8000638:	f843 1022 	str.w	r1, [r3, r2, lsl #2]
    port->PDR[pin >> 3U] |= (uint32_t)config->output_strength << ((uint32_t)PORT_PDR_Size * ((uint32_t)pin & 0x7U));
 800063c:	7afb      	ldrb	r3, [r7, #11]
 800063e:	08db      	lsrs	r3, r3, #3
 8000640:	b2db      	uxtb	r3, r3
 8000642:	461a      	mov	r2, r3
 8000644:	68fb      	ldr	r3, [r7, #12]
 8000646:	3210      	adds	r2, #16
 8000648:	f853 2022 	ldr.w	r2, [r3, r2, lsl #2]
 800064c:	687b      	ldr	r3, [r7, #4]
 800064e:	7a1b      	ldrb	r3, [r3, #8]
 8000650:	4619      	mov	r1, r3
 8000652:	7afb      	ldrb	r3, [r7, #11]
 8000654:	f003 0307 	and.w	r3, r3, #7
 8000658:	009b      	lsls	r3, r3, #2
 800065a:	fa01 f303 	lsl.w	r3, r1, r3
 800065e:	7af9      	ldrb	r1, [r7, #11]
 8000660:	08c9      	lsrs	r1, r1, #3
 8000662:	b2c9      	uxtb	r1, r1
 8000664:	4608      	mov	r0, r1
 8000666:	ea42 0103 	orr.w	r1, r2, r3
 800066a:	68fb      	ldr	r3, [r7, #12]
 800066c:	f100 0210 	add.w	r2, r0, #16
 8000670:	f843 1022 	str.w	r1, [r3, r2, lsl #2]
  }

  /* Set mode */
  port->IOCR[pin >> 2U] |= (uint32_t)config->mode << ((uint32_t)PORT_IOCR_PC_Size * ((uint32_t)pin & 0x3U));
 8000674:	7afb      	ldrb	r3, [r7, #11]
 8000676:	089b      	lsrs	r3, r3, #2
 8000678:	b2db      	uxtb	r3, r3
 800067a:	461a      	mov	r2, r3
 800067c:	68fb      	ldr	r3, [r7, #12]
 800067e:	3204      	adds	r2, #4
 8000680:	f853 2022 	ldr.w	r2, [r3, r2, lsl #2]
 8000684:	687b      	ldr	r3, [r7, #4]
 8000686:	781b      	ldrb	r3, [r3, #0]
 8000688:	4619      	mov	r1, r3
 800068a:	7afb      	ldrb	r3, [r7, #11]
 800068c:	f003 0303 	and.w	r3, r3, #3
 8000690:	00db      	lsls	r3, r3, #3
 8000692:	fa01 f303 	lsl.w	r3, r1, r3
 8000696:	7af9      	ldrb	r1, [r7, #11]
 8000698:	0889      	lsrs	r1, r1, #2
 800069a:	b2c9      	uxtb	r1, r1
 800069c:	4608      	mov	r0, r1
 800069e:	ea42 0103 	orr.w	r1, r2, r3
 80006a2:	68fb      	ldr	r3, [r7, #12]
 80006a4:	1d02      	adds	r2, r0, #4
 80006a6:	f843 1022 	str.w	r1, [r3, r2, lsl #2]
}
 80006aa:	bf00      	nop
 80006ac:	3714      	adds	r7, #20
 80006ae:	46bd      	mov	sp, r7
 80006b0:	f85d 7b04 	ldr.w	r7, [sp], #4
 80006b4:	4770      	bx	lr
 80006b6:	bf00      	nop
 80006b8:	48028e00 	.word	0x48028e00
 80006bc:	48028f00 	.word	0x48028f00

080006c0 <XMC_GPIO_SetOutputStrength>:

void XMC_GPIO_SetOutputStrength(XMC_GPIO_PORT_t *const port, const uint8_t pin, XMC_GPIO_OUTPUT_STRENGTH_t strength)
{
 80006c0:	b480      	push	{r7}
 80006c2:	b083      	sub	sp, #12
 80006c4:	af00      	add	r7, sp, #0
 80006c6:	6078      	str	r0, [r7, #4]
 80006c8:	460b      	mov	r3, r1
 80006ca:	70fb      	strb	r3, [r7, #3]
 80006cc:	4613      	mov	r3, r2
 80006ce:	70bb      	strb	r3, [r7, #2]
  XMC_ASSERT("XMC_GPIO_Init: Invalid port", XMC_GPIO_CHECK_OUTPUT_PORT(port));
  XMC_ASSERT("XMC_GPIO_Init: Invalid output strength", XMC_GPIO_CHECK_OUTPUT_STRENGTH(strength));

  port->PDR[pin >> 3U] &= (uint32_t)~((uint32_t)PORT_PDR_Msk << ((uint32_t)PORT_PDR_Size * ((uint32_t)pin & 0x7U)));
 80006d0:	78fb      	ldrb	r3, [r7, #3]
 80006d2:	08db      	lsrs	r3, r3, #3
 80006d4:	b2db      	uxtb	r3, r3
 80006d6:	461a      	mov	r2, r3
 80006d8:	687b      	ldr	r3, [r7, #4]
 80006da:	3210      	adds	r2, #16
 80006dc:	f853 2022 	ldr.w	r2, [r3, r2, lsl #2]
 80006e0:	78fb      	ldrb	r3, [r7, #3]
 80006e2:	f003 0307 	and.w	r3, r3, #7
 80006e6:	009b      	lsls	r3, r3, #2
 80006e8:	2107      	movs	r1, #7
 80006ea:	fa01 f303 	lsl.w	r3, r1, r3
 80006ee:	43db      	mvns	r3, r3
 80006f0:	78f9      	ldrb	r1, [r7, #3]
 80006f2:	08c9      	lsrs	r1, r1, #3
 80006f4:	b2c9      	uxtb	r1, r1
 80006f6:	4608      	mov	r0, r1
 80006f8:	ea02 0103 	and.w	r1, r2, r3
 80006fc:	687b      	ldr	r3, [r7, #4]
 80006fe:	f100 0210 	add.w	r2, r0, #16
 8000702:	f843 1022 	str.w	r1, [r3, r2, lsl #2]
  port->PDR[pin >> 3U] |= (uint32_t)strength << ((uint32_t)PORT_PDR_Size * ((uint32_t)pin & 0x7U));
 8000706:	78fb      	ldrb	r3, [r7, #3]
 8000708:	08db      	lsrs	r3, r3, #3
 800070a:	b2db      	uxtb	r3, r3
 800070c:	461a      	mov	r2, r3
 800070e:	687b      	ldr	r3, [r7, #4]
 8000710:	3210      	adds	r2, #16
 8000712:	f853 2022 	ldr.w	r2, [r3, r2, lsl #2]
 8000716:	78b9      	ldrb	r1, [r7, #2]
 8000718:	78fb      	ldrb	r3, [r7, #3]
 800071a:	f003 0307 	and.w	r3, r3, #7
 800071e:	009b      	lsls	r3, r3, #2
 8000720:	fa01 f303 	lsl.w	r3, r1, r3
 8000724:	78f9      	ldrb	r1, [r7, #3]
 8000726:	08c9      	lsrs	r1, r1, #3
 8000728:	b2c9      	uxtb	r1, r1
 800072a:	4608      	mov	r0, r1
 800072c:	ea42 0103 	orr.w	r1, r2, r3
 8000730:	687b      	ldr	r3, [r7, #4]
 8000732:	f100 0210 	add.w	r2, r0, #16
 8000736:	f843 1022 	str.w	r1, [r3, r2, lsl #2]
}
 800073a:	bf00      	nop
 800073c:	370c      	adds	r7, #12
 800073e:	46bd      	mov	sp, r7
 8000740:	f85d 7b04 	ldr.w	r7, [sp], #4
 8000744:	4770      	bx	lr

08000746 <XMC_GPIO_GetInput>:
 * Prior to this api, user has to configure port pin to input mode using XMC_GPIO_SetMode().
 *
 */

__STATIC_INLINE uint32_t XMC_GPIO_GetInput(XMC_GPIO_PORT_t *const port, const uint8_t pin)
{
 8000746:	b480      	push	{r7}
 8000748:	b083      	sub	sp, #12
 800074a:	af00      	add	r7, sp, #0
 800074c:	6078      	str	r0, [r7, #4]
 800074e:	460b      	mov	r3, r1
 8000750:	70fb      	strb	r3, [r7, #3]
  XMC_ASSERT("XMC_GPIO_GetInput: Invalid port", XMC_GPIO_CHECK_PORT(port));

  return (((port->IN) >> pin) & 0x1U);
 8000752:	687b      	ldr	r3, [r7, #4]
 8000754:	6a5a      	ldr	r2, [r3, #36]	; 0x24
 8000756:	78fb      	ldrb	r3, [r7, #3]
 8000758:	fa22 f303 	lsr.w	r3, r2, r3
 800075c:	f003 0301 	and.w	r3, r3, #1
}
 8000760:	4618      	mov	r0, r3
 8000762:	370c      	adds	r7, #12
 8000764:	46bd      	mov	sp, r7
 8000766:	f85d 7b04 	ldr.w	r7, [sp], #4
 800076a:	4770      	bx	lr

0800076c <set_button1_state>:
*********************************************************************************************************************************************************************************************/

/**
*	Setter for capturing Button1 state to a variable.
*/
void set_button1_state (bool state) {
 800076c:	b480      	push	{r7}
 800076e:	b083      	sub	sp, #12
 8000770:	af00      	add	r7, sp, #0
 8000772:	4603      	mov	r3, r0
 8000774:	71fb      	strb	r3, [r7, #7]
	button1_state = state;
 8000776:	4a04      	ldr	r2, [pc, #16]	; (8000788 <set_button1_state+0x1c>)
 8000778:	79fb      	ldrb	r3, [r7, #7]
 800077a:	7013      	strb	r3, [r2, #0]
}
 800077c:	bf00      	nop
 800077e:	370c      	adds	r7, #12
 8000780:	46bd      	mov	sp, r7
 8000782:	f85d 7b04 	ldr.w	r7, [sp], #4
 8000786:	4770      	bx	lr
 8000788:	200009c4 	.word	0x200009c4

0800078c <set_button2_state>:

/**
*	Setter for capturing Button2 state to a variable.
*/
void set_button2_state (bool state) {
 800078c:	b480      	push	{r7}
 800078e:	b083      	sub	sp, #12
 8000790:	af00      	add	r7, sp, #0
 8000792:	4603      	mov	r3, r0
 8000794:	71fb      	strb	r3, [r7, #7]
	button2_state = state;
 8000796:	4a04      	ldr	r2, [pc, #16]	; (80007a8 <set_button2_state+0x1c>)
 8000798:	79fb      	ldrb	r3, [r7, #7]
 800079a:	7013      	strb	r3, [r2, #0]
}
 800079c:	bf00      	nop
 800079e:	370c      	adds	r7, #12
 80007a0:	46bd      	mov	sp, r7
 80007a2:	f85d 7b04 	ldr.w	r7, [sp], #4
 80007a6:	4770      	bx	lr
 80007a8:	200009c5 	.word	0x200009c5

080007ac <get_button1_state>:

/**
*	Getter for reading Button1 State.
*/
bool get_button1_state (void) {
 80007ac:	b580      	push	{r7, lr}
 80007ae:	af00      	add	r7, sp, #0
	read_button1_state();
 80007b0:	f000 f810 	bl	80007d4 <read_button1_state>
	return button1_state;
 80007b4:	4b01      	ldr	r3, [pc, #4]	; (80007bc <get_button1_state+0x10>)
 80007b6:	781b      	ldrb	r3, [r3, #0]
}
 80007b8:	4618      	mov	r0, r3
 80007ba:	bd80      	pop	{r7, pc}
 80007bc:	200009c4 	.word	0x200009c4

080007c0 <get_button2_state>:

/**
*	Getter for reading Button2 State.
*/
bool get_button2_state (void) {
 80007c0:	b580      	push	{r7, lr}
 80007c2:	af00      	add	r7, sp, #0
	read_button2_state();
 80007c4:	f000 f81a 	bl	80007fc <read_button2_state>
	return button2_state;
 80007c8:	4b01      	ldr	r3, [pc, #4]	; (80007d0 <get_button2_state+0x10>)
 80007ca:	781b      	ldrb	r3, [r3, #0]
}
 80007cc:	4618      	mov	r0, r3
 80007ce:	bd80      	pop	{r7, pc}
 80007d0:	200009c5 	.word	0x200009c5

080007d4 <read_button1_state>:

/**
* This function reads Button1 state from the board and uses a setter function to capture it's value to a variable.
*/
void read_button1_state (void) {
 80007d4:	b580      	push	{r7, lr}
 80007d6:	af00      	add	r7, sp, #0
	if ( XMC_GPIO_GetInput ( XMC_GPIO_PORT1, 14 ) ) {
 80007d8:	210e      	movs	r1, #14
 80007da:	4807      	ldr	r0, [pc, #28]	; (80007f8 <read_button1_state+0x24>)
 80007dc:	f7ff ffb3 	bl	8000746 <XMC_GPIO_GetInput>
 80007e0:	4603      	mov	r3, r0
 80007e2:	2b00      	cmp	r3, #0
 80007e4:	d003      	beq.n	80007ee <read_button1_state+0x1a>
		set_button1_state(true);
 80007e6:	2001      	movs	r0, #1
 80007e8:	f7ff ffc0 	bl	800076c <set_button1_state>
	} else {
		set_button1_state(false);
	}
}
 80007ec:	e002      	b.n	80007f4 <read_button1_state+0x20>
		set_button1_state(false);
 80007ee:	2000      	movs	r0, #0
 80007f0:	f7ff ffbc 	bl	800076c <set_button1_state>
}
 80007f4:	bf00      	nop
 80007f6:	bd80      	pop	{r7, pc}
 80007f8:	48028100 	.word	0x48028100

080007fc <read_button2_state>:

/**
* This function reads Button2 state from the board and uses a setter function to capture it's value to a variable.
*/
void read_button2_state (void) {
 80007fc:	b580      	push	{r7, lr}
 80007fe:	af00      	add	r7, sp, #0
	if ( XMC_GPIO_GetInput ( XMC_GPIO_PORT1, 15 ) ) {
 8000800:	210f      	movs	r1, #15
 8000802:	4807      	ldr	r0, [pc, #28]	; (8000820 <read_button2_state+0x24>)
 8000804:	f7ff ff9f 	bl	8000746 <XMC_GPIO_GetInput>
 8000808:	4603      	mov	r3, r0
 800080a:	2b00      	cmp	r3, #0
 800080c:	d003      	beq.n	8000816 <read_button2_state+0x1a>
		set_button2_state(true);
 800080e:	2001      	movs	r0, #1
 8000810:	f7ff ffbc 	bl	800078c <set_button2_state>
	} else {
		set_button2_state(false);
	}
}
 8000814:	e002      	b.n	800081c <read_button2_state+0x20>
		set_button2_state(false);
 8000816:	2000      	movs	r0, #0
 8000818:	f7ff ffb8 	bl	800078c <set_button2_state>
}
 800081c:	bf00      	nop
 800081e:	bd80      	pop	{r7, pc}
 8000820:	48028100 	.word	0x48028100

08000824 <init_button_for_input_read>:

/**
*	This function sets up buttons for input read.
*/
void init_button_for_input_read (void) {
 8000824:	b580      	push	{r7, lr}
 8000826:	b084      	sub	sp, #16
 8000828:	af00      	add	r7, sp, #0
	const XMC_GPIO_CONFIG_t buttonConfig = \
 800082a:	1d3b      	adds	r3, r7, #4
 800082c:	2200      	movs	r2, #0
 800082e:	601a      	str	r2, [r3, #0]
 8000830:	605a      	str	r2, [r3, #4]
 8000832:	609a      	str	r2, [r3, #8]
 8000834:	2320      	movs	r3, #32
 8000836:	713b      	strb	r3, [r7, #4]
			{.mode=XMC_GPIO_MODE_INPUT_INVERTED_TRISTATE};	 
	XMC_GPIO_Init(XMC_GPIO_PORT1, 14, &buttonConfig);	
 8000838:	1d3b      	adds	r3, r7, #4
 800083a:	461a      	mov	r2, r3
 800083c:	210e      	movs	r1, #14
 800083e:	4806      	ldr	r0, [pc, #24]	; (8000858 <init_button_for_input_read+0x34>)
 8000840:	f7ff fe9c 	bl	800057c <XMC_GPIO_Init>
	XMC_GPIO_Init(XMC_GPIO_PORT1, 15, &buttonConfig);
 8000844:	1d3b      	adds	r3, r7, #4
 8000846:	461a      	mov	r2, r3
 8000848:	210f      	movs	r1, #15
 800084a:	4803      	ldr	r0, [pc, #12]	; (8000858 <init_button_for_input_read+0x34>)
 800084c:	f7ff fe96 	bl	800057c <XMC_GPIO_Init>
 8000850:	bf00      	nop
 8000852:	3710      	adds	r7, #16
 8000854:	46bd      	mov	sp, r7
 8000856:	bd80      	pop	{r7, pc}
 8000858:	48028100 	.word	0x48028100

0800085c <XMC_GPIO_SetOutputHigh>:
{
 800085c:	b480      	push	{r7}
 800085e:	b083      	sub	sp, #12
 8000860:	af00      	add	r7, sp, #0
 8000862:	6078      	str	r0, [r7, #4]
 8000864:	460b      	mov	r3, r1
 8000866:	70fb      	strb	r3, [r7, #3]
  port->OMR = (uint32_t)0x1U << pin;
 8000868:	78fb      	ldrb	r3, [r7, #3]
 800086a:	2201      	movs	r2, #1
 800086c:	409a      	lsls	r2, r3
 800086e:	687b      	ldr	r3, [r7, #4]
 8000870:	605a      	str	r2, [r3, #4]
}
 8000872:	bf00      	nop
 8000874:	370c      	adds	r7, #12
 8000876:	46bd      	mov	sp, r7
 8000878:	f85d 7b04 	ldr.w	r7, [sp], #4
 800087c:	4770      	bx	lr

0800087e <XMC_GPIO_SetOutputLow>:
{
 800087e:	b480      	push	{r7}
 8000880:	b083      	sub	sp, #12
 8000882:	af00      	add	r7, sp, #0
 8000884:	6078      	str	r0, [r7, #4]
 8000886:	460b      	mov	r3, r1
 8000888:	70fb      	strb	r3, [r7, #3]
  port->OMR = 0x10000U << pin;
 800088a:	78fb      	ldrb	r3, [r7, #3]
 800088c:	f44f 3280 	mov.w	r2, #65536	; 0x10000
 8000890:	409a      	lsls	r2, r3
 8000892:	687b      	ldr	r3, [r7, #4]
 8000894:	605a      	str	r2, [r3, #4]
}
 8000896:	bf00      	nop
 8000898:	370c      	adds	r7, #12
 800089a:	46bd      	mov	sp, r7
 800089c:	f85d 7b04 	ldr.w	r7, [sp], #4
 80008a0:	4770      	bx	lr
	...

080008a4 <init_GPIO>:
*********************************************************************************************************************************************************************************************/

/**
* This function initiates GPIO using config as defined in it.
*/ 
void init_GPIO(void) {
 80008a4:	b580      	push	{r7, lr}
 80008a6:	b084      	sub	sp, #16
 80008a8:	af00      	add	r7, sp, #0
	const XMC_GPIO_CONFIG_t LED_config = \
 80008aa:	4a0a      	ldr	r2, [pc, #40]	; (80008d4 <init_GPIO+0x30>)
 80008ac:	1d3b      	adds	r3, r7, #4
 80008ae:	ca07      	ldmia	r2, {r0, r1, r2}
 80008b0:	e883 0007 	stmia.w	r3, {r0, r1, r2}
			{.mode=XMC_GPIO_MODE_OUTPUT_PUSH_PULL,\
			 .output_level=XMC_GPIO_OUTPUT_LEVEL_LOW,\
			 .output_strength=XMC_GPIO_OUTPUT_STRENGTH_STRONG_SHARP_EDGE};	 
	XMC_GPIO_Init(XMC_GPIO_PORT1, 1, &LED_config);	
 80008b4:	1d3b      	adds	r3, r7, #4
 80008b6:	461a      	mov	r2, r3
 80008b8:	2101      	movs	r1, #1
 80008ba:	4807      	ldr	r0, [pc, #28]	; (80008d8 <init_GPIO+0x34>)
 80008bc:	f7ff fe5e 	bl	800057c <XMC_GPIO_Init>
	XMC_GPIO_Init(XMC_GPIO_PORT1, 0, &LED_config);	
 80008c0:	1d3b      	adds	r3, r7, #4
 80008c2:	461a      	mov	r2, r3
 80008c4:	2100      	movs	r1, #0
 80008c6:	4804      	ldr	r0, [pc, #16]	; (80008d8 <init_GPIO+0x34>)
 80008c8:	f7ff fe58 	bl	800057c <XMC_GPIO_Init>
}
 80008cc:	bf00      	nop
 80008ce:	3710      	adds	r7, #16
 80008d0:	46bd      	mov	sp, r7
 80008d2:	bd80      	pop	{r7, pc}
 80008d4:	08007ba8 	.word	0x08007ba8
 80008d8:	48028100 	.word	0x48028100

080008dc <dot>:

/**
* This function describes a "DOT" in Morse code. Each Dot is represented by a HIGH state of LED for {@param: dot_uration} which is 100 milli-second in this case.
*/
void dot(void) {
 80008dc:	b580      	push	{r7, lr}
 80008de:	af00      	add	r7, sp, #0
	XMC_GPIO_SetOutputHigh(XMC_GPIO_PORT1, 1);
 80008e0:	2101      	movs	r1, #1
 80008e2:	4808      	ldr	r0, [pc, #32]	; (8000904 <dot+0x28>)
 80008e4:	f7ff ffba 	bl	800085c <XMC_GPIO_SetOutputHigh>
	delay(dot_duration);
 80008e8:	2364      	movs	r3, #100	; 0x64
 80008ea:	4618      	mov	r0, r3
 80008ec:	f000 faec 	bl	8000ec8 <delay>
	XMC_GPIO_SetOutputLow(XMC_GPIO_PORT1, 1);
 80008f0:	2101      	movs	r1, #1
 80008f2:	4804      	ldr	r0, [pc, #16]	; (8000904 <dot+0x28>)
 80008f4:	f7ff ffc3 	bl	800087e <XMC_GPIO_SetOutputLow>
	delay(dot_duration); // Added to keep distance from next "DOT/DASH" equivalent to 1 dotDuration. (Refer Section 2 ITU-R M.1677-1)
 80008f8:	2364      	movs	r3, #100	; 0x64
 80008fa:	4618      	mov	r0, r3
 80008fc:	f000 fae4 	bl	8000ec8 <delay>
}
 8000900:	bf00      	nop
 8000902:	bd80      	pop	{r7, pc}
 8000904:	48028100 	.word	0x48028100

08000908 <dash>:

/**
* This function describes a "DOT" in Morse code. Each Dot is represented by a HIGH state of LED for {@param: dotDuration} which is 100 milli-second in this case.
*/
void dash(void) {
 8000908:	b580      	push	{r7, lr}
 800090a:	af00      	add	r7, sp, #0
	XMC_GPIO_SetOutputHigh(XMC_GPIO_PORT1, 1);
 800090c:	2101      	movs	r1, #1
 800090e:	4809      	ldr	r0, [pc, #36]	; (8000934 <dash+0x2c>)
 8000910:	f7ff ffa4 	bl	800085c <XMC_GPIO_SetOutputHigh>
	delay(dash_duration);
 8000914:	f44f 7396 	mov.w	r3, #300	; 0x12c
 8000918:	4618      	mov	r0, r3
 800091a:	f000 fad5 	bl	8000ec8 <delay>
	XMC_GPIO_SetOutputLow(XMC_GPIO_PORT1, 1);
 800091e:	2101      	movs	r1, #1
 8000920:	4804      	ldr	r0, [pc, #16]	; (8000934 <dash+0x2c>)
 8000922:	f7ff ffac 	bl	800087e <XMC_GPIO_SetOutputLow>
	delay(dot_duration); // Added to keep distance from next "DOT/DASH" equivalent to 1 dotDuration. (Refer Section 2 ITU-R M.1677-1)
 8000926:	2364      	movs	r3, #100	; 0x64
 8000928:	4618      	mov	r0, r3
 800092a:	f000 facd 	bl	8000ec8 <delay>
}
 800092e:	bf00      	nop
 8000930:	bd80      	pop	{r7, pc}
 8000932:	bf00      	nop
 8000934:	48028100 	.word	0x48028100

08000938 <transmit_message>:

/**
* This method transmits the message I CAN MORSE when button1 is pressed and held. Transmission is terminated if button is released.
*/
void transmit_message() {
 8000938:	b580      	push	{r7, lr}
 800093a:	b088      	sub	sp, #32
 800093c:	af00      	add	r7, sp, #0
	if(get_button1_state()) {
 800093e:	f7ff ff35 	bl	80007ac <get_button1_state>
 8000942:	4603      	mov	r3, r0
 8000944:	2b00      	cmp	r3, #0
 8000946:	d04e      	beq.n	80009e6 <transmit_message+0xae>
		 char message[] = "I CAN MORSE";
 8000948:	4a29      	ldr	r2, [pc, #164]	; (80009f0 <transmit_message+0xb8>)
 800094a:	1d3b      	adds	r3, r7, #4
 800094c:	ca07      	ldmia	r2, {r0, r1, r2}
 800094e:	e883 0007 	stmia.w	r3, {r0, r1, r2}
		char* token_iterator = strtok(message, " ");
 8000952:	1d3b      	adds	r3, r7, #4
 8000954:	4927      	ldr	r1, [pc, #156]	; (80009f4 <transmit_message+0xbc>)
 8000956:	4618      	mov	r0, r3
 8000958:	f002 f940 	bl	8002bdc <strtok>
 800095c:	61f8      	str	r0, [r7, #28]
		while (token_iterator != NULL) {
 800095e:	e03f      	b.n	80009e0 <transmit_message+0xa8>
			int length_of_word = strlen(token_iterator);
 8000960:	69f8      	ldr	r0, [r7, #28]
 8000962:	f002 f8cd 	bl	8002b00 <strlen>
 8000966:	4603      	mov	r3, r0
 8000968:	613b      	str	r3, [r7, #16]
			char word_of_message[] = "";
 800096a:	2300      	movs	r3, #0
 800096c:	703b      	strb	r3, [r7, #0]
			strcat(word_of_message, token_iterator);
 800096e:	463b      	mov	r3, r7
 8000970:	69f9      	ldr	r1, [r7, #28]
 8000972:	4618      	mov	r0, r3
 8000974:	f002 f838 	bl	80029e8 <strcat>
			char* letter_iterator = word_of_message;
 8000978:	463b      	mov	r3, r7
 800097a:	61bb      	str	r3, [r7, #24]
			int count = 0;
 800097c:	2300      	movs	r3, #0
 800097e:	617b      	str	r3, [r7, #20]
			while(letter_iterator != NULL && *letter_iterator != '\0') { 
 8000980:	e01a      	b.n	80009b8 <transmit_message+0x80>
				get_morse_for_character(*letter_iterator);
 8000982:	69bb      	ldr	r3, [r7, #24]
 8000984:	781b      	ldrb	r3, [r3, #0]
 8000986:	4618      	mov	r0, r3
 8000988:	f000 f85e 	bl	8000a48 <get_morse_for_character>
				if(length_of_word > 1 && count < (length_of_word -1) ) {
 800098c:	693b      	ldr	r3, [r7, #16]
 800098e:	2b01      	cmp	r3, #1
 8000990:	dd0f      	ble.n	80009b2 <transmit_message+0x7a>
 8000992:	693b      	ldr	r3, [r7, #16]
 8000994:	3b01      	subs	r3, #1
 8000996:	697a      	ldr	r2, [r7, #20]
 8000998:	429a      	cmp	r2, r3
 800099a:	da0a      	bge.n	80009b2 <transmit_message+0x7a>
					count++;
 800099c:	697b      	ldr	r3, [r7, #20]
 800099e:	3301      	adds	r3, #1
 80009a0:	617b      	str	r3, [r7, #20]
					delay(letter_spacing - dot_duration);
 80009a2:	f44f 7396 	mov.w	r3, #300	; 0x12c
 80009a6:	461a      	mov	r2, r3
 80009a8:	2364      	movs	r3, #100	; 0x64
 80009aa:	1ad3      	subs	r3, r2, r3
 80009ac:	4618      	mov	r0, r3
 80009ae:	f000 fa8b 	bl	8000ec8 <delay>
				}
				letter_iterator++;				
 80009b2:	69bb      	ldr	r3, [r7, #24]
 80009b4:	3301      	adds	r3, #1
 80009b6:	61bb      	str	r3, [r7, #24]
			while(letter_iterator != NULL && *letter_iterator != '\0') { 
 80009b8:	69bb      	ldr	r3, [r7, #24]
 80009ba:	2b00      	cmp	r3, #0
 80009bc:	d003      	beq.n	80009c6 <transmit_message+0x8e>
 80009be:	69bb      	ldr	r3, [r7, #24]
 80009c0:	781b      	ldrb	r3, [r3, #0]
 80009c2:	2b00      	cmp	r3, #0
 80009c4:	d1dd      	bne.n	8000982 <transmit_message+0x4a>
			}
			delay(word_spacing - dot_duration);
 80009c6:	f44f 732f 	mov.w	r3, #700	; 0x2bc
 80009ca:	461a      	mov	r2, r3
 80009cc:	2364      	movs	r3, #100	; 0x64
 80009ce:	1ad3      	subs	r3, r2, r3
 80009d0:	4618      	mov	r0, r3
 80009d2:	f000 fa79 	bl	8000ec8 <delay>
			token_iterator = strtok(NULL, " ");
 80009d6:	4907      	ldr	r1, [pc, #28]	; (80009f4 <transmit_message+0xbc>)
 80009d8:	2000      	movs	r0, #0
 80009da:	f002 f8ff 	bl	8002bdc <strtok>
 80009de:	61f8      	str	r0, [r7, #28]
		while (token_iterator != NULL) {
 80009e0:	69fb      	ldr	r3, [r7, #28]
 80009e2:	2b00      	cmp	r3, #0
 80009e4:	d1bc      	bne.n	8000960 <transmit_message+0x28>
		} 
	}
}
 80009e6:	bf00      	nop
 80009e8:	3720      	adds	r7, #32
 80009ea:	46bd      	mov	sp, r7
 80009ec:	bd80      	pop	{r7, pc}
 80009ee:	bf00      	nop
 80009f0:	08007bb8 	.word	0x08007bb8
 80009f4:	08007bb4 	.word	0x08007bb4

080009f8 <transmit_time>:

/**
* This method transmits the time between 2 Button1 press downs. 
* CAUTION: Can't be used for character strings with spaces. (Assumes string to be a continuous alpha-numeric one (Time in milli-second in this case i.e. only numbers) )
*/
void transmit_time(char* time_message) {
 80009f8:	b580      	push	{r7, lr}
 80009fa:	b084      	sub	sp, #16
 80009fc:	af00      	add	r7, sp, #0
 80009fe:	6078      	str	r0, [r7, #4]
	if (get_button2_state()) {
 8000a00:	f7ff fede 	bl	80007c0 <get_button2_state>
 8000a04:	4603      	mov	r3, r0
 8000a06:	2b00      	cmp	r3, #0
 8000a08:	d019      	beq.n	8000a3e <transmit_time+0x46>
		char* letter_iterator = time_message;
 8000a0a:	687b      	ldr	r3, [r7, #4]
 8000a0c:	60fb      	str	r3, [r7, #12]
		while(letter_iterator != NULL && *letter_iterator != '\0') { 
 8000a0e:	e00f      	b.n	8000a30 <transmit_time+0x38>
			get_morse_for_character(*letter_iterator);
 8000a10:	68fb      	ldr	r3, [r7, #12]
 8000a12:	781b      	ldrb	r3, [r3, #0]
 8000a14:	4618      	mov	r0, r3
 8000a16:	f000 f817 	bl	8000a48 <get_morse_for_character>
			delay(letter_spacing - dot_duration);
 8000a1a:	f44f 7396 	mov.w	r3, #300	; 0x12c
 8000a1e:	461a      	mov	r2, r3
 8000a20:	2364      	movs	r3, #100	; 0x64
 8000a22:	1ad3      	subs	r3, r2, r3
 8000a24:	4618      	mov	r0, r3
 8000a26:	f000 fa4f 	bl	8000ec8 <delay>
			letter_iterator++;
 8000a2a:	68fb      	ldr	r3, [r7, #12]
 8000a2c:	3301      	adds	r3, #1
 8000a2e:	60fb      	str	r3, [r7, #12]
		while(letter_iterator != NULL && *letter_iterator != '\0') { 
 8000a30:	68fb      	ldr	r3, [r7, #12]
 8000a32:	2b00      	cmp	r3, #0
 8000a34:	d003      	beq.n	8000a3e <transmit_time+0x46>
 8000a36:	68fb      	ldr	r3, [r7, #12]
 8000a38:	781b      	ldrb	r3, [r3, #0]
 8000a3a:	2b00      	cmp	r3, #0
 8000a3c:	d1e8      	bne.n	8000a10 <transmit_time+0x18>
		}
	} 
}
 8000a3e:	bf00      	nop
 8000a40:	3710      	adds	r7, #16
 8000a42:	46bd      	mov	sp, r7
 8000a44:	bd80      	pop	{r7, pc}
	...

08000a48 <get_morse_for_character>:

/**
* This function serves as a morse code mapping to their alpha-numeric equivalents.
*/
void get_morse_for_character(char character) {
 8000a48:	b580      	push	{r7, lr}
 8000a4a:	b082      	sub	sp, #8
 8000a4c:	af00      	add	r7, sp, #0
 8000a4e:	4603      	mov	r3, r0
 8000a50:	71fb      	strb	r3, [r7, #7]
	switch (character) {
 8000a52:	79fb      	ldrb	r3, [r7, #7]
 8000a54:	3b30      	subs	r3, #48	; 0x30
 8000a56:	2b4a      	cmp	r3, #74	; 0x4a
 8000a58:	f200 81c6 	bhi.w	8000de8 <get_morse_for_character+0x3a0>
 8000a5c:	a201      	add	r2, pc, #4	; (adr r2, 8000a64 <get_morse_for_character+0x1c>)
 8000a5e:	f852 f023 	ldr.w	pc, [r2, r3, lsl #2]
 8000a62:	bf00      	nop
 8000a64:	08000d0d 	.word	0x08000d0d
 8000a68:	08000d23 	.word	0x08000d23
 8000a6c:	08000d39 	.word	0x08000d39
 8000a70:	08000d4f 	.word	0x08000d4f
 8000a74:	08000d65 	.word	0x08000d65
 8000a78:	08000d7b 	.word	0x08000d7b
 8000a7c:	08000d91 	.word	0x08000d91
 8000a80:	08000da7 	.word	0x08000da7
 8000a84:	08000dbd 	.word	0x08000dbd
 8000a88:	08000dd3 	.word	0x08000dd3
 8000a8c:	08000de9 	.word	0x08000de9
 8000a90:	08000de9 	.word	0x08000de9
 8000a94:	08000de9 	.word	0x08000de9
 8000a98:	08000de9 	.word	0x08000de9
 8000a9c:	08000de9 	.word	0x08000de9
 8000aa0:	08000de9 	.word	0x08000de9
 8000aa4:	08000de9 	.word	0x08000de9
 8000aa8:	08000b91 	.word	0x08000b91
 8000aac:	08000b9b 	.word	0x08000b9b
 8000ab0:	08000bad 	.word	0x08000bad
 8000ab4:	08000bbf 	.word	0x08000bbf
 8000ab8:	08000bcd 	.word	0x08000bcd
 8000abc:	08000bd3 	.word	0x08000bd3
 8000ac0:	08000be5 	.word	0x08000be5
 8000ac4:	08000bf3 	.word	0x08000bf3
 8000ac8:	08000c05 	.word	0x08000c05
 8000acc:	08000c0f 	.word	0x08000c0f
 8000ad0:	08000c21 	.word	0x08000c21
 8000ad4:	08000c2f 	.word	0x08000c2f
 8000ad8:	08000c41 	.word	0x08000c41
 8000adc:	08000c4b 	.word	0x08000c4b
 8000ae0:	08000c55 	.word	0x08000c55
 8000ae4:	08000c63 	.word	0x08000c63
 8000ae8:	08000c75 	.word	0x08000c75
 8000aec:	08000c87 	.word	0x08000c87
 8000af0:	08000c95 	.word	0x08000c95
 8000af4:	08000ca3 	.word	0x08000ca3
 8000af8:	08000ca9 	.word	0x08000ca9
 8000afc:	08000cb7 	.word	0x08000cb7
 8000b00:	08000cc9 	.word	0x08000cc9
 8000b04:	08000cd7 	.word	0x08000cd7
 8000b08:	08000ce9 	.word	0x08000ce9
 8000b0c:	08000cfb 	.word	0x08000cfb
 8000b10:	08000de9 	.word	0x08000de9
 8000b14:	08000de9 	.word	0x08000de9
 8000b18:	08000de9 	.word	0x08000de9
 8000b1c:	08000de9 	.word	0x08000de9
 8000b20:	08000de9 	.word	0x08000de9
 8000b24:	08000de9 	.word	0x08000de9
 8000b28:	08000b91 	.word	0x08000b91
 8000b2c:	08000b9b 	.word	0x08000b9b
 8000b30:	08000bad 	.word	0x08000bad
 8000b34:	08000bbf 	.word	0x08000bbf
 8000b38:	08000bcd 	.word	0x08000bcd
 8000b3c:	08000bd3 	.word	0x08000bd3
 8000b40:	08000be5 	.word	0x08000be5
 8000b44:	08000bf3 	.word	0x08000bf3
 8000b48:	08000c05 	.word	0x08000c05
 8000b4c:	08000c0f 	.word	0x08000c0f
 8000b50:	08000c21 	.word	0x08000c21
 8000b54:	08000c2f 	.word	0x08000c2f
 8000b58:	08000c41 	.word	0x08000c41
 8000b5c:	08000c4b 	.word	0x08000c4b
 8000b60:	08000c55 	.word	0x08000c55
 8000b64:	08000c63 	.word	0x08000c63
 8000b68:	08000c75 	.word	0x08000c75
 8000b6c:	08000c87 	.word	0x08000c87
 8000b70:	08000c95 	.word	0x08000c95
 8000b74:	08000ca3 	.word	0x08000ca3
 8000b78:	08000ca9 	.word	0x08000ca9
 8000b7c:	08000cb7 	.word	0x08000cb7
 8000b80:	08000cc9 	.word	0x08000cc9
 8000b84:	08000cd7 	.word	0x08000cd7
 8000b88:	08000ce9 	.word	0x08000ce9
 8000b8c:	08000cfb 	.word	0x08000cfb
		case 'a':
		case 'A':
					dot();
 8000b90:	f7ff fea4 	bl	80008dc <dot>
					dash();
 8000b94:	f7ff feb8 	bl	8000908 <dash>
				break;
 8000b98:	e126      	b.n	8000de8 <get_morse_for_character+0x3a0>
		case 'b':
		case 'B':
					dash();
 8000b9a:	f7ff feb5 	bl	8000908 <dash>
					dot();
 8000b9e:	f7ff fe9d 	bl	80008dc <dot>
					dot();
 8000ba2:	f7ff fe9b 	bl	80008dc <dot>
					dot();
 8000ba6:	f7ff fe99 	bl	80008dc <dot>
				break;
 8000baa:	e11d      	b.n	8000de8 <get_morse_for_character+0x3a0>
		case 'c':
		case 'C':
					dash();
 8000bac:	f7ff feac 	bl	8000908 <dash>
					dot();
 8000bb0:	f7ff fe94 	bl	80008dc <dot>
					dash();
 8000bb4:	f7ff fea8 	bl	8000908 <dash>
					dot();
 8000bb8:	f7ff fe90 	bl	80008dc <dot>
				break;
 8000bbc:	e114      	b.n	8000de8 <get_morse_for_character+0x3a0>
		case 'd':
		case 'D':
					dash();
 8000bbe:	f7ff fea3 	bl	8000908 <dash>
					dot();
 8000bc2:	f7ff fe8b 	bl	80008dc <dot>
					dot();
 8000bc6:	f7ff fe89 	bl	80008dc <dot>
				break;
 8000bca:	e10d      	b.n	8000de8 <get_morse_for_character+0x3a0>
		case 'e':
		case 'E':
					dot();
 8000bcc:	f7ff fe86 	bl	80008dc <dot>
				break;
 8000bd0:	e10a      	b.n	8000de8 <get_morse_for_character+0x3a0>
		case 'f':
		case 'F':
					dot();
 8000bd2:	f7ff fe83 	bl	80008dc <dot>
					dot();
 8000bd6:	f7ff fe81 	bl	80008dc <dot>
					dash();
 8000bda:	f7ff fe95 	bl	8000908 <dash>
					dot();
 8000bde:	f7ff fe7d 	bl	80008dc <dot>
				break;
 8000be2:	e101      	b.n	8000de8 <get_morse_for_character+0x3a0>
		case 'g':
		case 'G':
					dash();
 8000be4:	f7ff fe90 	bl	8000908 <dash>
					dash();
 8000be8:	f7ff fe8e 	bl	8000908 <dash>
					dot();
 8000bec:	f7ff fe76 	bl	80008dc <dot>
				break;
 8000bf0:	e0fa      	b.n	8000de8 <get_morse_for_character+0x3a0>
		case 'h':
		case 'H':
					dot();
 8000bf2:	f7ff fe73 	bl	80008dc <dot>
					dot();
 8000bf6:	f7ff fe71 	bl	80008dc <dot>
					dot();
 8000bfa:	f7ff fe6f 	bl	80008dc <dot>
					dot();
 8000bfe:	f7ff fe6d 	bl	80008dc <dot>
				break;
 8000c02:	e0f1      	b.n	8000de8 <get_morse_for_character+0x3a0>
		case 'i':
		case 'I':
					dot();
 8000c04:	f7ff fe6a 	bl	80008dc <dot>
					dot();
 8000c08:	f7ff fe68 	bl	80008dc <dot>
				break;
 8000c0c:	e0ec      	b.n	8000de8 <get_morse_for_character+0x3a0>
		case 'j':
		case 'J':
					dot();
 8000c0e:	f7ff fe65 	bl	80008dc <dot>
					dash();
 8000c12:	f7ff fe79 	bl	8000908 <dash>
					dash();
 8000c16:	f7ff fe77 	bl	8000908 <dash>
					dash();
 8000c1a:	f7ff fe75 	bl	8000908 <dash>
				break;
 8000c1e:	e0e3      	b.n	8000de8 <get_morse_for_character+0x3a0>
		case 'k':
		case 'K':
					dash();
 8000c20:	f7ff fe72 	bl	8000908 <dash>
					dot();
 8000c24:	f7ff fe5a 	bl	80008dc <dot>
					dash();
 8000c28:	f7ff fe6e 	bl	8000908 <dash>
				break;
 8000c2c:	e0dc      	b.n	8000de8 <get_morse_for_character+0x3a0>
		case 'l':
		case 'L':
					dot();
 8000c2e:	f7ff fe55 	bl	80008dc <dot>
					dash();
 8000c32:	f7ff fe69 	bl	8000908 <dash>
					dot();
 8000c36:	f7ff fe51 	bl	80008dc <dot>
					dot();
 8000c3a:	f7ff fe4f 	bl	80008dc <dot>
				break;
 8000c3e:	e0d3      	b.n	8000de8 <get_morse_for_character+0x3a0>
		case 'm':
		case 'M':
					dash();
 8000c40:	f7ff fe62 	bl	8000908 <dash>
					dash();
 8000c44:	f7ff fe60 	bl	8000908 <dash>
				break;
 8000c48:	e0ce      	b.n	8000de8 <get_morse_for_character+0x3a0>
		case 'n':
		case 'N':
					dash();
 8000c4a:	f7ff fe5d 	bl	8000908 <dash>
					dot();
 8000c4e:	f7ff fe45 	bl	80008dc <dot>
				break;
 8000c52:	e0c9      	b.n	8000de8 <get_morse_for_character+0x3a0>
		case 'o':
		case 'O':
					dash();
 8000c54:	f7ff fe58 	bl	8000908 <dash>
					dash();
 8000c58:	f7ff fe56 	bl	8000908 <dash>
					dash();
 8000c5c:	f7ff fe54 	bl	8000908 <dash>
				break;
 8000c60:	e0c2      	b.n	8000de8 <get_morse_for_character+0x3a0>
		case 'p':
		case 'P':
					dot();
 8000c62:	f7ff fe3b 	bl	80008dc <dot>
					dash();
 8000c66:	f7ff fe4f 	bl	8000908 <dash>
					dash();
 8000c6a:	f7ff fe4d 	bl	8000908 <dash>
					dot();
 8000c6e:	f7ff fe35 	bl	80008dc <dot>
				break;
 8000c72:	e0b9      	b.n	8000de8 <get_morse_for_character+0x3a0>
		case 'q':
		case 'Q':
					dash();
 8000c74:	f7ff fe48 	bl	8000908 <dash>
					dash();
 8000c78:	f7ff fe46 	bl	8000908 <dash>
					dot();
 8000c7c:	f7ff fe2e 	bl	80008dc <dot>
					dash();
 8000c80:	f7ff fe42 	bl	8000908 <dash>
				break;
 8000c84:	e0b0      	b.n	8000de8 <get_morse_for_character+0x3a0>
		case 'r':
		case 'R':
					dot();
 8000c86:	f7ff fe29 	bl	80008dc <dot>
					dash();
 8000c8a:	f7ff fe3d 	bl	8000908 <dash>
					dot();
 8000c8e:	f7ff fe25 	bl	80008dc <dot>
				break;
 8000c92:	e0a9      	b.n	8000de8 <get_morse_for_character+0x3a0>
		case 's':
		case 'S':
					dot();
 8000c94:	f7ff fe22 	bl	80008dc <dot>
					dot();
 8000c98:	f7ff fe20 	bl	80008dc <dot>
					dot();
 8000c9c:	f7ff fe1e 	bl	80008dc <dot>
				break;
 8000ca0:	e0a2      	b.n	8000de8 <get_morse_for_character+0x3a0>
		case 't':
		case 'T':
					dash();
 8000ca2:	f7ff fe31 	bl	8000908 <dash>
				break;
 8000ca6:	e09f      	b.n	8000de8 <get_morse_for_character+0x3a0>
		case 'u':
		case 'U':
					dot();
 8000ca8:	f7ff fe18 	bl	80008dc <dot>
					dot();
 8000cac:	f7ff fe16 	bl	80008dc <dot>
					dash();
 8000cb0:	f7ff fe2a 	bl	8000908 <dash>
				break;
 8000cb4:	e098      	b.n	8000de8 <get_morse_for_character+0x3a0>
		case 'v':
		case 'V':
					dot();
 8000cb6:	f7ff fe11 	bl	80008dc <dot>
					dot();
 8000cba:	f7ff fe0f 	bl	80008dc <dot>
					dot();
 8000cbe:	f7ff fe0d 	bl	80008dc <dot>
					dash();
 8000cc2:	f7ff fe21 	bl	8000908 <dash>
				break;
 8000cc6:	e08f      	b.n	8000de8 <get_morse_for_character+0x3a0>
		case 'w':
		case 'W':
					dot();
 8000cc8:	f7ff fe08 	bl	80008dc <dot>
					dash();
 8000ccc:	f7ff fe1c 	bl	8000908 <dash>
					dash();
 8000cd0:	f7ff fe1a 	bl	8000908 <dash>
				break;
 8000cd4:	e088      	b.n	8000de8 <get_morse_for_character+0x3a0>
		case 'x':
		case 'X':
					dash();
 8000cd6:	f7ff fe17 	bl	8000908 <dash>
					dot();
 8000cda:	f7ff fdff 	bl	80008dc <dot>
					dot();
 8000cde:	f7ff fdfd 	bl	80008dc <dot>
					dash();
 8000ce2:	f7ff fe11 	bl	8000908 <dash>
				break;
 8000ce6:	e07f      	b.n	8000de8 <get_morse_for_character+0x3a0>
		case 'y':
		case 'Y':
					dash();
 8000ce8:	f7ff fe0e 	bl	8000908 <dash>
					dot();
 8000cec:	f7ff fdf6 	bl	80008dc <dot>
					dash();
 8000cf0:	f7ff fe0a 	bl	8000908 <dash>
					dash();
 8000cf4:	f7ff fe08 	bl	8000908 <dash>
				break;
 8000cf8:	e076      	b.n	8000de8 <get_morse_for_character+0x3a0>
		case 'z':
		case 'Z':
					dash();
 8000cfa:	f7ff fe05 	bl	8000908 <dash>
					dash();
 8000cfe:	f7ff fe03 	bl	8000908 <dash>
					dot();
 8000d02:	f7ff fdeb 	bl	80008dc <dot>
					dot();
 8000d06:	f7ff fde9 	bl	80008dc <dot>
				break;
 8000d0a:	e06d      	b.n	8000de8 <get_morse_for_character+0x3a0>
		case '0':
					dash();
 8000d0c:	f7ff fdfc 	bl	8000908 <dash>
					dash();
 8000d10:	f7ff fdfa 	bl	8000908 <dash>
					dash();
 8000d14:	f7ff fdf8 	bl	8000908 <dash>
					dash();
 8000d18:	f7ff fdf6 	bl	8000908 <dash>
					dash();
 8000d1c:	f7ff fdf4 	bl	8000908 <dash>
				break;
 8000d20:	e062      	b.n	8000de8 <get_morse_for_character+0x3a0>
		case '1':
					dot();
 8000d22:	f7ff fddb 	bl	80008dc <dot>
					dash();
 8000d26:	f7ff fdef 	bl	8000908 <dash>
					dash();
 8000d2a:	f7ff fded 	bl	8000908 <dash>
					dash();
 8000d2e:	f7ff fdeb 	bl	8000908 <dash>
					dash();
 8000d32:	f7ff fde9 	bl	8000908 <dash>
				break;
 8000d36:	e057      	b.n	8000de8 <get_morse_for_character+0x3a0>
		case '2':
					dot();
 8000d38:	f7ff fdd0 	bl	80008dc <dot>
					dot();
 8000d3c:	f7ff fdce 	bl	80008dc <dot>
					dash();
 8000d40:	f7ff fde2 	bl	8000908 <dash>
					dash();
 8000d44:	f7ff fde0 	bl	8000908 <dash>
					dash();
 8000d48:	f7ff fdde 	bl	8000908 <dash>
				break;
 8000d4c:	e04c      	b.n	8000de8 <get_morse_for_character+0x3a0>
		case '3':
					dot();
 8000d4e:	f7ff fdc5 	bl	80008dc <dot>
					dot();
 8000d52:	f7ff fdc3 	bl	80008dc <dot>
					dot();
 8000d56:	f7ff fdc1 	bl	80008dc <dot>
					dash();
 8000d5a:	f7ff fdd5 	bl	8000908 <dash>
					dash();
 8000d5e:	f7ff fdd3 	bl	8000908 <dash>
				break;
 8000d62:	e041      	b.n	8000de8 <get_morse_for_character+0x3a0>
		case '4':
					dot();
 8000d64:	f7ff fdba 	bl	80008dc <dot>
					dot();
 8000d68:	f7ff fdb8 	bl	80008dc <dot>
					dot();
 8000d6c:	f7ff fdb6 	bl	80008dc <dot>
					dot();
 8000d70:	f7ff fdb4 	bl	80008dc <dot>
					dash();
 8000d74:	f7ff fdc8 	bl	8000908 <dash>
				break;
 8000d78:	e036      	b.n	8000de8 <get_morse_for_character+0x3a0>
		case '5':
					dot();
 8000d7a:	f7ff fdaf 	bl	80008dc <dot>
					dot();
 8000d7e:	f7ff fdad 	bl	80008dc <dot>
					dot();
 8000d82:	f7ff fdab 	bl	80008dc <dot>
					dot();
 8000d86:	f7ff fda9 	bl	80008dc <dot>
					dot();
 8000d8a:	f7ff fda7 	bl	80008dc <dot>
				break;
 8000d8e:	e02b      	b.n	8000de8 <get_morse_for_character+0x3a0>
		case '6':
					dash();
 8000d90:	f7ff fdba 	bl	8000908 <dash>
					dot();
 8000d94:	f7ff fda2 	bl	80008dc <dot>
					dot();
 8000d98:	f7ff fda0 	bl	80008dc <dot>
					dot();
 8000d9c:	f7ff fd9e 	bl	80008dc <dot>
					dot();
 8000da0:	f7ff fd9c 	bl	80008dc <dot>
				break;
 8000da4:	e020      	b.n	8000de8 <get_morse_for_character+0x3a0>
		case '7':
					dash();
 8000da6:	f7ff fdaf 	bl	8000908 <dash>
					dash();
 8000daa:	f7ff fdad 	bl	8000908 <dash>
					dot();
 8000dae:	f7ff fd95 	bl	80008dc <dot>
					dot();
 8000db2:	f7ff fd93 	bl	80008dc <dot>
					dot();
 8000db6:	f7ff fd91 	bl	80008dc <dot>
				break;
 8000dba:	e015      	b.n	8000de8 <get_morse_for_character+0x3a0>
		case '8':
					dash();
 8000dbc:	f7ff fda4 	bl	8000908 <dash>
					dash();
 8000dc0:	f7ff fda2 	bl	8000908 <dash>
					dash();
 8000dc4:	f7ff fda0 	bl	8000908 <dash>
					dot();
 8000dc8:	f7ff fd88 	bl	80008dc <dot>
					dot();
 8000dcc:	f7ff fd86 	bl	80008dc <dot>
				break;
 8000dd0:	e00a      	b.n	8000de8 <get_morse_for_character+0x3a0>
		case '9':
					dash();
 8000dd2:	f7ff fd99 	bl	8000908 <dash>
					dash();
 8000dd6:	f7ff fd97 	bl	8000908 <dash>
					dash();
 8000dda:	f7ff fd95 	bl	8000908 <dash>
					dash();
 8000dde:	f7ff fd93 	bl	8000908 <dash>
					dot();
 8000de2:	f7ff fd7b 	bl	80008dc <dot>
				break;
 8000de6:	bf00      	nop
		default: 
					;			// Do Nothing
	}
 8000de8:	bf00      	nop
 8000dea:	3708      	adds	r7, #8
 8000dec:	46bd      	mov	sp, r7
 8000dee:	bd80      	pop	{r7, pc}

08000df0 <__NVIC_SetPriority>:
  \param [in]      IRQn  Interrupt number.
  \param [in]  priority  Priority to set.
  \note    The priority cannot be set for every processor exception.
 */
__STATIC_INLINE void __NVIC_SetPriority(IRQn_Type IRQn, uint32_t priority)
{
 8000df0:	b480      	push	{r7}
 8000df2:	b083      	sub	sp, #12
 8000df4:	af00      	add	r7, sp, #0
 8000df6:	4603      	mov	r3, r0
 8000df8:	6039      	str	r1, [r7, #0]
 8000dfa:	71fb      	strb	r3, [r7, #7]
  if ((int32_t)(IRQn) >= 0)
 8000dfc:	f997 3007 	ldrsb.w	r3, [r7, #7]
 8000e00:	2b00      	cmp	r3, #0
 8000e02:	db0a      	blt.n	8000e1a <__NVIC_SetPriority+0x2a>
  {
    NVIC->IP[((uint32_t)(int32_t)IRQn)]               = (uint8_t)((priority << (8U - __NVIC_PRIO_BITS)) & (uint32_t)0xFFUL);
 8000e04:	683b      	ldr	r3, [r7, #0]
 8000e06:	b2da      	uxtb	r2, r3
 8000e08:	490c      	ldr	r1, [pc, #48]	; (8000e3c <__NVIC_SetPriority+0x4c>)
 8000e0a:	f997 3007 	ldrsb.w	r3, [r7, #7]
 8000e0e:	0092      	lsls	r2, r2, #2
 8000e10:	b2d2      	uxtb	r2, r2
 8000e12:	440b      	add	r3, r1
 8000e14:	f883 2300 	strb.w	r2, [r3, #768]	; 0x300
  }
  else
  {
    SCB->SHP[(((uint32_t)(int32_t)IRQn) & 0xFUL)-4UL] = (uint8_t)((priority << (8U - __NVIC_PRIO_BITS)) & (uint32_t)0xFFUL);
  }
}
 8000e18:	e00a      	b.n	8000e30 <__NVIC_SetPriority+0x40>
    SCB->SHP[(((uint32_t)(int32_t)IRQn) & 0xFUL)-4UL] = (uint8_t)((priority << (8U - __NVIC_PRIO_BITS)) & (uint32_t)0xFFUL);
 8000e1a:	683b      	ldr	r3, [r7, #0]
 8000e1c:	b2da      	uxtb	r2, r3
 8000e1e:	4908      	ldr	r1, [pc, #32]	; (8000e40 <__NVIC_SetPriority+0x50>)
 8000e20:	79fb      	ldrb	r3, [r7, #7]
 8000e22:	f003 030f 	and.w	r3, r3, #15
 8000e26:	3b04      	subs	r3, #4
 8000e28:	0092      	lsls	r2, r2, #2
 8000e2a:	b2d2      	uxtb	r2, r2
 8000e2c:	440b      	add	r3, r1
 8000e2e:	761a      	strb	r2, [r3, #24]
}
 8000e30:	bf00      	nop
 8000e32:	370c      	adds	r7, #12
 8000e34:	46bd      	mov	sp, r7
 8000e36:	f85d 7b04 	ldr.w	r7, [sp], #4
 8000e3a:	4770      	bx	lr
 8000e3c:	e000e100 	.word	0xe000e100
 8000e40:	e000ed00 	.word	0xe000ed00

08000e44 <SysTick_Config>:
  \note    When the variable <b>__Vendor_SysTickConfig</b> is set to 1, then the
           function <b>SysTick_Config</b> is not included. In this case, the file <b><i>device</i>.h</b>
           must contain a vendor-specific implementation of this function.
 */
__STATIC_INLINE uint32_t SysTick_Config(uint32_t ticks)
{
 8000e44:	b580      	push	{r7, lr}
 8000e46:	b082      	sub	sp, #8
 8000e48:	af00      	add	r7, sp, #0
 8000e4a:	6078      	str	r0, [r7, #4]
  if ((ticks - 1UL) > SysTick_LOAD_RELOAD_Msk)
 8000e4c:	687b      	ldr	r3, [r7, #4]
 8000e4e:	3b01      	subs	r3, #1
 8000e50:	f1b3 7f80 	cmp.w	r3, #16777216	; 0x1000000
 8000e54:	d301      	bcc.n	8000e5a <SysTick_Config+0x16>
  {
    return (1UL);                                                   /* Reload value impossible */
 8000e56:	2301      	movs	r3, #1
 8000e58:	e00f      	b.n	8000e7a <SysTick_Config+0x36>
  }

  SysTick->LOAD  = (uint32_t)(ticks - 1UL);                         /* set reload register */
 8000e5a:	4a0a      	ldr	r2, [pc, #40]	; (8000e84 <SysTick_Config+0x40>)
 8000e5c:	687b      	ldr	r3, [r7, #4]
 8000e5e:	3b01      	subs	r3, #1
 8000e60:	6053      	str	r3, [r2, #4]
  NVIC_SetPriority (SysTick_IRQn, (1UL << __NVIC_PRIO_BITS) - 1UL); /* set Priority for Systick Interrupt */
 8000e62:	213f      	movs	r1, #63	; 0x3f
 8000e64:	f04f 30ff 	mov.w	r0, #4294967295	; 0xffffffff
 8000e68:	f7ff ffc2 	bl	8000df0 <__NVIC_SetPriority>
  SysTick->VAL   = 0UL;                                             /* Load the SysTick Counter Value */
 8000e6c:	4b05      	ldr	r3, [pc, #20]	; (8000e84 <SysTick_Config+0x40>)
 8000e6e:	2200      	movs	r2, #0
 8000e70:	609a      	str	r2, [r3, #8]
  SysTick->CTRL  = SysTick_CTRL_CLKSOURCE_Msk |
 8000e72:	4b04      	ldr	r3, [pc, #16]	; (8000e84 <SysTick_Config+0x40>)
 8000e74:	2207      	movs	r2, #7
 8000e76:	601a      	str	r2, [r3, #0]
                   SysTick_CTRL_TICKINT_Msk   |
                   SysTick_CTRL_ENABLE_Msk;                         /* Enable SysTick IRQ and SysTick Timer */
  return (0UL);                                                     /* Function successful */
 8000e78:	2300      	movs	r3, #0
}
 8000e7a:	4618      	mov	r0, r3
 8000e7c:	3708      	adds	r7, #8
 8000e7e:	46bd      	mov	sp, r7
 8000e80:	bd80      	pop	{r7, pc}
 8000e82:	bf00      	nop
 8000e84:	e000e010 	.word	0xe000e010

08000e88 <init_sys_tick>:
*********************************************************************************************************************************************************************************************/
/**
* This function initialises Systm Clock using SysTick to interrupt every 1ms. This can be counted to keep track of time.
*
*/
void init_sys_tick (void) {
 8000e88:	b580      	push	{r7, lr}
 8000e8a:	af00      	add	r7, sp, #0
	SysTick_Config ( SystemCoreClock / 1000 ) ;			// System Clock interrupts every 1 ms.
 8000e8c:	4b05      	ldr	r3, [pc, #20]	; (8000ea4 <init_sys_tick+0x1c>)
 8000e8e:	681b      	ldr	r3, [r3, #0]
 8000e90:	4a05      	ldr	r2, [pc, #20]	; (8000ea8 <init_sys_tick+0x20>)
 8000e92:	fba2 2303 	umull	r2, r3, r2, r3
 8000e96:	099b      	lsrs	r3, r3, #6
 8000e98:	4618      	mov	r0, r3
 8000e9a:	f7ff ffd3 	bl	8000e44 <SysTick_Config>
}	
 8000e9e:	bf00      	nop
 8000ea0:	bd80      	pop	{r7, pc}
 8000ea2:	bf00      	nop
 8000ea4:	2000ffc0 	.word	0x2000ffc0
 8000ea8:	10624dd3 	.word	0x10624dd3

08000eac <SysTick_Handler>:

/**
* This function is the interrupt handler for SysTick interrupts. It updates a global variable to keep track of each milli second elapsed.
*/
extern void SysTick_Handler (void) {
 8000eac:	b480      	push	{r7}
 8000eae:	af00      	add	r7, sp, #0
	global_sys_tick_counter++;
 8000eb0:	4b04      	ldr	r3, [pc, #16]	; (8000ec4 <SysTick_Handler+0x18>)
 8000eb2:	681b      	ldr	r3, [r3, #0]
 8000eb4:	3301      	adds	r3, #1
 8000eb6:	4a03      	ldr	r2, [pc, #12]	; (8000ec4 <SysTick_Handler+0x18>)
 8000eb8:	6013      	str	r3, [r2, #0]
}
 8000eba:	bf00      	nop
 8000ebc:	46bd      	mov	sp, r7
 8000ebe:	f85d 7b04 	ldr.w	r7, [sp], #4
 8000ec2:	4770      	bx	lr
 8000ec4:	200009d4 	.word	0x200009d4

08000ec8 <delay>:

/**
*	This Method is used to introduce software delays between using SysTick. 
*/
void delay (uint32_t delay_duration) {
 8000ec8:	b480      	push	{r7}
 8000eca:	b085      	sub	sp, #20
 8000ecc:	af00      	add	r7, sp, #0
 8000ece:	6078      	str	r0, [r7, #4]
	 uint32_t current_sys_tick_counter_value; 
	 current_sys_tick_counter_value = global_sys_tick_counter;
 8000ed0:	4b08      	ldr	r3, [pc, #32]	; (8000ef4 <delay+0x2c>)
 8000ed2:	681b      	ldr	r3, [r3, #0]
 8000ed4:	60fb      	str	r3, [r7, #12]
	 while(global_sys_tick_counter - current_sys_tick_counter_value < delay_duration);
 8000ed6:	bf00      	nop
 8000ed8:	4b06      	ldr	r3, [pc, #24]	; (8000ef4 <delay+0x2c>)
 8000eda:	681a      	ldr	r2, [r3, #0]
 8000edc:	68fb      	ldr	r3, [r7, #12]
 8000ede:	1ad3      	subs	r3, r2, r3
 8000ee0:	687a      	ldr	r2, [r7, #4]
 8000ee2:	429a      	cmp	r2, r3
 8000ee4:	d8f8      	bhi.n	8000ed8 <delay+0x10>
}
 8000ee6:	bf00      	nop
 8000ee8:	3714      	adds	r7, #20
 8000eea:	46bd      	mov	sp, r7
 8000eec:	f85d 7b04 	ldr.w	r7, [sp], #4
 8000ef0:	4770      	bx	lr
 8000ef2:	bf00      	nop
 8000ef4:	200009d4 	.word	0x200009d4

08000ef8 <get_current_time>:

uint32_t get_current_time (void) {
 8000ef8:	b480      	push	{r7}
 8000efa:	af00      	add	r7, sp, #0
	return global_sys_tick_counter;
 8000efc:	4b03      	ldr	r3, [pc, #12]	; (8000f0c <get_current_time+0x14>)
 8000efe:	681b      	ldr	r3, [r3, #0]
 8000f00:	4618      	mov	r0, r3
 8000f02:	46bd      	mov	sp, r7
 8000f04:	f85d 7b04 	ldr.w	r7, [sp], #4
 8000f08:	4770      	bx	lr
 8000f0a:	bf00      	nop
 8000f0c:	200009d4 	.word	0x200009d4

08000f10 <character_notation_of_number>:
#include <math.h>
#include <stdlib.h>
#include <stdio.h>
#include <xmc_common.h>

char * character_notation_of_number (uint32_t number) {
 8000f10:	b590      	push	{r4, r7, lr}
 8000f12:	b085      	sub	sp, #20
 8000f14:	af00      	add	r7, sp, #0
 8000f16:	6078      	str	r0, [r7, #4]
	if (number ==0) {
 8000f18:	687b      	ldr	r3, [r7, #4]
 8000f1a:	2b00      	cmp	r3, #0
 8000f1c:	d101      	bne.n	8000f22 <character_notation_of_number+0x12>
		return "0";
 8000f1e:	4b14      	ldr	r3, [pc, #80]	; (8000f70 <character_notation_of_number+0x60>)
 8000f20:	e022      	b.n	8000f68 <character_notation_of_number+0x58>
	}
	int n = log10(number) + 1;
 8000f22:	6878      	ldr	r0, [r7, #4]
 8000f24:	f000 fe5c 	bl	8001be0 <__aeabi_ui2d>
 8000f28:	4603      	mov	r3, r0
 8000f2a:	460c      	mov	r4, r1
 8000f2c:	4618      	mov	r0, r3
 8000f2e:	4621      	mov	r1, r4
 8000f30:	f000 fa38 	bl	80013a4 <log10>
 8000f34:	f04f 0200 	mov.w	r2, #0
 8000f38:	4b0e      	ldr	r3, [pc, #56]	; (8000f74 <character_notation_of_number+0x64>)
 8000f3a:	f000 fd15 	bl	8001968 <__adddf3>
 8000f3e:	4603      	mov	r3, r0
 8000f40:	460c      	mov	r4, r1
 8000f42:	4618      	mov	r0, r3
 8000f44:	4621      	mov	r1, r4
 8000f46:	f001 f975 	bl	8002234 <__aeabi_d2iz>
 8000f4a:	4603      	mov	r3, r0
 8000f4c:	60fb      	str	r3, [r7, #12]
	char* num_to_char = calloc(n, sizeof(char));
 8000f4e:	68fb      	ldr	r3, [r7, #12]
 8000f50:	2101      	movs	r1, #1
 8000f52:	4618      	mov	r0, r3
 8000f54:	f001 f996 	bl	8002284 <calloc>
 8000f58:	4603      	mov	r3, r0
 8000f5a:	60bb      	str	r3, [r7, #8]
	sprintf(num_to_char, "%ld", number);
 8000f5c:	687a      	ldr	r2, [r7, #4]
 8000f5e:	4906      	ldr	r1, [pc, #24]	; (8000f78 <character_notation_of_number+0x68>)
 8000f60:	68b8      	ldr	r0, [r7, #8]
 8000f62:	f001 fd1f 	bl	80029a4 <sprintf>
	return num_to_char;
 8000f66:	68bb      	ldr	r3, [r7, #8]
 8000f68:	4618      	mov	r0, r3
 8000f6a:	3714      	adds	r7, #20
 8000f6c:	46bd      	mov	sp, r7
 8000f6e:	bd90      	pop	{r4, r7, pc}
 8000f70:	08007bc4 	.word	0x08007bc4
 8000f74:	3ff00000 	.word	0x3ff00000
 8000f78:	08007bc8 	.word	0x08007bc8

08000f7c <delay>:

/*******************************************************************************
 * LOCAL FUNCTIONS
 *******************************************************************************/
static void delay(uint32_t cycles)
{
 8000f7c:	b480      	push	{r7}
 8000f7e:	b085      	sub	sp, #20
 8000f80:	af00      	add	r7, sp, #0
 8000f82:	6078      	str	r0, [r7, #4]
  volatile uint32_t i;

  for(i = 0UL; i < cycles ;++i)
 8000f84:	2300      	movs	r3, #0
 8000f86:	60fb      	str	r3, [r7, #12]
 8000f88:	e003      	b.n	8000f92 <delay+0x16>
  {
    __NOP();
 8000f8a:	bf00      	nop
  for(i = 0UL; i < cycles ;++i)
 8000f8c:	68fb      	ldr	r3, [r7, #12]
 8000f8e:	3301      	adds	r3, #1
 8000f90:	60fb      	str	r3, [r7, #12]
 8000f92:	68fb      	ldr	r3, [r7, #12]
 8000f94:	687a      	ldr	r2, [r7, #4]
 8000f96:	429a      	cmp	r2, r3
 8000f98:	d8f7      	bhi.n	8000f8a <delay+0xe>
  }
}
 8000f9a:	bf00      	nop
 8000f9c:	3714      	adds	r7, #20
 8000f9e:	46bd      	mov	sp, r7
 8000fa0:	f85d 7b04 	ldr.w	r7, [sp], #4
 8000fa4:	4770      	bx	lr
	...

08000fa8 <SystemInit>:
/*******************************************************************************
 * API IMPLEMENTATION
 *******************************************************************************/

__WEAK void SystemInit(void)
{
 8000fa8:	b598      	push	{r3, r4, r7, lr}
 8000faa:	af00      	add	r7, sp, #0
  memcpy(g_chipid, CHIPID_LOC, 16);
 8000fac:	4a06      	ldr	r2, [pc, #24]	; (8000fc8 <SystemInit+0x20>)
 8000fae:	f04f 5300 	mov.w	r3, #536870912	; 0x20000000
 8000fb2:	4614      	mov	r4, r2
 8000fb4:	cb0f      	ldmia	r3, {r0, r1, r2, r3}
 8000fb6:	e884 000f 	stmia.w	r4, {r0, r1, r2, r3}

  SystemCoreSetup();
 8000fba:	f000 f807 	bl	8000fcc <SystemCoreSetup>
  SystemCoreClockSetup(); 
 8000fbe:	f000 f83d 	bl	800103c <SystemCoreClockSetup>
}
 8000fc2:	bf00      	nop
 8000fc4:	bd98      	pop	{r3, r4, r7, pc}
 8000fc6:	bf00      	nop
 8000fc8:	2000ffc4 	.word	0x2000ffc4

08000fcc <SystemCoreSetup>:

__WEAK void SystemCoreSetup(void)
{
 8000fcc:	b480      	push	{r7}
 8000fce:	b083      	sub	sp, #12
 8000fd0:	af00      	add	r7, sp, #0
  \details Disables IRQ interrupts by setting the I-bit in the CPSR.
           Can only be executed in Privileged modes.
 */
__attribute__((always_inline)) __STATIC_INLINE void __disable_irq(void)
{
  __ASM volatile ("cpsid i" : : : "memory");
 8000fd2:	b672      	cpsid	i
  uint32_t temp;
	
  /* relocate vector table */
  __disable_irq();
  SCB->VTOR = (uint32_t)(&__Vectors);
 8000fd4:	4b16      	ldr	r3, [pc, #88]	; (8001030 <SystemCoreSetup+0x64>)
 8000fd6:	4a17      	ldr	r2, [pc, #92]	; (8001034 <SystemCoreSetup+0x68>)
 8000fd8:	609a      	str	r2, [r3, #8]
  \details Acts as a special kind of Data Memory Barrier.
           It completes when all explicit memory accesses before this instruction complete.
 */
__attribute__((always_inline)) __STATIC_INLINE void __DSB(void)
{
  __ASM volatile ("dsb 0xF":::"memory");
 8000fda:	f3bf 8f4f 	dsb	sy
  __ASM volatile ("cpsie i" : : : "memory");
 8000fde:	b662      	cpsie	i
  __DSB();
  __enable_irq();
    
#if ((__FPU_PRESENT == 1) && (__FPU_USED == 1))
  SCB->CPACR |= ((3UL << 10*2) |                 /* set CP10 Full Access */
 8000fe0:	4b13      	ldr	r3, [pc, #76]	; (8001030 <SystemCoreSetup+0x64>)
 8000fe2:	f8d3 3088 	ldr.w	r3, [r3, #136]	; 0x88
 8000fe6:	4a12      	ldr	r2, [pc, #72]	; (8001030 <SystemCoreSetup+0x64>)
 8000fe8:	f443 0370 	orr.w	r3, r3, #15728640	; 0xf00000
 8000fec:	f8c2 3088 	str.w	r3, [r2, #136]	; 0x88
                 (3UL << 11*2)  );               /* set CP11 Full Access */
#endif

  /* Enable unaligned memory access - SCB_CCR.UNALIGN_TRP = 0 */
  SCB->CCR &= ~(SCB_CCR_UNALIGN_TRP_Msk);
 8000ff0:	4b0f      	ldr	r3, [pc, #60]	; (8001030 <SystemCoreSetup+0x64>)
 8000ff2:	695b      	ldr	r3, [r3, #20]
 8000ff4:	4a0e      	ldr	r2, [pc, #56]	; (8001030 <SystemCoreSetup+0x64>)
 8000ff6:	f023 0308 	bic.w	r3, r3, #8
 8000ffa:	6153      	str	r3, [r2, #20]

  temp = FLASH0->FCON;
 8000ffc:	4b0e      	ldr	r3, [pc, #56]	; (8001038 <SystemCoreSetup+0x6c>)
 8000ffe:	f503 5380 	add.w	r3, r3, #4096	; 0x1000
 8001002:	3314      	adds	r3, #20
 8001004:	681b      	ldr	r3, [r3, #0]
 8001006:	607b      	str	r3, [r7, #4]
  temp &= ~FLASH_FCON_WSPFLASH_Msk;
 8001008:	687b      	ldr	r3, [r7, #4]
 800100a:	f023 030f 	bic.w	r3, r3, #15
 800100e:	607b      	str	r3, [r7, #4]
  temp |= PMU_FLASH_WS;
 8001010:	687b      	ldr	r3, [r7, #4]
 8001012:	f043 0303 	orr.w	r3, r3, #3
 8001016:	607b      	str	r3, [r7, #4]
  FLASH0->FCON = temp;
 8001018:	4b07      	ldr	r3, [pc, #28]	; (8001038 <SystemCoreSetup+0x6c>)
 800101a:	f503 5380 	add.w	r3, r3, #4096	; 0x1000
 800101e:	3314      	adds	r3, #20
 8001020:	687a      	ldr	r2, [r7, #4]
 8001022:	601a      	str	r2, [r3, #0]
}
 8001024:	bf00      	nop
 8001026:	370c      	adds	r7, #12
 8001028:	46bd      	mov	sp, r7
 800102a:	f85d 7b04 	ldr.w	r7, [sp], #4
 800102e:	4770      	bx	lr
 8001030:	e000ed00 	.word	0xe000ed00
 8001034:	08000000 	.word	0x08000000
 8001038:	58001000 	.word	0x58001000

0800103c <SystemCoreClockSetup>:

__WEAK void SystemCoreClockSetup(void)
{
 800103c:	b580      	push	{r7, lr}
 800103e:	af00      	add	r7, sp, #0
#else
  /* Automatic calibration uses the fSTDBY */

  /* Enable HIB domain */
  /* Power up HIB domain if and only if it is currently powered down */
  if((SCU_POWER->PWRSTAT & SCU_POWER_PWRSTAT_HIBEN_Msk) == 0)
 8001040:	4b75      	ldr	r3, [pc, #468]	; (8001218 <SystemCoreClockSetup+0x1dc>)
 8001042:	681b      	ldr	r3, [r3, #0]
 8001044:	f003 0301 	and.w	r3, r3, #1
 8001048:	2b00      	cmp	r3, #0
 800104a:	d10c      	bne.n	8001066 <SystemCoreClockSetup+0x2a>
  {
    SCU_POWER->PWRSET |= SCU_POWER_PWRSET_HIB_Msk;
 800104c:	4b72      	ldr	r3, [pc, #456]	; (8001218 <SystemCoreClockSetup+0x1dc>)
 800104e:	685b      	ldr	r3, [r3, #4]
 8001050:	4a71      	ldr	r2, [pc, #452]	; (8001218 <SystemCoreClockSetup+0x1dc>)
 8001052:	f043 0301 	orr.w	r3, r3, #1
 8001056:	6053      	str	r3, [r2, #4]

    while((SCU_POWER->PWRSTAT & SCU_POWER_PWRSTAT_HIBEN_Msk) == 0)
 8001058:	bf00      	nop
 800105a:	4b6f      	ldr	r3, [pc, #444]	; (8001218 <SystemCoreClockSetup+0x1dc>)
 800105c:	681b      	ldr	r3, [r3, #0]
 800105e:	f003 0301 	and.w	r3, r3, #1
 8001062:	2b00      	cmp	r3, #0
 8001064:	d0f9      	beq.n	800105a <SystemCoreClockSetup+0x1e>
      /* wait until HIB domain is enabled */
    }
  }

  /* Remove the reset only if HIB domain were in a state of reset */
  if((SCU_RESET->RSTSTAT) & SCU_RESET_RSTSTAT_HIBRS_Msk)
 8001066:	4b6d      	ldr	r3, [pc, #436]	; (800121c <SystemCoreClockSetup+0x1e0>)
 8001068:	681b      	ldr	r3, [r3, #0]
 800106a:	f403 7300 	and.w	r3, r3, #512	; 0x200
 800106e:	2b00      	cmp	r3, #0
 8001070:	d009      	beq.n	8001086 <SystemCoreClockSetup+0x4a>
  {
    SCU_RESET->RSTCLR |= SCU_RESET_RSTCLR_HIBRS_Msk;
 8001072:	4b6a      	ldr	r3, [pc, #424]	; (800121c <SystemCoreClockSetup+0x1e0>)
 8001074:	689b      	ldr	r3, [r3, #8]
 8001076:	4a69      	ldr	r2, [pc, #420]	; (800121c <SystemCoreClockSetup+0x1e0>)
 8001078:	f443 7300 	orr.w	r3, r3, #512	; 0x200
 800107c:	6093      	str	r3, [r2, #8]
    delay(DELAY_CNT_150US_50MHZ);
 800107e:	f641 504c 	movw	r0, #7500	; 0x1d4c
 8001082:	f7ff ff7b 	bl	8000f7c <delay>
  SCU_HIBERNATE->HDCR |= SCU_HIBERNATE_HDCR_RCS_Msk | SCU_HIBERNATE_HDCR_STDBYSEL_Msk;

#endif /* STDBY_CLOCK_SRC == STDBY_CLOCK_SRC_OSCULP */

  /* Enable automatic calibration of internal fast oscillator */
  SCU_PLL->PLLCON0 |= SCU_PLL_PLLCON0_AOTREN_Msk;
 8001086:	4b66      	ldr	r3, [pc, #408]	; (8001220 <SystemCoreClockSetup+0x1e4>)
 8001088:	685b      	ldr	r3, [r3, #4]
 800108a:	4a65      	ldr	r2, [pc, #404]	; (8001220 <SystemCoreClockSetup+0x1e4>)
 800108c:	f443 2300 	orr.w	r3, r3, #524288	; 0x80000
 8001090:	6053      	str	r3, [r2, #4]
#endif /* FOFI_CALIBRATION_MODE == FOFI_CALIBRATION_MODE_AUTOMATIC */

  delay(DELAY_CNT_50US_50MHZ);
 8001092:	f640 10c4 	movw	r0, #2500	; 0x9c4
 8001096:	f7ff ff71 	bl	8000f7c <delay>

#if ENABLE_PLL

  /* enable PLL */
  SCU_PLL->PLLCON0 &= ~(SCU_PLL_PLLCON0_VCOPWD_Msk | SCU_PLL_PLLCON0_PLLPWD_Msk);
 800109a:	4b61      	ldr	r3, [pc, #388]	; (8001220 <SystemCoreClockSetup+0x1e4>)
 800109c:	685b      	ldr	r3, [r3, #4]
 800109e:	4a60      	ldr	r2, [pc, #384]	; (8001220 <SystemCoreClockSetup+0x1e4>)
 80010a0:	f423 3380 	bic.w	r3, r3, #65536	; 0x10000
 80010a4:	f023 0302 	bic.w	r3, r3, #2
 80010a8:	6053      	str	r3, [r2, #4]

#if PLL_CLOCK_SRC != PLL_CLOCK_SRC_OFI
  /* enable OSC_HP */
  if ((SCU_OSC->OSCHPCTRL & SCU_OSC_OSCHPCTRL_MODE_Msk) != 0U)
 80010aa:	4b5e      	ldr	r3, [pc, #376]	; (8001224 <SystemCoreClockSetup+0x1e8>)
 80010ac:	685b      	ldr	r3, [r3, #4]
 80010ae:	f003 0330 	and.w	r3, r3, #48	; 0x30
 80010b2:	2b00      	cmp	r3, #0
 80010b4:	d029      	beq.n	800110a <SystemCoreClockSetup+0xce>
  {
    SCU_OSC->OSCHPCTRL &= ~(SCU_OSC_OSCHPCTRL_MODE_Msk | SCU_OSC_OSCHPCTRL_OSCVAL_Msk);
 80010b6:	4b5b      	ldr	r3, [pc, #364]	; (8001224 <SystemCoreClockSetup+0x1e8>)
 80010b8:	685b      	ldr	r3, [r3, #4]
 80010ba:	4a5a      	ldr	r2, [pc, #360]	; (8001224 <SystemCoreClockSetup+0x1e8>)
 80010bc:	f423 2370 	bic.w	r3, r3, #983040	; 0xf0000
 80010c0:	f023 0330 	bic.w	r3, r3, #48	; 0x30
 80010c4:	6053      	str	r3, [r2, #4]
    SCU_OSC->OSCHPCTRL |= ((OSCHP_GetFrequency() / FOSCREF) - 1UL) << SCU_OSC_OSCHPCTRL_OSCVAL_Pos;
 80010c6:	f000 f927 	bl	8001318 <OSCHP_GetFrequency>
 80010ca:	4602      	mov	r2, r0
 80010cc:	4b56      	ldr	r3, [pc, #344]	; (8001228 <SystemCoreClockSetup+0x1ec>)
 80010ce:	fba3 2302 	umull	r2, r3, r3, r2
 80010d2:	0d1b      	lsrs	r3, r3, #20
 80010d4:	3b01      	subs	r3, #1
 80010d6:	041a      	lsls	r2, r3, #16
 80010d8:	4b52      	ldr	r3, [pc, #328]	; (8001224 <SystemCoreClockSetup+0x1e8>)
 80010da:	685b      	ldr	r3, [r3, #4]
 80010dc:	4951      	ldr	r1, [pc, #324]	; (8001224 <SystemCoreClockSetup+0x1e8>)
 80010de:	4313      	orrs	r3, r2
 80010e0:	604b      	str	r3, [r1, #4]

    /* select OSC_HP clock as PLL input */
    SCU_PLL->PLLCON2 &= ~SCU_PLL_PLLCON2_PINSEL_Msk;
 80010e2:	4b4f      	ldr	r3, [pc, #316]	; (8001220 <SystemCoreClockSetup+0x1e4>)
 80010e4:	68db      	ldr	r3, [r3, #12]
 80010e6:	4a4e      	ldr	r2, [pc, #312]	; (8001220 <SystemCoreClockSetup+0x1e4>)
 80010e8:	f023 0301 	bic.w	r3, r3, #1
 80010ec:	60d3      	str	r3, [r2, #12]

    /* restart OSC Watchdog */
    SCU_PLL->PLLCON0 &= ~SCU_PLL_PLLCON0_OSCRES_Msk;
 80010ee:	4b4c      	ldr	r3, [pc, #304]	; (8001220 <SystemCoreClockSetup+0x1e4>)
 80010f0:	685b      	ldr	r3, [r3, #4]
 80010f2:	4a4b      	ldr	r2, [pc, #300]	; (8001220 <SystemCoreClockSetup+0x1e4>)
 80010f4:	f423 3300 	bic.w	r3, r3, #131072	; 0x20000
 80010f8:	6053      	str	r3, [r2, #4]

    while ((SCU_PLL->PLLSTAT & SCU_PLL_PLLSTAT_OSC_USABLE) != SCU_PLL_PLLSTAT_OSC_USABLE)
 80010fa:	bf00      	nop
 80010fc:	4b48      	ldr	r3, [pc, #288]	; (8001220 <SystemCoreClockSetup+0x1e4>)
 80010fe:	681b      	ldr	r3, [r3, #0]
 8001100:	f403 7360 	and.w	r3, r3, #896	; 0x380
 8001104:	f5b3 7f60 	cmp.w	r3, #896	; 0x380
 8001108:	d1f8      	bne.n	80010fc <SystemCoreClockSetup+0xc0>
  /* select backup clock as PLL input */
  SCU_PLL->PLLCON2 |= SCU_PLL_PLLCON2_PINSEL_Msk;
#endif

  /* Go to bypass the Main PLL */
  SCU_PLL->PLLCON0 |= SCU_PLL_PLLCON0_VCOBYP_Msk;
 800110a:	4b45      	ldr	r3, [pc, #276]	; (8001220 <SystemCoreClockSetup+0x1e4>)
 800110c:	685b      	ldr	r3, [r3, #4]
 800110e:	4a44      	ldr	r2, [pc, #272]	; (8001220 <SystemCoreClockSetup+0x1e4>)
 8001110:	f043 0301 	orr.w	r3, r3, #1
 8001114:	6053      	str	r3, [r2, #4]

  /* disconnect Oscillator from PLL */
  SCU_PLL->PLLCON0 |= SCU_PLL_PLLCON0_FINDIS_Msk;
 8001116:	4b42      	ldr	r3, [pc, #264]	; (8001220 <SystemCoreClockSetup+0x1e4>)
 8001118:	685b      	ldr	r3, [r3, #4]
 800111a:	4a41      	ldr	r2, [pc, #260]	; (8001220 <SystemCoreClockSetup+0x1e4>)
 800111c:	f043 0310 	orr.w	r3, r3, #16
 8001120:	6053      	str	r3, [r2, #4]

  /* Setup divider settings for main PLL */
  SCU_PLL->PLLCON1 = ((PLL_NDIV << SCU_PLL_PLLCON1_NDIV_Pos) |
 8001122:	4b3f      	ldr	r3, [pc, #252]	; (8001220 <SystemCoreClockSetup+0x1e4>)
 8001124:	4a41      	ldr	r2, [pc, #260]	; (800122c <SystemCoreClockSetup+0x1f0>)
 8001126:	609a      	str	r2, [r3, #8]
                      (PLL_K2DIV_0 << SCU_PLL_PLLCON1_K2DIV_Pos) |
                      (PLL_PDIV << SCU_PLL_PLLCON1_PDIV_Pos));

  /* Set OSCDISCDIS */
  SCU_PLL->PLLCON0 |= SCU_PLL_PLLCON0_OSCDISCDIS_Msk;
 8001128:	4b3d      	ldr	r3, [pc, #244]	; (8001220 <SystemCoreClockSetup+0x1e4>)
 800112a:	685b      	ldr	r3, [r3, #4]
 800112c:	4a3c      	ldr	r2, [pc, #240]	; (8001220 <SystemCoreClockSetup+0x1e4>)
 800112e:	f043 0340 	orr.w	r3, r3, #64	; 0x40
 8001132:	6053      	str	r3, [r2, #4]

  /* connect Oscillator to PLL */
  SCU_PLL->PLLCON0 &= ~SCU_PLL_PLLCON0_FINDIS_Msk;
 8001134:	4b3a      	ldr	r3, [pc, #232]	; (8001220 <SystemCoreClockSetup+0x1e4>)
 8001136:	685b      	ldr	r3, [r3, #4]
 8001138:	4a39      	ldr	r2, [pc, #228]	; (8001220 <SystemCoreClockSetup+0x1e4>)
 800113a:	f023 0310 	bic.w	r3, r3, #16
 800113e:	6053      	str	r3, [r2, #4]

  /* restart PLL Lock detection */
  SCU_PLL->PLLCON0 |= SCU_PLL_PLLCON0_RESLD_Msk;
 8001140:	4b37      	ldr	r3, [pc, #220]	; (8001220 <SystemCoreClockSetup+0x1e4>)
 8001142:	685b      	ldr	r3, [r3, #4]
 8001144:	4a36      	ldr	r2, [pc, #216]	; (8001220 <SystemCoreClockSetup+0x1e4>)
 8001146:	f443 2380 	orr.w	r3, r3, #262144	; 0x40000
 800114a:	6053      	str	r3, [r2, #4]

  while ((SCU_PLL->PLLSTAT & SCU_PLL_PLLSTAT_VCOLOCK_Msk) == 0U)
 800114c:	bf00      	nop
 800114e:	4b34      	ldr	r3, [pc, #208]	; (8001220 <SystemCoreClockSetup+0x1e4>)
 8001150:	681b      	ldr	r3, [r3, #0]
 8001152:	f003 0304 	and.w	r3, r3, #4
 8001156:	2b00      	cmp	r3, #0
 8001158:	d0f9      	beq.n	800114e <SystemCoreClockSetup+0x112>
  {
    /* wait for PLL Lock */
  }

  /* Disable bypass- put PLL clock back */
  SCU_PLL->PLLCON0 &= ~SCU_PLL_PLLCON0_VCOBYP_Msk;
 800115a:	4b31      	ldr	r3, [pc, #196]	; (8001220 <SystemCoreClockSetup+0x1e4>)
 800115c:	685b      	ldr	r3, [r3, #4]
 800115e:	4a30      	ldr	r2, [pc, #192]	; (8001220 <SystemCoreClockSetup+0x1e4>)
 8001160:	f023 0301 	bic.w	r3, r3, #1
 8001164:	6053      	str	r3, [r2, #4]
  while ((SCU_PLL->PLLSTAT & SCU_PLL_PLLSTAT_VCOBYST_Msk) != 0U)
 8001166:	bf00      	nop
 8001168:	4b2d      	ldr	r3, [pc, #180]	; (8001220 <SystemCoreClockSetup+0x1e4>)
 800116a:	681b      	ldr	r3, [r3, #0]
 800116c:	f003 0301 	and.w	r3, r3, #1
 8001170:	2b00      	cmp	r3, #0
 8001172:	d1f9      	bne.n	8001168 <SystemCoreClockSetup+0x12c>
  }
#endif /* ENABLE_PLL */

#if (SYS_CLOCK_SRC == SYS_CLOCK_SRC_PLL)
  /* Switch system clock to PLL */
  SCU_CLK->SYSCLKCR |= SCU_CLK_SYSCLKCR_SYSSEL_Msk;
 8001174:	4b2e      	ldr	r3, [pc, #184]	; (8001230 <SystemCoreClockSetup+0x1f4>)
 8001176:	68db      	ldr	r3, [r3, #12]
 8001178:	4a2d      	ldr	r2, [pc, #180]	; (8001230 <SystemCoreClockSetup+0x1f4>)
 800117a:	f443 3380 	orr.w	r3, r3, #65536	; 0x10000
 800117e:	60d3      	str	r3, [r2, #12]
  /* Switch system clock to backup clock */
  SCU_CLK->SYSCLKCR &= ~SCU_CLK_SYSCLKCR_SYSSEL_Msk;
#endif

  /* Before scaling to final frequency we need to setup the clock dividers */
  SCU_CLK->PBCLKCR = PBCLKDIV;
 8001180:	4b2b      	ldr	r3, [pc, #172]	; (8001230 <SystemCoreClockSetup+0x1f4>)
 8001182:	2200      	movs	r2, #0
 8001184:	615a      	str	r2, [r3, #20]
  SCU_CLK->CPUCLKCR = CPUCLKDIV;
 8001186:	4b2a      	ldr	r3, [pc, #168]	; (8001230 <SystemCoreClockSetup+0x1f4>)
 8001188:	2200      	movs	r2, #0
 800118a:	611a      	str	r2, [r3, #16]
  SCU_CLK->CCUCLKCR = CCUCLKDIV;
 800118c:	4b28      	ldr	r3, [pc, #160]	; (8001230 <SystemCoreClockSetup+0x1f4>)
 800118e:	2200      	movs	r2, #0
 8001190:	621a      	str	r2, [r3, #32]
  SCU_CLK->WDTCLKCR = WDTCLKDIV;
 8001192:	4b27      	ldr	r3, [pc, #156]	; (8001230 <SystemCoreClockSetup+0x1f4>)
 8001194:	2200      	movs	r2, #0
 8001196:	625a      	str	r2, [r3, #36]	; 0x24
  SCU_CLK->EBUCLKCR = EBUCLKDIV;
 8001198:	4b25      	ldr	r3, [pc, #148]	; (8001230 <SystemCoreClockSetup+0x1f4>)
 800119a:	2200      	movs	r2, #0
 800119c:	61da      	str	r2, [r3, #28]
  SCU_CLK->USBCLKCR = USBCLKDIV;
 800119e:	4b24      	ldr	r3, [pc, #144]	; (8001230 <SystemCoreClockSetup+0x1f4>)
 80011a0:	2203      	movs	r2, #3
 80011a2:	619a      	str	r2, [r3, #24]

#if ENABLE_PLL
  /* PLL frequency stepping...*/
  /* Reset OSCDISCDIS */
  SCU_PLL->PLLCON0 &= ~SCU_PLL_PLLCON0_OSCDISCDIS_Msk;
 80011a4:	4b1e      	ldr	r3, [pc, #120]	; (8001220 <SystemCoreClockSetup+0x1e4>)
 80011a6:	685b      	ldr	r3, [r3, #4]
 80011a8:	4a1d      	ldr	r2, [pc, #116]	; (8001220 <SystemCoreClockSetup+0x1e4>)
 80011aa:	f023 0340 	bic.w	r3, r3, #64	; 0x40
 80011ae:	6053      	str	r3, [r2, #4]

  SCU_PLL->PLLCON1 = ((PLL_NDIV << SCU_PLL_PLLCON1_NDIV_Pos) |
 80011b0:	4b1b      	ldr	r3, [pc, #108]	; (8001220 <SystemCoreClockSetup+0x1e4>)
 80011b2:	4a20      	ldr	r2, [pc, #128]	; (8001234 <SystemCoreClockSetup+0x1f8>)
 80011b4:	609a      	str	r2, [r3, #8]
	                    (PLL_K2DIV_1 << SCU_PLL_PLLCON1_K2DIV_Pos) |
	                    (PLL_PDIV << SCU_PLL_PLLCON1_PDIV_Pos));


  delay(DELAY_CNT_50US_60MHZ);
 80011b6:	f640 30b8 	movw	r0, #3000	; 0xbb8
 80011ba:	f7ff fedf 	bl	8000f7c <delay>
  while ((SCU_PLL->PLLSTAT & SCU_PLL_PLLSTAT_VCOLOCK_Msk) == 0U)
 80011be:	bf00      	nop
 80011c0:	4b17      	ldr	r3, [pc, #92]	; (8001220 <SystemCoreClockSetup+0x1e4>)
 80011c2:	681b      	ldr	r3, [r3, #0]
 80011c4:	f003 0304 	and.w	r3, r3, #4
 80011c8:	2b00      	cmp	r3, #0
 80011ca:	d0f9      	beq.n	80011c0 <SystemCoreClockSetup+0x184>
  {
    /* wait for PLL Lock */
  }

  SCU_PLL->PLLCON1 = ((PLL_NDIV << SCU_PLL_PLLCON1_NDIV_Pos) |
 80011cc:	4b14      	ldr	r3, [pc, #80]	; (8001220 <SystemCoreClockSetup+0x1e4>)
 80011ce:	4a1a      	ldr	r2, [pc, #104]	; (8001238 <SystemCoreClockSetup+0x1fc>)
 80011d0:	609a      	str	r2, [r3, #8]
	                    (PLL_K2DIV_2 << SCU_PLL_PLLCON1_K2DIV_Pos) |
	                    (PLL_PDIV << SCU_PLL_PLLCON1_PDIV_Pos));


  delay(DELAY_CNT_50US_90MHZ);
 80011d2:	f241 1094 	movw	r0, #4500	; 0x1194
 80011d6:	f7ff fed1 	bl	8000f7c <delay>
  while ((SCU_PLL->PLLSTAT & SCU_PLL_PLLSTAT_VCOLOCK_Msk) == 0U)
 80011da:	bf00      	nop
 80011dc:	4b10      	ldr	r3, [pc, #64]	; (8001220 <SystemCoreClockSetup+0x1e4>)
 80011de:	681b      	ldr	r3, [r3, #0]
 80011e0:	f003 0304 	and.w	r3, r3, #4
 80011e4:	2b00      	cmp	r3, #0
 80011e6:	d0f9      	beq.n	80011dc <SystemCoreClockSetup+0x1a0>
  {
    /* wait for PLL Lock */
  }

  SCU_PLL->PLLCON1 = ((PLL_NDIV << SCU_PLL_PLLCON1_NDIV_Pos) |
 80011e8:	4b0d      	ldr	r3, [pc, #52]	; (8001220 <SystemCoreClockSetup+0x1e4>)
 80011ea:	4a14      	ldr	r2, [pc, #80]	; (800123c <SystemCoreClockSetup+0x200>)
 80011ec:	609a      	str	r2, [r3, #8]
	                    (PLL_K2DIV << SCU_PLL_PLLCON1_K2DIV_Pos) |
	                    (PLL_PDIV << SCU_PLL_PLLCON1_PDIV_Pos));


  delay(DELAY_CNT_50US_120MHZ);
 80011ee:	f241 7070 	movw	r0, #6000	; 0x1770
 80011f2:	f7ff fec3 	bl	8000f7c <delay>
  while ((SCU_PLL->PLLSTAT & SCU_PLL_PLLSTAT_VCOLOCK_Msk) == 0U)
 80011f6:	bf00      	nop
 80011f8:	4b09      	ldr	r3, [pc, #36]	; (8001220 <SystemCoreClockSetup+0x1e4>)
 80011fa:	681b      	ldr	r3, [r3, #0]
 80011fc:	f003 0304 	and.w	r3, r3, #4
 8001200:	2b00      	cmp	r3, #0
 8001202:	d0f9      	beq.n	80011f8 <SystemCoreClockSetup+0x1bc>
  {
    /* wait for PLL Lock */
  }

  SCU_TRAP->TRAPCLR = SCU_TRAP_TRAPCLR_SOSCWDGT_Msk | SCU_TRAP_TRAPCLR_SVCOLCKT_Msk;
 8001204:	4b0e      	ldr	r3, [pc, #56]	; (8001240 <SystemCoreClockSetup+0x204>)
 8001206:	2205      	movs	r2, #5
 8001208:	60da      	str	r2, [r3, #12]
    /* wait for PLL Lock */
  }
#endif /* (USBCLKDIV & SCU_CLK_USBCLKCR_USBSEL_Msk) */

  /* Enable selected clocks */
  SCU_CLK->CLKSET = ENABLE_SCUCLK;
 800120a:	4b09      	ldr	r3, [pc, #36]	; (8001230 <SystemCoreClockSetup+0x1f4>)
 800120c:	2200      	movs	r2, #0
 800120e:	605a      	str	r2, [r3, #4]
  PORT0->IOCR8 = (PORT0->IOCR8 & ~PORT0_IOCR8_PC8_Msk) | (0x11U << PORT0_IOCR8_PC8_Pos);
#endif

#endif  /* ENABLE_EXTCLK == 1  */

  SystemCoreClockUpdate();
 8001210:	f000 f818 	bl	8001244 <SystemCoreClockUpdate>
}
 8001214:	bf00      	nop
 8001216:	bd80      	pop	{r7, pc}
 8001218:	50004200 	.word	0x50004200
 800121c:	50004400 	.word	0x50004400
 8001220:	50004710 	.word	0x50004710
 8001224:	50004700 	.word	0x50004700
 8001228:	6b5fca6b 	.word	0x6b5fca6b
 800122c:	01134f00 	.word	0x01134f00
 8001230:	50004600 	.word	0x50004600
 8001234:	01074f00 	.word	0x01074f00
 8001238:	01044f00 	.word	0x01044f00
 800123c:	01034f00 	.word	0x01034f00
 8001240:	50004160 	.word	0x50004160

08001244 <SystemCoreClockUpdate>:

__WEAK void SystemCoreClockUpdate(void)
{
 8001244:	b580      	push	{r7, lr}
 8001246:	b084      	sub	sp, #16
 8001248:	af00      	add	r7, sp, #0
  uint32_t pdiv;
  uint32_t ndiv;
  uint32_t kdiv;
  uint32_t temp;

  if (SCU_CLK->SYSCLKCR & SCU_CLK_SYSCLKCR_SYSSEL_Msk)
 800124a:	4b2f      	ldr	r3, [pc, #188]	; (8001308 <SystemCoreClockUpdate+0xc4>)
 800124c:	68db      	ldr	r3, [r3, #12]
 800124e:	f403 3380 	and.w	r3, r3, #65536	; 0x10000
 8001252:	2b00      	cmp	r3, #0
 8001254:	d03e      	beq.n	80012d4 <SystemCoreClockUpdate+0x90>
  {
    /* fPLL is clock source for fSYS */
    if(SCU_PLL->PLLCON2 & SCU_PLL_PLLCON2_PINSEL_Msk)
 8001256:	4b2d      	ldr	r3, [pc, #180]	; (800130c <SystemCoreClockUpdate+0xc8>)
 8001258:	68db      	ldr	r3, [r3, #12]
 800125a:	f003 0301 	and.w	r3, r3, #1
 800125e:	2b00      	cmp	r3, #0
 8001260:	d002      	beq.n	8001268 <SystemCoreClockUpdate+0x24>
    {
      /* PLL input clock is the backup clock (fOFI) */
      temp = OFI_FREQUENCY;
 8001262:	4b2b      	ldr	r3, [pc, #172]	; (8001310 <SystemCoreClockUpdate+0xcc>)
 8001264:	60fb      	str	r3, [r7, #12]
 8001266:	e002      	b.n	800126e <SystemCoreClockUpdate+0x2a>
    }
    else
    {
      /* PLL input clock is the high performance osicllator (fOSCHP) */
      temp = OSCHP_GetFrequency();
 8001268:	f000 f856 	bl	8001318 <OSCHP_GetFrequency>
 800126c:	60f8      	str	r0, [r7, #12]
    }

    /* check if PLL is locked */
    if (SCU_PLL->PLLSTAT & SCU_PLL_PLLSTAT_VCOLOCK_Msk)
 800126e:	4b27      	ldr	r3, [pc, #156]	; (800130c <SystemCoreClockUpdate+0xc8>)
 8001270:	681b      	ldr	r3, [r3, #0]
 8001272:	f003 0304 	and.w	r3, r3, #4
 8001276:	2b00      	cmp	r3, #0
 8001278:	d020      	beq.n	80012bc <SystemCoreClockUpdate+0x78>
    {
      /* PLL normal mode */
      /* read back divider settings */
      pdiv = ((SCU_PLL->PLLCON1 & SCU_PLL_PLLCON1_PDIV_Msk) >> SCU_PLL_PLLCON1_PDIV_Pos) + 1;
 800127a:	4b24      	ldr	r3, [pc, #144]	; (800130c <SystemCoreClockUpdate+0xc8>)
 800127c:	689b      	ldr	r3, [r3, #8]
 800127e:	0e1b      	lsrs	r3, r3, #24
 8001280:	f003 030f 	and.w	r3, r3, #15
 8001284:	3301      	adds	r3, #1
 8001286:	607b      	str	r3, [r7, #4]
      ndiv = ((SCU_PLL->PLLCON1 & SCU_PLL_PLLCON1_NDIV_Msk) >> SCU_PLL_PLLCON1_NDIV_Pos) + 1;
 8001288:	4b20      	ldr	r3, [pc, #128]	; (800130c <SystemCoreClockUpdate+0xc8>)
 800128a:	689b      	ldr	r3, [r3, #8]
 800128c:	0a1b      	lsrs	r3, r3, #8
 800128e:	f003 037f 	and.w	r3, r3, #127	; 0x7f
 8001292:	3301      	adds	r3, #1
 8001294:	603b      	str	r3, [r7, #0]
      kdiv = ((SCU_PLL->PLLCON1 & SCU_PLL_PLLCON1_K2DIV_Msk) >> SCU_PLL_PLLCON1_K2DIV_Pos) + 1;
 8001296:	4b1d      	ldr	r3, [pc, #116]	; (800130c <SystemCoreClockUpdate+0xc8>)
 8001298:	689b      	ldr	r3, [r3, #8]
 800129a:	0c1b      	lsrs	r3, r3, #16
 800129c:	f003 037f 	and.w	r3, r3, #127	; 0x7f
 80012a0:	3301      	adds	r3, #1
 80012a2:	60bb      	str	r3, [r7, #8]

      temp = (temp / (pdiv * kdiv)) * ndiv;
 80012a4:	687b      	ldr	r3, [r7, #4]
 80012a6:	68ba      	ldr	r2, [r7, #8]
 80012a8:	fb02 f303 	mul.w	r3, r2, r3
 80012ac:	68fa      	ldr	r2, [r7, #12]
 80012ae:	fbb2 f2f3 	udiv	r2, r2, r3
 80012b2:	683b      	ldr	r3, [r7, #0]
 80012b4:	fb02 f303 	mul.w	r3, r2, r3
 80012b8:	60fb      	str	r3, [r7, #12]
 80012ba:	e00d      	b.n	80012d8 <SystemCoreClockUpdate+0x94>
    }
    else
    {
      /* PLL prescalar mode */
      /* read back divider settings */
      kdiv  = ((SCU_PLL->PLLCON1 & SCU_PLL_PLLCON1_K1DIV_Msk) >> SCU_PLL_PLLCON1_K1DIV_Pos) + 1;
 80012bc:	4b13      	ldr	r3, [pc, #76]	; (800130c <SystemCoreClockUpdate+0xc8>)
 80012be:	689b      	ldr	r3, [r3, #8]
 80012c0:	f003 037f 	and.w	r3, r3, #127	; 0x7f
 80012c4:	3301      	adds	r3, #1
 80012c6:	60bb      	str	r3, [r7, #8]
      
      temp = (temp / kdiv);
 80012c8:	68fa      	ldr	r2, [r7, #12]
 80012ca:	68bb      	ldr	r3, [r7, #8]
 80012cc:	fbb2 f3f3 	udiv	r3, r2, r3
 80012d0:	60fb      	str	r3, [r7, #12]
 80012d2:	e001      	b.n	80012d8 <SystemCoreClockUpdate+0x94>
    }
  }
  else
  {
    /* fOFI is clock source for fSYS */    
    temp = OFI_FREQUENCY;
 80012d4:	4b0e      	ldr	r3, [pc, #56]	; (8001310 <SystemCoreClockUpdate+0xcc>)
 80012d6:	60fb      	str	r3, [r7, #12]
  }

  temp = temp / ((SCU_CLK->SYSCLKCR & SCU_CLK_SYSCLKCR_SYSDIV_Msk) + 1);
 80012d8:	4b0b      	ldr	r3, [pc, #44]	; (8001308 <SystemCoreClockUpdate+0xc4>)
 80012da:	68db      	ldr	r3, [r3, #12]
 80012dc:	b2db      	uxtb	r3, r3
 80012de:	3301      	adds	r3, #1
 80012e0:	68fa      	ldr	r2, [r7, #12]
 80012e2:	fbb2 f3f3 	udiv	r3, r2, r3
 80012e6:	60fb      	str	r3, [r7, #12]
  temp = temp / ((SCU_CLK->CPUCLKCR & SCU_CLK_CPUCLKCR_CPUDIV_Msk) + 1);
 80012e8:	4b07      	ldr	r3, [pc, #28]	; (8001308 <SystemCoreClockUpdate+0xc4>)
 80012ea:	691b      	ldr	r3, [r3, #16]
 80012ec:	f003 0301 	and.w	r3, r3, #1
 80012f0:	3301      	adds	r3, #1
 80012f2:	68fa      	ldr	r2, [r7, #12]
 80012f4:	fbb2 f3f3 	udiv	r3, r2, r3
 80012f8:	60fb      	str	r3, [r7, #12]

  SystemCoreClock = temp;
 80012fa:	4a06      	ldr	r2, [pc, #24]	; (8001314 <SystemCoreClockUpdate+0xd0>)
 80012fc:	68fb      	ldr	r3, [r7, #12]
 80012fe:	6013      	str	r3, [r2, #0]
}
 8001300:	bf00      	nop
 8001302:	3710      	adds	r7, #16
 8001304:	46bd      	mov	sp, r7
 8001306:	bd80      	pop	{r7, pc}
 8001308:	50004600 	.word	0x50004600
 800130c:	50004710 	.word	0x50004710
 8001310:	016e3600 	.word	0x016e3600
 8001314:	2000ffc0 	.word	0x2000ffc0

08001318 <OSCHP_GetFrequency>:

__WEAK uint32_t OSCHP_GetFrequency(void)
{
 8001318:	b480      	push	{r7}
 800131a:	af00      	add	r7, sp, #0
  return OSCHP_FREQUENCY;
 800131c:	4b02      	ldr	r3, [pc, #8]	; (8001328 <OSCHP_GetFrequency+0x10>)
}
 800131e:	4618      	mov	r0, r3
 8001320:	46bd      	mov	sp, r7
 8001322:	f85d 7b04 	ldr.w	r7, [sp], #4
 8001326:	4770      	bx	lr
 8001328:	00b71b00 	.word	0x00b71b00

0800132c <_sbrk>:

// defined in linker script
extern caddr_t Heap_Bank1_Start;
extern caddr_t Heap_Bank1_End;
caddr_t _sbrk(int nbytes)
{
 800132c:	b580      	push	{r7, lr}
 800132e:	b084      	sub	sp, #16
 8001330:	af00      	add	r7, sp, #0
 8001332:	6078      	str	r0, [r7, #4]
  static caddr_t heap_ptr = NULL;
  caddr_t base;

  if (heap_ptr == NULL) {
 8001334:	4b14      	ldr	r3, [pc, #80]	; (8001388 <_sbrk+0x5c>)
 8001336:	681b      	ldr	r3, [r3, #0]
 8001338:	2b00      	cmp	r3, #0
 800133a:	d102      	bne.n	8001342 <_sbrk+0x16>
    heap_ptr = (caddr_t)&Heap_Bank1_Start;
 800133c:	4b12      	ldr	r3, [pc, #72]	; (8001388 <_sbrk+0x5c>)
 800133e:	4a13      	ldr	r2, [pc, #76]	; (800138c <_sbrk+0x60>)
 8001340:	601a      	str	r2, [r3, #0]
  }

  base = heap_ptr;
 8001342:	4b11      	ldr	r3, [pc, #68]	; (8001388 <_sbrk+0x5c>)
 8001344:	681b      	ldr	r3, [r3, #0]
 8001346:	60fb      	str	r3, [r7, #12]

  /* heap word alignment */
  nbytes = (nbytes + 3) & ~0x3U;
 8001348:	687b      	ldr	r3, [r7, #4]
 800134a:	3303      	adds	r3, #3
 800134c:	f023 0303 	bic.w	r3, r3, #3
 8001350:	607b      	str	r3, [r7, #4]
  if ((caddr_t)&Heap_Bank1_End > (heap_ptr + nbytes))
 8001352:	4b0d      	ldr	r3, [pc, #52]	; (8001388 <_sbrk+0x5c>)
 8001354:	681a      	ldr	r2, [r3, #0]
 8001356:	687b      	ldr	r3, [r7, #4]
 8001358:	4413      	add	r3, r2
 800135a:	4a0d      	ldr	r2, [pc, #52]	; (8001390 <_sbrk+0x64>)
 800135c:	4293      	cmp	r3, r2
 800135e:	d207      	bcs.n	8001370 <_sbrk+0x44>
  {
    heap_ptr += nbytes;
 8001360:	4b09      	ldr	r3, [pc, #36]	; (8001388 <_sbrk+0x5c>)
 8001362:	681a      	ldr	r2, [r3, #0]
 8001364:	687b      	ldr	r3, [r7, #4]
 8001366:	4413      	add	r3, r2
 8001368:	4a07      	ldr	r2, [pc, #28]	; (8001388 <_sbrk+0x5c>)
 800136a:	6013      	str	r3, [r2, #0]
    return (base);
 800136c:	68fb      	ldr	r3, [r7, #12]
 800136e:	e006      	b.n	800137e <_sbrk+0x52>
  }
  else
  {
    /* Heap overflow */
    errno = ENOMEM;
 8001370:	f000 ffc4 	bl	80022fc <__errno>
 8001374:	4602      	mov	r2, r0
 8001376:	230c      	movs	r3, #12
 8001378:	6013      	str	r3, [r2, #0]
    return ((caddr_t)-1);
 800137a:	f04f 33ff 	mov.w	r3, #4294967295	; 0xffffffff
  }
}
 800137e:	4618      	mov	r0, r3
 8001380:	3710      	adds	r7, #16
 8001382:	46bd      	mov	sp, r7
 8001384:	bd80      	pop	{r7, pc}
 8001386:	bf00      	nop
 8001388:	200009dc 	.word	0x200009dc
 800138c:	20000a48 	.word	0x20000a48
 8001390:	2000ffc0 	.word	0x2000ffc0

08001394 <_init>:

/* Init */
void _init(void)
{}
 8001394:	b480      	push	{r7}
 8001396:	af00      	add	r7, sp, #0
 8001398:	bf00      	nop
 800139a:	46bd      	mov	sp, r7
 800139c:	f85d 7b04 	ldr.w	r7, [sp], #4
 80013a0:	4770      	bx	lr
	...

080013a4 <log10>:
 80013a4:	e92d 43f0 	stmdb	sp!, {r4, r5, r6, r7, r8, r9, lr}
 80013a8:	b08b      	sub	sp, #44	; 0x2c
 80013aa:	4604      	mov	r4, r0
 80013ac:	460d      	mov	r5, r1
 80013ae:	f000 f877 	bl	80014a0 <__ieee754_log10>
 80013b2:	4b36      	ldr	r3, [pc, #216]	; (800148c <log10+0xe8>)
 80013b4:	f993 6000 	ldrsb.w	r6, [r3]
 80013b8:	1c73      	adds	r3, r6, #1
 80013ba:	4680      	mov	r8, r0
 80013bc:	4689      	mov	r9, r1
 80013be:	d00e      	beq.n	80013de <log10+0x3a>
 80013c0:	4622      	mov	r2, r4
 80013c2:	462b      	mov	r3, r5
 80013c4:	4620      	mov	r0, r4
 80013c6:	4629      	mov	r1, r5
 80013c8:	f000 ff1e 	bl	8002208 <__aeabi_dcmpun>
 80013cc:	4607      	mov	r7, r0
 80013ce:	b930      	cbnz	r0, 80013de <log10+0x3a>
 80013d0:	2200      	movs	r2, #0
 80013d2:	2300      	movs	r3, #0
 80013d4:	4620      	mov	r0, r4
 80013d6:	4629      	mov	r1, r5
 80013d8:	f000 fef8 	bl	80021cc <__aeabi_dcmple>
 80013dc:	b920      	cbnz	r0, 80013e8 <log10+0x44>
 80013de:	4640      	mov	r0, r8
 80013e0:	4649      	mov	r1, r9
 80013e2:	b00b      	add	sp, #44	; 0x2c
 80013e4:	e8bd 83f0 	ldmia.w	sp!, {r4, r5, r6, r7, r8, r9, pc}
 80013e8:	4b29      	ldr	r3, [pc, #164]	; (8001490 <log10+0xec>)
 80013ea:	9708      	str	r7, [sp, #32]
 80013ec:	e9cd 4502 	strd	r4, r5, [sp, #8]
 80013f0:	e9cd 4504 	strd	r4, r5, [sp, #16]
 80013f4:	9301      	str	r3, [sp, #4]
 80013f6:	4620      	mov	r0, r4
 80013f8:	4629      	mov	r1, r5
 80013fa:	b9ce      	cbnz	r6, 8001430 <log10+0x8c>
 80013fc:	4d25      	ldr	r5, [pc, #148]	; (8001494 <log10+0xf0>)
 80013fe:	f04f 4460 	mov.w	r4, #3758096384	; 0xe0000000
 8001402:	2200      	movs	r2, #0
 8001404:	2300      	movs	r3, #0
 8001406:	e9cd 4506 	strd	r4, r5, [sp, #24]
 800140a:	f000 fecb 	bl	80021a4 <__aeabi_dcmpeq>
 800140e:	2800      	cmp	r0, #0
 8001410:	d033      	beq.n	800147a <log10+0xd6>
 8001412:	2302      	movs	r3, #2
 8001414:	9300      	str	r3, [sp, #0]
 8001416:	4668      	mov	r0, sp
 8001418:	f000 f8cc 	bl	80015b4 <matherr>
 800141c:	b1a8      	cbz	r0, 800144a <log10+0xa6>
 800141e:	9b08      	ldr	r3, [sp, #32]
 8001420:	b9c3      	cbnz	r3, 8001454 <log10+0xb0>
 8001422:	e9dd 8906 	ldrd	r8, r9, [sp, #24]
 8001426:	4640      	mov	r0, r8
 8001428:	4649      	mov	r1, r9
 800142a:	b00b      	add	sp, #44	; 0x2c
 800142c:	e8bd 83f0 	ldmia.w	sp!, {r4, r5, r6, r7, r8, r9, pc}
 8001430:	4b19      	ldr	r3, [pc, #100]	; (8001498 <log10+0xf4>)
 8001432:	2200      	movs	r2, #0
 8001434:	e9cd 2306 	strd	r2, r3, [sp, #24]
 8001438:	2200      	movs	r2, #0
 800143a:	2300      	movs	r3, #0
 800143c:	f000 feb2 	bl	80021a4 <__aeabi_dcmpeq>
 8001440:	b168      	cbz	r0, 800145e <log10+0xba>
 8001442:	2302      	movs	r3, #2
 8001444:	429e      	cmp	r6, r3
 8001446:	9300      	str	r3, [sp, #0]
 8001448:	d1e5      	bne.n	8001416 <log10+0x72>
 800144a:	f000 ff57 	bl	80022fc <__errno>
 800144e:	2322      	movs	r3, #34	; 0x22
 8001450:	6003      	str	r3, [r0, #0]
 8001452:	e7e4      	b.n	800141e <log10+0x7a>
 8001454:	f000 ff52 	bl	80022fc <__errno>
 8001458:	9b08      	ldr	r3, [sp, #32]
 800145a:	6003      	str	r3, [r0, #0]
 800145c:	e7e1      	b.n	8001422 <log10+0x7e>
 800145e:	2301      	movs	r3, #1
 8001460:	2e02      	cmp	r6, #2
 8001462:	9300      	str	r3, [sp, #0]
 8001464:	d10b      	bne.n	800147e <log10+0xda>
 8001466:	f000 ff49 	bl	80022fc <__errno>
 800146a:	2321      	movs	r3, #33	; 0x21
 800146c:	6003      	str	r3, [r0, #0]
 800146e:	480b      	ldr	r0, [pc, #44]	; (800149c <log10+0xf8>)
 8001470:	f000 f8a2 	bl	80015b8 <nan>
 8001474:	e9cd 0106 	strd	r0, r1, [sp, #24]
 8001478:	e7d1      	b.n	800141e <log10+0x7a>
 800147a:	2301      	movs	r3, #1
 800147c:	9300      	str	r3, [sp, #0]
 800147e:	4668      	mov	r0, sp
 8001480:	f000 f898 	bl	80015b4 <matherr>
 8001484:	2800      	cmp	r0, #0
 8001486:	d1f2      	bne.n	800146e <log10+0xca>
 8001488:	e7ed      	b.n	8001466 <log10+0xc2>
 800148a:	bf00      	nop
 800148c:	20000000 	.word	0x20000000
 8001490:	08007bcc 	.word	0x08007bcc
 8001494:	c7efffff 	.word	0xc7efffff
 8001498:	fff00000 	.word	0xfff00000
 800149c:	08007c0c 	.word	0x08007c0c

080014a0 <__ieee754_log10>:
 80014a0:	f5b1 1f80 	cmp.w	r1, #1048576	; 0x100000
 80014a4:	e92d 43f8 	stmdb	sp!, {r3, r4, r5, r6, r7, r8, r9, lr}
 80014a8:	4604      	mov	r4, r0
 80014aa:	460d      	mov	r5, r1
 80014ac:	460b      	mov	r3, r1
 80014ae:	da19      	bge.n	80014e4 <__ieee754_log10+0x44>
 80014b0:	f021 4200 	bic.w	r2, r1, #2147483648	; 0x80000000
 80014b4:	4302      	orrs	r2, r0
 80014b6:	d059      	beq.n	800156c <__ieee754_log10+0xcc>
 80014b8:	2900      	cmp	r1, #0
 80014ba:	db5f      	blt.n	800157c <__ieee754_log10+0xdc>
 80014bc:	2200      	movs	r2, #0
 80014be:	4b3a      	ldr	r3, [pc, #232]	; (80015a8 <__ieee754_log10+0x108>)
 80014c0:	f000 fc08 	bl	8001cd4 <__aeabi_dmul>
 80014c4:	4a39      	ldr	r2, [pc, #228]	; (80015ac <__ieee754_log10+0x10c>)
 80014c6:	460b      	mov	r3, r1
 80014c8:	4293      	cmp	r3, r2
 80014ca:	460d      	mov	r5, r1
 80014cc:	4604      	mov	r4, r0
 80014ce:	f06f 0135 	mvn.w	r1, #53	; 0x35
 80014d2:	dd0c      	ble.n	80014ee <__ieee754_log10+0x4e>
 80014d4:	4622      	mov	r2, r4
 80014d6:	462b      	mov	r3, r5
 80014d8:	4620      	mov	r0, r4
 80014da:	4629      	mov	r1, r5
 80014dc:	f000 fa44 	bl	8001968 <__adddf3>
 80014e0:	e8bd 83f8 	ldmia.w	sp!, {r3, r4, r5, r6, r7, r8, r9, pc}
 80014e4:	4a31      	ldr	r2, [pc, #196]	; (80015ac <__ieee754_log10+0x10c>)
 80014e6:	4293      	cmp	r3, r2
 80014e8:	f04f 0100 	mov.w	r1, #0
 80014ec:	dcf2      	bgt.n	80014d4 <__ieee754_log10+0x34>
 80014ee:	1518      	asrs	r0, r3, #20
 80014f0:	f2a0 30ff 	subw	r0, r0, #1023	; 0x3ff
 80014f4:	4408      	add	r0, r1
 80014f6:	ea4f 79d0 	mov.w	r9, r0, lsr #31
 80014fa:	4448      	add	r0, r9
 80014fc:	f3c3 0813 	ubfx	r8, r3, #0, #20
 8001500:	f000 fb7e 	bl	8001c00 <__aeabi_i2d>
 8001504:	f5c9 737f 	rsb	r3, r9, #1020	; 0x3fc
 8001508:	3303      	adds	r3, #3
 800150a:	ea48 5503 	orr.w	r5, r8, r3, lsl #20
 800150e:	4606      	mov	r6, r0
 8001510:	460f      	mov	r7, r1
 8001512:	4620      	mov	r0, r4
 8001514:	4629      	mov	r1, r5
 8001516:	f000 f857 	bl	80015c8 <__ieee754_log>
 800151a:	a31d      	add	r3, pc, #116	; (adr r3, 8001590 <__ieee754_log10+0xf0>)
 800151c:	e9d3 2300 	ldrd	r2, r3, [r3]
 8001520:	4680      	mov	r8, r0
 8001522:	4689      	mov	r9, r1
 8001524:	4630      	mov	r0, r6
 8001526:	4639      	mov	r1, r7
 8001528:	f000 fbd4 	bl	8001cd4 <__aeabi_dmul>
 800152c:	a31a      	add	r3, pc, #104	; (adr r3, 8001598 <__ieee754_log10+0xf8>)
 800152e:	e9d3 2300 	ldrd	r2, r3, [r3]
 8001532:	4604      	mov	r4, r0
 8001534:	460d      	mov	r5, r1
 8001536:	4640      	mov	r0, r8
 8001538:	4649      	mov	r1, r9
 800153a:	f000 fbcb 	bl	8001cd4 <__aeabi_dmul>
 800153e:	4602      	mov	r2, r0
 8001540:	460b      	mov	r3, r1
 8001542:	4620      	mov	r0, r4
 8001544:	4629      	mov	r1, r5
 8001546:	f000 fa0f 	bl	8001968 <__adddf3>
 800154a:	a315      	add	r3, pc, #84	; (adr r3, 80015a0 <__ieee754_log10+0x100>)
 800154c:	e9d3 2300 	ldrd	r2, r3, [r3]
 8001550:	4604      	mov	r4, r0
 8001552:	460d      	mov	r5, r1
 8001554:	4630      	mov	r0, r6
 8001556:	4639      	mov	r1, r7
 8001558:	f000 fbbc 	bl	8001cd4 <__aeabi_dmul>
 800155c:	4602      	mov	r2, r0
 800155e:	460b      	mov	r3, r1
 8001560:	4620      	mov	r0, r4
 8001562:	4629      	mov	r1, r5
 8001564:	f000 fa00 	bl	8001968 <__adddf3>
 8001568:	e8bd 83f8 	ldmia.w	sp!, {r3, r4, r5, r6, r7, r8, r9, pc}
 800156c:	2200      	movs	r2, #0
 800156e:	2300      	movs	r3, #0
 8001570:	2000      	movs	r0, #0
 8001572:	490f      	ldr	r1, [pc, #60]	; (80015b0 <__ieee754_log10+0x110>)
 8001574:	f000 fcd8 	bl	8001f28 <__aeabi_ddiv>
 8001578:	e8bd 83f8 	ldmia.w	sp!, {r3, r4, r5, r6, r7, r8, r9, pc}
 800157c:	4602      	mov	r2, r0
 800157e:	f000 f9f1 	bl	8001964 <__aeabi_dsub>
 8001582:	2200      	movs	r2, #0
 8001584:	2300      	movs	r3, #0
 8001586:	f000 fccf 	bl	8001f28 <__aeabi_ddiv>
 800158a:	e7a9      	b.n	80014e0 <__ieee754_log10+0x40>
 800158c:	f3af 8000 	nop.w
 8001590:	11f12b36 	.word	0x11f12b36
 8001594:	3d59fef3 	.word	0x3d59fef3
 8001598:	1526e50e 	.word	0x1526e50e
 800159c:	3fdbcb7b 	.word	0x3fdbcb7b
 80015a0:	509f6000 	.word	0x509f6000
 80015a4:	3fd34413 	.word	0x3fd34413
 80015a8:	43500000 	.word	0x43500000
 80015ac:	7fefffff 	.word	0x7fefffff
 80015b0:	c3500000 	.word	0xc3500000

080015b4 <matherr>:
 80015b4:	2000      	movs	r0, #0
 80015b6:	4770      	bx	lr

080015b8 <nan>:
 80015b8:	2000      	movs	r0, #0
 80015ba:	4901      	ldr	r1, [pc, #4]	; (80015c0 <nan+0x8>)
 80015bc:	4770      	bx	lr
 80015be:	bf00      	nop
 80015c0:	7ff80000 	.word	0x7ff80000
 80015c4:	00000000 	.word	0x00000000

080015c8 <__ieee754_log>:
 80015c8:	e92d 4ff0 	stmdb	sp!, {r4, r5, r6, r7, r8, r9, sl, fp, lr}
 80015cc:	f5b1 1f80 	cmp.w	r1, #1048576	; 0x100000
 80015d0:	b085      	sub	sp, #20
 80015d2:	4606      	mov	r6, r0
 80015d4:	460f      	mov	r7, r1
 80015d6:	460b      	mov	r3, r1
 80015d8:	f280 80d0 	bge.w	800177c <__ieee754_log+0x1b4>
 80015dc:	f021 4200 	bic.w	r2, r1, #2147483648	; 0x80000000
 80015e0:	4302      	orrs	r2, r0
 80015e2:	f000 80da 	beq.w	800179a <__ieee754_log+0x1d2>
 80015e6:	2900      	cmp	r1, #0
 80015e8:	f2c0 80e9 	blt.w	80017be <__ieee754_log+0x1f6>
 80015ec:	2200      	movs	r2, #0
 80015ee:	4bd6      	ldr	r3, [pc, #856]	; (8001948 <__ieee754_log+0x380>)
 80015f0:	f000 fb70 	bl	8001cd4 <__aeabi_dmul>
 80015f4:	4ad5      	ldr	r2, [pc, #852]	; (800194c <__ieee754_log+0x384>)
 80015f6:	460b      	mov	r3, r1
 80015f8:	4293      	cmp	r3, r2
 80015fa:	4606      	mov	r6, r0
 80015fc:	460f      	mov	r7, r1
 80015fe:	f06f 0e35 	mvn.w	lr, #53	; 0x35
 8001602:	f300 80c1 	bgt.w	8001788 <__ieee754_log+0x1c0>
 8001606:	f3c3 0513 	ubfx	r5, r3, #0, #20
 800160a:	f505 2c15 	add.w	ip, r5, #610304	; 0x95000
 800160e:	f60c 7c64 	addw	ip, ip, #3940	; 0xf64
 8001612:	f40c 1c80 	and.w	ip, ip, #1048576	; 0x100000
 8001616:	f08c 527f 	eor.w	r2, ip, #1069547520	; 0x3fc00000
 800161a:	f482 1240 	eor.w	r2, r2, #3145728	; 0x300000
 800161e:	151c      	asrs	r4, r3, #20
 8001620:	ea42 0705 	orr.w	r7, r2, r5
 8001624:	f2a4 34ff 	subw	r4, r4, #1023	; 0x3ff
 8001628:	4474      	add	r4, lr
 800162a:	2200      	movs	r2, #0
 800162c:	4bc8      	ldr	r3, [pc, #800]	; (8001950 <__ieee754_log+0x388>)
 800162e:	4630      	mov	r0, r6
 8001630:	4639      	mov	r1, r7
 8001632:	eb04 541c 	add.w	r4, r4, ip, lsr #20
 8001636:	f000 f995 	bl	8001964 <__aeabi_dsub>
 800163a:	1cab      	adds	r3, r5, #2
 800163c:	f3c3 0313 	ubfx	r3, r3, #0, #20
 8001640:	2b02      	cmp	r3, #2
 8001642:	4682      	mov	sl, r0
 8001644:	468b      	mov	fp, r1
 8001646:	f04f 0200 	mov.w	r2, #0
 800164a:	f340 80af 	ble.w	80017ac <__ieee754_log+0x1e4>
 800164e:	f04f 4380 	mov.w	r3, #1073741824	; 0x40000000
 8001652:	f000 f989 	bl	8001968 <__adddf3>
 8001656:	4602      	mov	r2, r0
 8001658:	460b      	mov	r3, r1
 800165a:	4650      	mov	r0, sl
 800165c:	4659      	mov	r1, fp
 800165e:	f000 fc63 	bl	8001f28 <__aeabi_ddiv>
 8001662:	4606      	mov	r6, r0
 8001664:	4620      	mov	r0, r4
 8001666:	460f      	mov	r7, r1
 8001668:	f000 faca 	bl	8001c00 <__aeabi_i2d>
 800166c:	4632      	mov	r2, r6
 800166e:	e9cd 0102 	strd	r0, r1, [sp, #8]
 8001672:	463b      	mov	r3, r7
 8001674:	4630      	mov	r0, r6
 8001676:	4639      	mov	r1, r7
 8001678:	e9cd 6700 	strd	r6, r7, [sp]
 800167c:	f000 fb2a 	bl	8001cd4 <__aeabi_dmul>
 8001680:	4602      	mov	r2, r0
 8001682:	460b      	mov	r3, r1
 8001684:	4680      	mov	r8, r0
 8001686:	4689      	mov	r9, r1
 8001688:	f000 fb24 	bl	8001cd4 <__aeabi_dmul>
 800168c:	a39a      	add	r3, pc, #616	; (adr r3, 80018f8 <__ieee754_log+0x330>)
 800168e:	e9d3 2300 	ldrd	r2, r3, [r3]
 8001692:	4606      	mov	r6, r0
 8001694:	460f      	mov	r7, r1
 8001696:	f000 fb1d 	bl	8001cd4 <__aeabi_dmul>
 800169a:	a399      	add	r3, pc, #612	; (adr r3, 8001900 <__ieee754_log+0x338>)
 800169c:	e9d3 2300 	ldrd	r2, r3, [r3]
 80016a0:	f000 f962 	bl	8001968 <__adddf3>
 80016a4:	4632      	mov	r2, r6
 80016a6:	463b      	mov	r3, r7
 80016a8:	f000 fb14 	bl	8001cd4 <__aeabi_dmul>
 80016ac:	a396      	add	r3, pc, #600	; (adr r3, 8001908 <__ieee754_log+0x340>)
 80016ae:	e9d3 2300 	ldrd	r2, r3, [r3]
 80016b2:	f000 f959 	bl	8001968 <__adddf3>
 80016b6:	4632      	mov	r2, r6
 80016b8:	463b      	mov	r3, r7
 80016ba:	f000 fb0b 	bl	8001cd4 <__aeabi_dmul>
 80016be:	a394      	add	r3, pc, #592	; (adr r3, 8001910 <__ieee754_log+0x348>)
 80016c0:	e9d3 2300 	ldrd	r2, r3, [r3]
 80016c4:	f000 f950 	bl	8001968 <__adddf3>
 80016c8:	4642      	mov	r2, r8
 80016ca:	464b      	mov	r3, r9
 80016cc:	f000 fb02 	bl	8001cd4 <__aeabi_dmul>
 80016d0:	a391      	add	r3, pc, #580	; (adr r3, 8001918 <__ieee754_log+0x350>)
 80016d2:	e9d3 2300 	ldrd	r2, r3, [r3]
 80016d6:	4680      	mov	r8, r0
 80016d8:	4689      	mov	r9, r1
 80016da:	4630      	mov	r0, r6
 80016dc:	4639      	mov	r1, r7
 80016de:	f000 faf9 	bl	8001cd4 <__aeabi_dmul>
 80016e2:	a38f      	add	r3, pc, #572	; (adr r3, 8001920 <__ieee754_log+0x358>)
 80016e4:	e9d3 2300 	ldrd	r2, r3, [r3]
 80016e8:	f000 f93e 	bl	8001968 <__adddf3>
 80016ec:	4632      	mov	r2, r6
 80016ee:	463b      	mov	r3, r7
 80016f0:	f000 faf0 	bl	8001cd4 <__aeabi_dmul>
 80016f4:	a38c      	add	r3, pc, #560	; (adr r3, 8001928 <__ieee754_log+0x360>)
 80016f6:	e9d3 2300 	ldrd	r2, r3, [r3]
 80016fa:	f000 f935 	bl	8001968 <__adddf3>
 80016fe:	4632      	mov	r2, r6
 8001700:	463b      	mov	r3, r7
 8001702:	f000 fae7 	bl	8001cd4 <__aeabi_dmul>
 8001706:	460b      	mov	r3, r1
 8001708:	4602      	mov	r2, r0
 800170a:	4649      	mov	r1, r9
 800170c:	4640      	mov	r0, r8
 800170e:	f000 f92b 	bl	8001968 <__adddf3>
 8001712:	f5a5 23c2 	sub.w	r3, r5, #397312	; 0x61000
 8001716:	f5c5 25d7 	rsb	r5, r5, #440320	; 0x6b800
 800171a:	f2a3 437a 	subw	r3, r3, #1146	; 0x47a
 800171e:	3551      	adds	r5, #81	; 0x51
 8001720:	431d      	orrs	r5, r3
 8001722:	2d00      	cmp	r5, #0
 8001724:	4606      	mov	r6, r0
 8001726:	460f      	mov	r7, r1
 8001728:	f340 8087 	ble.w	800183a <__ieee754_log+0x272>
 800172c:	2200      	movs	r2, #0
 800172e:	4b89      	ldr	r3, [pc, #548]	; (8001954 <__ieee754_log+0x38c>)
 8001730:	4650      	mov	r0, sl
 8001732:	4659      	mov	r1, fp
 8001734:	f000 face 	bl	8001cd4 <__aeabi_dmul>
 8001738:	4652      	mov	r2, sl
 800173a:	465b      	mov	r3, fp
 800173c:	f000 faca 	bl	8001cd4 <__aeabi_dmul>
 8001740:	4602      	mov	r2, r0
 8001742:	460b      	mov	r3, r1
 8001744:	4680      	mov	r8, r0
 8001746:	4689      	mov	r9, r1
 8001748:	4630      	mov	r0, r6
 800174a:	4639      	mov	r1, r7
 800174c:	f000 f90c 	bl	8001968 <__adddf3>
 8001750:	e9dd 2300 	ldrd	r2, r3, [sp]
 8001754:	f000 fabe 	bl	8001cd4 <__aeabi_dmul>
 8001758:	4606      	mov	r6, r0
 800175a:	460f      	mov	r7, r1
 800175c:	2c00      	cmp	r4, #0
 800175e:	f040 8081 	bne.w	8001864 <__ieee754_log+0x29c>
 8001762:	4602      	mov	r2, r0
 8001764:	460b      	mov	r3, r1
 8001766:	4640      	mov	r0, r8
 8001768:	4649      	mov	r1, r9
 800176a:	f000 f8fb 	bl	8001964 <__aeabi_dsub>
 800176e:	4602      	mov	r2, r0
 8001770:	460b      	mov	r3, r1
 8001772:	4650      	mov	r0, sl
 8001774:	4659      	mov	r1, fp
 8001776:	f000 f8f5 	bl	8001964 <__aeabi_dsub>
 800177a:	e00b      	b.n	8001794 <__ieee754_log+0x1cc>
 800177c:	4a73      	ldr	r2, [pc, #460]	; (800194c <__ieee754_log+0x384>)
 800177e:	4293      	cmp	r3, r2
 8001780:	f04f 0e00 	mov.w	lr, #0
 8001784:	f77f af3f 	ble.w	8001606 <__ieee754_log+0x3e>
 8001788:	4632      	mov	r2, r6
 800178a:	463b      	mov	r3, r7
 800178c:	4630      	mov	r0, r6
 800178e:	4639      	mov	r1, r7
 8001790:	f000 f8ea 	bl	8001968 <__adddf3>
 8001794:	b005      	add	sp, #20
 8001796:	e8bd 8ff0 	ldmia.w	sp!, {r4, r5, r6, r7, r8, r9, sl, fp, pc}
 800179a:	2200      	movs	r2, #0
 800179c:	2300      	movs	r3, #0
 800179e:	2000      	movs	r0, #0
 80017a0:	496d      	ldr	r1, [pc, #436]	; (8001958 <__ieee754_log+0x390>)
 80017a2:	f000 fbc1 	bl	8001f28 <__aeabi_ddiv>
 80017a6:	b005      	add	sp, #20
 80017a8:	e8bd 8ff0 	ldmia.w	sp!, {r4, r5, r6, r7, r8, r9, sl, fp, pc}
 80017ac:	2300      	movs	r3, #0
 80017ae:	f000 fcf9 	bl	80021a4 <__aeabi_dcmpeq>
 80017b2:	b160      	cbz	r0, 80017ce <__ieee754_log+0x206>
 80017b4:	2c00      	cmp	r4, #0
 80017b6:	d17c      	bne.n	80018b2 <__ieee754_log+0x2ea>
 80017b8:	2000      	movs	r0, #0
 80017ba:	2100      	movs	r1, #0
 80017bc:	e7ea      	b.n	8001794 <__ieee754_log+0x1cc>
 80017be:	4602      	mov	r2, r0
 80017c0:	f000 f8d0 	bl	8001964 <__aeabi_dsub>
 80017c4:	2200      	movs	r2, #0
 80017c6:	2300      	movs	r3, #0
 80017c8:	f000 fbae 	bl	8001f28 <__aeabi_ddiv>
 80017cc:	e7e2      	b.n	8001794 <__ieee754_log+0x1cc>
 80017ce:	a358      	add	r3, pc, #352	; (adr r3, 8001930 <__ieee754_log+0x368>)
 80017d0:	e9d3 2300 	ldrd	r2, r3, [r3]
 80017d4:	4650      	mov	r0, sl
 80017d6:	4659      	mov	r1, fp
 80017d8:	f000 fa7c 	bl	8001cd4 <__aeabi_dmul>
 80017dc:	4602      	mov	r2, r0
 80017de:	460b      	mov	r3, r1
 80017e0:	2000      	movs	r0, #0
 80017e2:	495c      	ldr	r1, [pc, #368]	; (8001954 <__ieee754_log+0x38c>)
 80017e4:	f000 f8be 	bl	8001964 <__aeabi_dsub>
 80017e8:	4652      	mov	r2, sl
 80017ea:	4606      	mov	r6, r0
 80017ec:	460f      	mov	r7, r1
 80017ee:	465b      	mov	r3, fp
 80017f0:	4650      	mov	r0, sl
 80017f2:	4659      	mov	r1, fp
 80017f4:	f000 fa6e 	bl	8001cd4 <__aeabi_dmul>
 80017f8:	4602      	mov	r2, r0
 80017fa:	460b      	mov	r3, r1
 80017fc:	4630      	mov	r0, r6
 80017fe:	4639      	mov	r1, r7
 8001800:	f000 fa68 	bl	8001cd4 <__aeabi_dmul>
 8001804:	4606      	mov	r6, r0
 8001806:	460f      	mov	r7, r1
 8001808:	b32c      	cbz	r4, 8001856 <__ieee754_log+0x28e>
 800180a:	4620      	mov	r0, r4
 800180c:	f000 f9f8 	bl	8001c00 <__aeabi_i2d>
 8001810:	a349      	add	r3, pc, #292	; (adr r3, 8001938 <__ieee754_log+0x370>)
 8001812:	e9d3 2300 	ldrd	r2, r3, [r3]
 8001816:	4680      	mov	r8, r0
 8001818:	4689      	mov	r9, r1
 800181a:	f000 fa5b 	bl	8001cd4 <__aeabi_dmul>
 800181e:	a348      	add	r3, pc, #288	; (adr r3, 8001940 <__ieee754_log+0x378>)
 8001820:	e9d3 2300 	ldrd	r2, r3, [r3]
 8001824:	4604      	mov	r4, r0
 8001826:	460d      	mov	r5, r1
 8001828:	4640      	mov	r0, r8
 800182a:	4649      	mov	r1, r9
 800182c:	f000 fa52 	bl	8001cd4 <__aeabi_dmul>
 8001830:	4602      	mov	r2, r0
 8001832:	460b      	mov	r3, r1
 8001834:	4630      	mov	r0, r6
 8001836:	4639      	mov	r1, r7
 8001838:	e02c      	b.n	8001894 <__ieee754_log+0x2cc>
 800183a:	4602      	mov	r2, r0
 800183c:	460b      	mov	r3, r1
 800183e:	4650      	mov	r0, sl
 8001840:	4659      	mov	r1, fp
 8001842:	f000 f88f 	bl	8001964 <__aeabi_dsub>
 8001846:	e9dd 2300 	ldrd	r2, r3, [sp]
 800184a:	f000 fa43 	bl	8001cd4 <__aeabi_dmul>
 800184e:	4606      	mov	r6, r0
 8001850:	460f      	mov	r7, r1
 8001852:	2c00      	cmp	r4, #0
 8001854:	d147      	bne.n	80018e6 <__ieee754_log+0x31e>
 8001856:	4632      	mov	r2, r6
 8001858:	463b      	mov	r3, r7
 800185a:	4650      	mov	r0, sl
 800185c:	4659      	mov	r1, fp
 800185e:	f000 f881 	bl	8001964 <__aeabi_dsub>
 8001862:	e797      	b.n	8001794 <__ieee754_log+0x1cc>
 8001864:	a334      	add	r3, pc, #208	; (adr r3, 8001938 <__ieee754_log+0x370>)
 8001866:	e9d3 2300 	ldrd	r2, r3, [r3]
 800186a:	e9dd 0102 	ldrd	r0, r1, [sp, #8]
 800186e:	f000 fa31 	bl	8001cd4 <__aeabi_dmul>
 8001872:	a333      	add	r3, pc, #204	; (adr r3, 8001940 <__ieee754_log+0x378>)
 8001874:	e9d3 2300 	ldrd	r2, r3, [r3]
 8001878:	4604      	mov	r4, r0
 800187a:	460d      	mov	r5, r1
 800187c:	e9dd 0102 	ldrd	r0, r1, [sp, #8]
 8001880:	f000 fa28 	bl	8001cd4 <__aeabi_dmul>
 8001884:	4632      	mov	r2, r6
 8001886:	463b      	mov	r3, r7
 8001888:	f000 f86e 	bl	8001968 <__adddf3>
 800188c:	4602      	mov	r2, r0
 800188e:	460b      	mov	r3, r1
 8001890:	4640      	mov	r0, r8
 8001892:	4649      	mov	r1, r9
 8001894:	f000 f866 	bl	8001964 <__aeabi_dsub>
 8001898:	4652      	mov	r2, sl
 800189a:	465b      	mov	r3, fp
 800189c:	f000 f862 	bl	8001964 <__aeabi_dsub>
 80018a0:	4602      	mov	r2, r0
 80018a2:	460b      	mov	r3, r1
 80018a4:	4620      	mov	r0, r4
 80018a6:	4629      	mov	r1, r5
 80018a8:	f000 f85c 	bl	8001964 <__aeabi_dsub>
 80018ac:	b005      	add	sp, #20
 80018ae:	e8bd 8ff0 	ldmia.w	sp!, {r4, r5, r6, r7, r8, r9, sl, fp, pc}
 80018b2:	4620      	mov	r0, r4
 80018b4:	f000 f9a4 	bl	8001c00 <__aeabi_i2d>
 80018b8:	a31f      	add	r3, pc, #124	; (adr r3, 8001938 <__ieee754_log+0x370>)
 80018ba:	e9d3 2300 	ldrd	r2, r3, [r3]
 80018be:	4606      	mov	r6, r0
 80018c0:	460f      	mov	r7, r1
 80018c2:	f000 fa07 	bl	8001cd4 <__aeabi_dmul>
 80018c6:	a31e      	add	r3, pc, #120	; (adr r3, 8001940 <__ieee754_log+0x378>)
 80018c8:	e9d3 2300 	ldrd	r2, r3, [r3]
 80018cc:	4604      	mov	r4, r0
 80018ce:	460d      	mov	r5, r1
 80018d0:	4630      	mov	r0, r6
 80018d2:	4639      	mov	r1, r7
 80018d4:	f000 f9fe 	bl	8001cd4 <__aeabi_dmul>
 80018d8:	4602      	mov	r2, r0
 80018da:	460b      	mov	r3, r1
 80018dc:	4620      	mov	r0, r4
 80018de:	4629      	mov	r1, r5
 80018e0:	f000 f842 	bl	8001968 <__adddf3>
 80018e4:	e756      	b.n	8001794 <__ieee754_log+0x1cc>
 80018e6:	e9dd 8902 	ldrd	r8, r9, [sp, #8]
 80018ea:	a313      	add	r3, pc, #76	; (adr r3, 8001938 <__ieee754_log+0x370>)
 80018ec:	e9d3 2300 	ldrd	r2, r3, [r3]
 80018f0:	4640      	mov	r0, r8
 80018f2:	4649      	mov	r1, r9
 80018f4:	e791      	b.n	800181a <__ieee754_log+0x252>
 80018f6:	bf00      	nop
 80018f8:	df3e5244 	.word	0xdf3e5244
 80018fc:	3fc2f112 	.word	0x3fc2f112
 8001900:	96cb03de 	.word	0x96cb03de
 8001904:	3fc74664 	.word	0x3fc74664
 8001908:	94229359 	.word	0x94229359
 800190c:	3fd24924 	.word	0x3fd24924
 8001910:	55555593 	.word	0x55555593
 8001914:	3fe55555 	.word	0x3fe55555
 8001918:	d078c69f 	.word	0xd078c69f
 800191c:	3fc39a09 	.word	0x3fc39a09
 8001920:	1d8e78af 	.word	0x1d8e78af
 8001924:	3fcc71c5 	.word	0x3fcc71c5
 8001928:	9997fa04 	.word	0x9997fa04
 800192c:	3fd99999 	.word	0x3fd99999
 8001930:	55555555 	.word	0x55555555
 8001934:	3fd55555 	.word	0x3fd55555
 8001938:	fee00000 	.word	0xfee00000
 800193c:	3fe62e42 	.word	0x3fe62e42
 8001940:	35793c76 	.word	0x35793c76
 8001944:	3dea39ef 	.word	0x3dea39ef
 8001948:	43500000 	.word	0x43500000
 800194c:	7fefffff 	.word	0x7fefffff
 8001950:	3ff00000 	.word	0x3ff00000
 8001954:	3fe00000 	.word	0x3fe00000
 8001958:	c3500000 	.word	0xc3500000

0800195c <__aeabi_drsub>:
 800195c:	f081 4100 	eor.w	r1, r1, #2147483648	; 0x80000000
 8001960:	e002      	b.n	8001968 <__adddf3>
 8001962:	bf00      	nop

08001964 <__aeabi_dsub>:
 8001964:	f083 4300 	eor.w	r3, r3, #2147483648	; 0x80000000

08001968 <__adddf3>:
 8001968:	b530      	push	{r4, r5, lr}
 800196a:	ea4f 0441 	mov.w	r4, r1, lsl #1
 800196e:	ea4f 0543 	mov.w	r5, r3, lsl #1
 8001972:	ea94 0f05 	teq	r4, r5
 8001976:	bf08      	it	eq
 8001978:	ea90 0f02 	teqeq	r0, r2
 800197c:	bf1f      	itttt	ne
 800197e:	ea54 0c00 	orrsne.w	ip, r4, r0
 8001982:	ea55 0c02 	orrsne.w	ip, r5, r2
 8001986:	ea7f 5c64 	mvnsne.w	ip, r4, asr #21
 800198a:	ea7f 5c65 	mvnsne.w	ip, r5, asr #21
 800198e:	f000 80e2 	beq.w	8001b56 <__adddf3+0x1ee>
 8001992:	ea4f 5454 	mov.w	r4, r4, lsr #21
 8001996:	ebd4 5555 	rsbs	r5, r4, r5, lsr #21
 800199a:	bfb8      	it	lt
 800199c:	426d      	neglt	r5, r5
 800199e:	dd0c      	ble.n	80019ba <__adddf3+0x52>
 80019a0:	442c      	add	r4, r5
 80019a2:	ea80 0202 	eor.w	r2, r0, r2
 80019a6:	ea81 0303 	eor.w	r3, r1, r3
 80019aa:	ea82 0000 	eor.w	r0, r2, r0
 80019ae:	ea83 0101 	eor.w	r1, r3, r1
 80019b2:	ea80 0202 	eor.w	r2, r0, r2
 80019b6:	ea81 0303 	eor.w	r3, r1, r3
 80019ba:	2d36      	cmp	r5, #54	; 0x36
 80019bc:	bf88      	it	hi
 80019be:	bd30      	pophi	{r4, r5, pc}
 80019c0:	f011 4f00 	tst.w	r1, #2147483648	; 0x80000000
 80019c4:	ea4f 3101 	mov.w	r1, r1, lsl #12
 80019c8:	f44f 1c80 	mov.w	ip, #1048576	; 0x100000
 80019cc:	ea4c 3111 	orr.w	r1, ip, r1, lsr #12
 80019d0:	d002      	beq.n	80019d8 <__adddf3+0x70>
 80019d2:	4240      	negs	r0, r0
 80019d4:	eb61 0141 	sbc.w	r1, r1, r1, lsl #1
 80019d8:	f013 4f00 	tst.w	r3, #2147483648	; 0x80000000
 80019dc:	ea4f 3303 	mov.w	r3, r3, lsl #12
 80019e0:	ea4c 3313 	orr.w	r3, ip, r3, lsr #12
 80019e4:	d002      	beq.n	80019ec <__adddf3+0x84>
 80019e6:	4252      	negs	r2, r2
 80019e8:	eb63 0343 	sbc.w	r3, r3, r3, lsl #1
 80019ec:	ea94 0f05 	teq	r4, r5
 80019f0:	f000 80a7 	beq.w	8001b42 <__adddf3+0x1da>
 80019f4:	f1a4 0401 	sub.w	r4, r4, #1
 80019f8:	f1d5 0e20 	rsbs	lr, r5, #32
 80019fc:	db0d      	blt.n	8001a1a <__adddf3+0xb2>
 80019fe:	fa02 fc0e 	lsl.w	ip, r2, lr
 8001a02:	fa22 f205 	lsr.w	r2, r2, r5
 8001a06:	1880      	adds	r0, r0, r2
 8001a08:	f141 0100 	adc.w	r1, r1, #0
 8001a0c:	fa03 f20e 	lsl.w	r2, r3, lr
 8001a10:	1880      	adds	r0, r0, r2
 8001a12:	fa43 f305 	asr.w	r3, r3, r5
 8001a16:	4159      	adcs	r1, r3
 8001a18:	e00e      	b.n	8001a38 <__adddf3+0xd0>
 8001a1a:	f1a5 0520 	sub.w	r5, r5, #32
 8001a1e:	f10e 0e20 	add.w	lr, lr, #32
 8001a22:	2a01      	cmp	r2, #1
 8001a24:	fa03 fc0e 	lsl.w	ip, r3, lr
 8001a28:	bf28      	it	cs
 8001a2a:	f04c 0c02 	orrcs.w	ip, ip, #2
 8001a2e:	fa43 f305 	asr.w	r3, r3, r5
 8001a32:	18c0      	adds	r0, r0, r3
 8001a34:	eb51 71e3 	adcs.w	r1, r1, r3, asr #31
 8001a38:	f001 4500 	and.w	r5, r1, #2147483648	; 0x80000000
 8001a3c:	d507      	bpl.n	8001a4e <__adddf3+0xe6>
 8001a3e:	f04f 0e00 	mov.w	lr, #0
 8001a42:	f1dc 0c00 	rsbs	ip, ip, #0
 8001a46:	eb7e 0000 	sbcs.w	r0, lr, r0
 8001a4a:	eb6e 0101 	sbc.w	r1, lr, r1
 8001a4e:	f5b1 1f80 	cmp.w	r1, #1048576	; 0x100000
 8001a52:	d31b      	bcc.n	8001a8c <__adddf3+0x124>
 8001a54:	f5b1 1f00 	cmp.w	r1, #2097152	; 0x200000
 8001a58:	d30c      	bcc.n	8001a74 <__adddf3+0x10c>
 8001a5a:	0849      	lsrs	r1, r1, #1
 8001a5c:	ea5f 0030 	movs.w	r0, r0, rrx
 8001a60:	ea4f 0c3c 	mov.w	ip, ip, rrx
 8001a64:	f104 0401 	add.w	r4, r4, #1
 8001a68:	ea4f 5244 	mov.w	r2, r4, lsl #21
 8001a6c:	f512 0f80 	cmn.w	r2, #4194304	; 0x400000
 8001a70:	f080 809a 	bcs.w	8001ba8 <__adddf3+0x240>
 8001a74:	f1bc 4f00 	cmp.w	ip, #2147483648	; 0x80000000
 8001a78:	bf08      	it	eq
 8001a7a:	ea5f 0c50 	movseq.w	ip, r0, lsr #1
 8001a7e:	f150 0000 	adcs.w	r0, r0, #0
 8001a82:	eb41 5104 	adc.w	r1, r1, r4, lsl #20
 8001a86:	ea41 0105 	orr.w	r1, r1, r5
 8001a8a:	bd30      	pop	{r4, r5, pc}
 8001a8c:	ea5f 0c4c 	movs.w	ip, ip, lsl #1
 8001a90:	4140      	adcs	r0, r0
 8001a92:	eb41 0101 	adc.w	r1, r1, r1
 8001a96:	f411 1f80 	tst.w	r1, #1048576	; 0x100000
 8001a9a:	f1a4 0401 	sub.w	r4, r4, #1
 8001a9e:	d1e9      	bne.n	8001a74 <__adddf3+0x10c>
 8001aa0:	f091 0f00 	teq	r1, #0
 8001aa4:	bf04      	itt	eq
 8001aa6:	4601      	moveq	r1, r0
 8001aa8:	2000      	moveq	r0, #0
 8001aaa:	fab1 f381 	clz	r3, r1
 8001aae:	bf08      	it	eq
 8001ab0:	3320      	addeq	r3, #32
 8001ab2:	f1a3 030b 	sub.w	r3, r3, #11
 8001ab6:	f1b3 0220 	subs.w	r2, r3, #32
 8001aba:	da0c      	bge.n	8001ad6 <__adddf3+0x16e>
 8001abc:	320c      	adds	r2, #12
 8001abe:	dd08      	ble.n	8001ad2 <__adddf3+0x16a>
 8001ac0:	f102 0c14 	add.w	ip, r2, #20
 8001ac4:	f1c2 020c 	rsb	r2, r2, #12
 8001ac8:	fa01 f00c 	lsl.w	r0, r1, ip
 8001acc:	fa21 f102 	lsr.w	r1, r1, r2
 8001ad0:	e00c      	b.n	8001aec <__adddf3+0x184>
 8001ad2:	f102 0214 	add.w	r2, r2, #20
 8001ad6:	bfd8      	it	le
 8001ad8:	f1c2 0c20 	rsble	ip, r2, #32
 8001adc:	fa01 f102 	lsl.w	r1, r1, r2
 8001ae0:	fa20 fc0c 	lsr.w	ip, r0, ip
 8001ae4:	bfdc      	itt	le
 8001ae6:	ea41 010c 	orrle.w	r1, r1, ip
 8001aea:	4090      	lslle	r0, r2
 8001aec:	1ae4      	subs	r4, r4, r3
 8001aee:	bfa2      	ittt	ge
 8001af0:	eb01 5104 	addge.w	r1, r1, r4, lsl #20
 8001af4:	4329      	orrge	r1, r5
 8001af6:	bd30      	popge	{r4, r5, pc}
 8001af8:	ea6f 0404 	mvn.w	r4, r4
 8001afc:	3c1f      	subs	r4, #31
 8001afe:	da1c      	bge.n	8001b3a <__adddf3+0x1d2>
 8001b00:	340c      	adds	r4, #12
 8001b02:	dc0e      	bgt.n	8001b22 <__adddf3+0x1ba>
 8001b04:	f104 0414 	add.w	r4, r4, #20
 8001b08:	f1c4 0220 	rsb	r2, r4, #32
 8001b0c:	fa20 f004 	lsr.w	r0, r0, r4
 8001b10:	fa01 f302 	lsl.w	r3, r1, r2
 8001b14:	ea40 0003 	orr.w	r0, r0, r3
 8001b18:	fa21 f304 	lsr.w	r3, r1, r4
 8001b1c:	ea45 0103 	orr.w	r1, r5, r3
 8001b20:	bd30      	pop	{r4, r5, pc}
 8001b22:	f1c4 040c 	rsb	r4, r4, #12
 8001b26:	f1c4 0220 	rsb	r2, r4, #32
 8001b2a:	fa20 f002 	lsr.w	r0, r0, r2
 8001b2e:	fa01 f304 	lsl.w	r3, r1, r4
 8001b32:	ea40 0003 	orr.w	r0, r0, r3
 8001b36:	4629      	mov	r1, r5
 8001b38:	bd30      	pop	{r4, r5, pc}
 8001b3a:	fa21 f004 	lsr.w	r0, r1, r4
 8001b3e:	4629      	mov	r1, r5
 8001b40:	bd30      	pop	{r4, r5, pc}
 8001b42:	f094 0f00 	teq	r4, #0
 8001b46:	f483 1380 	eor.w	r3, r3, #1048576	; 0x100000
 8001b4a:	bf06      	itte	eq
 8001b4c:	f481 1180 	eoreq.w	r1, r1, #1048576	; 0x100000
 8001b50:	3401      	addeq	r4, #1
 8001b52:	3d01      	subne	r5, #1
 8001b54:	e74e      	b.n	80019f4 <__adddf3+0x8c>
 8001b56:	ea7f 5c64 	mvns.w	ip, r4, asr #21
 8001b5a:	bf18      	it	ne
 8001b5c:	ea7f 5c65 	mvnsne.w	ip, r5, asr #21
 8001b60:	d029      	beq.n	8001bb6 <__adddf3+0x24e>
 8001b62:	ea94 0f05 	teq	r4, r5
 8001b66:	bf08      	it	eq
 8001b68:	ea90 0f02 	teqeq	r0, r2
 8001b6c:	d005      	beq.n	8001b7a <__adddf3+0x212>
 8001b6e:	ea54 0c00 	orrs.w	ip, r4, r0
 8001b72:	bf04      	itt	eq
 8001b74:	4619      	moveq	r1, r3
 8001b76:	4610      	moveq	r0, r2
 8001b78:	bd30      	pop	{r4, r5, pc}
 8001b7a:	ea91 0f03 	teq	r1, r3
 8001b7e:	bf1e      	ittt	ne
 8001b80:	2100      	movne	r1, #0
 8001b82:	2000      	movne	r0, #0
 8001b84:	bd30      	popne	{r4, r5, pc}
 8001b86:	ea5f 5c54 	movs.w	ip, r4, lsr #21
 8001b8a:	d105      	bne.n	8001b98 <__adddf3+0x230>
 8001b8c:	0040      	lsls	r0, r0, #1
 8001b8e:	4149      	adcs	r1, r1
 8001b90:	bf28      	it	cs
 8001b92:	f041 4100 	orrcs.w	r1, r1, #2147483648	; 0x80000000
 8001b96:	bd30      	pop	{r4, r5, pc}
 8001b98:	f514 0480 	adds.w	r4, r4, #4194304	; 0x400000
 8001b9c:	bf3c      	itt	cc
 8001b9e:	f501 1180 	addcc.w	r1, r1, #1048576	; 0x100000
 8001ba2:	bd30      	popcc	{r4, r5, pc}
 8001ba4:	f001 4500 	and.w	r5, r1, #2147483648	; 0x80000000
 8001ba8:	f045 41fe 	orr.w	r1, r5, #2130706432	; 0x7f000000
 8001bac:	f441 0170 	orr.w	r1, r1, #15728640	; 0xf00000
 8001bb0:	f04f 0000 	mov.w	r0, #0
 8001bb4:	bd30      	pop	{r4, r5, pc}
 8001bb6:	ea7f 5c64 	mvns.w	ip, r4, asr #21
 8001bba:	bf1a      	itte	ne
 8001bbc:	4619      	movne	r1, r3
 8001bbe:	4610      	movne	r0, r2
 8001bc0:	ea7f 5c65 	mvnseq.w	ip, r5, asr #21
 8001bc4:	bf1c      	itt	ne
 8001bc6:	460b      	movne	r3, r1
 8001bc8:	4602      	movne	r2, r0
 8001bca:	ea50 3401 	orrs.w	r4, r0, r1, lsl #12
 8001bce:	bf06      	itte	eq
 8001bd0:	ea52 3503 	orrseq.w	r5, r2, r3, lsl #12
 8001bd4:	ea91 0f03 	teqeq	r1, r3
 8001bd8:	f441 2100 	orrne.w	r1, r1, #524288	; 0x80000
 8001bdc:	bd30      	pop	{r4, r5, pc}
 8001bde:	bf00      	nop

08001be0 <__aeabi_ui2d>:
 8001be0:	f090 0f00 	teq	r0, #0
 8001be4:	bf04      	itt	eq
 8001be6:	2100      	moveq	r1, #0
 8001be8:	4770      	bxeq	lr
 8001bea:	b530      	push	{r4, r5, lr}
 8001bec:	f44f 6480 	mov.w	r4, #1024	; 0x400
 8001bf0:	f104 0432 	add.w	r4, r4, #50	; 0x32
 8001bf4:	f04f 0500 	mov.w	r5, #0
 8001bf8:	f04f 0100 	mov.w	r1, #0
 8001bfc:	e750      	b.n	8001aa0 <__adddf3+0x138>
 8001bfe:	bf00      	nop

08001c00 <__aeabi_i2d>:
 8001c00:	f090 0f00 	teq	r0, #0
 8001c04:	bf04      	itt	eq
 8001c06:	2100      	moveq	r1, #0
 8001c08:	4770      	bxeq	lr
 8001c0a:	b530      	push	{r4, r5, lr}
 8001c0c:	f44f 6480 	mov.w	r4, #1024	; 0x400
 8001c10:	f104 0432 	add.w	r4, r4, #50	; 0x32
 8001c14:	f010 4500 	ands.w	r5, r0, #2147483648	; 0x80000000
 8001c18:	bf48      	it	mi
 8001c1a:	4240      	negmi	r0, r0
 8001c1c:	f04f 0100 	mov.w	r1, #0
 8001c20:	e73e      	b.n	8001aa0 <__adddf3+0x138>
 8001c22:	bf00      	nop

08001c24 <__aeabi_f2d>:
 8001c24:	0042      	lsls	r2, r0, #1
 8001c26:	ea4f 01e2 	mov.w	r1, r2, asr #3
 8001c2a:	ea4f 0131 	mov.w	r1, r1, rrx
 8001c2e:	ea4f 7002 	mov.w	r0, r2, lsl #28
 8001c32:	bf1f      	itttt	ne
 8001c34:	f012 437f 	andsne.w	r3, r2, #4278190080	; 0xff000000
 8001c38:	f093 4f7f 	teqne	r3, #4278190080	; 0xff000000
 8001c3c:	f081 5160 	eorne.w	r1, r1, #939524096	; 0x38000000
 8001c40:	4770      	bxne	lr
 8001c42:	f032 427f 	bics.w	r2, r2, #4278190080	; 0xff000000
 8001c46:	bf08      	it	eq
 8001c48:	4770      	bxeq	lr
 8001c4a:	f093 4f7f 	teq	r3, #4278190080	; 0xff000000
 8001c4e:	bf04      	itt	eq
 8001c50:	f441 2100 	orreq.w	r1, r1, #524288	; 0x80000
 8001c54:	4770      	bxeq	lr
 8001c56:	b530      	push	{r4, r5, lr}
 8001c58:	f44f 7460 	mov.w	r4, #896	; 0x380
 8001c5c:	f001 4500 	and.w	r5, r1, #2147483648	; 0x80000000
 8001c60:	f021 4100 	bic.w	r1, r1, #2147483648	; 0x80000000
 8001c64:	e71c      	b.n	8001aa0 <__adddf3+0x138>
 8001c66:	bf00      	nop

08001c68 <__aeabi_ul2d>:
 8001c68:	ea50 0201 	orrs.w	r2, r0, r1
 8001c6c:	bf08      	it	eq
 8001c6e:	4770      	bxeq	lr
 8001c70:	b530      	push	{r4, r5, lr}
 8001c72:	f04f 0500 	mov.w	r5, #0
 8001c76:	e00a      	b.n	8001c8e <__aeabi_l2d+0x16>

08001c78 <__aeabi_l2d>:
 8001c78:	ea50 0201 	orrs.w	r2, r0, r1
 8001c7c:	bf08      	it	eq
 8001c7e:	4770      	bxeq	lr
 8001c80:	b530      	push	{r4, r5, lr}
 8001c82:	f011 4500 	ands.w	r5, r1, #2147483648	; 0x80000000
 8001c86:	d502      	bpl.n	8001c8e <__aeabi_l2d+0x16>
 8001c88:	4240      	negs	r0, r0
 8001c8a:	eb61 0141 	sbc.w	r1, r1, r1, lsl #1
 8001c8e:	f44f 6480 	mov.w	r4, #1024	; 0x400
 8001c92:	f104 0432 	add.w	r4, r4, #50	; 0x32
 8001c96:	ea5f 5c91 	movs.w	ip, r1, lsr #22
 8001c9a:	f43f aed8 	beq.w	8001a4e <__adddf3+0xe6>
 8001c9e:	f04f 0203 	mov.w	r2, #3
 8001ca2:	ea5f 0cdc 	movs.w	ip, ip, lsr #3
 8001ca6:	bf18      	it	ne
 8001ca8:	3203      	addne	r2, #3
 8001caa:	ea5f 0cdc 	movs.w	ip, ip, lsr #3
 8001cae:	bf18      	it	ne
 8001cb0:	3203      	addne	r2, #3
 8001cb2:	eb02 02dc 	add.w	r2, r2, ip, lsr #3
 8001cb6:	f1c2 0320 	rsb	r3, r2, #32
 8001cba:	fa00 fc03 	lsl.w	ip, r0, r3
 8001cbe:	fa20 f002 	lsr.w	r0, r0, r2
 8001cc2:	fa01 fe03 	lsl.w	lr, r1, r3
 8001cc6:	ea40 000e 	orr.w	r0, r0, lr
 8001cca:	fa21 f102 	lsr.w	r1, r1, r2
 8001cce:	4414      	add	r4, r2
 8001cd0:	e6bd      	b.n	8001a4e <__adddf3+0xe6>
 8001cd2:	bf00      	nop

08001cd4 <__aeabi_dmul>:
 8001cd4:	b570      	push	{r4, r5, r6, lr}
 8001cd6:	f04f 0cff 	mov.w	ip, #255	; 0xff
 8001cda:	f44c 6ce0 	orr.w	ip, ip, #1792	; 0x700
 8001cde:	ea1c 5411 	ands.w	r4, ip, r1, lsr #20
 8001ce2:	bf1d      	ittte	ne
 8001ce4:	ea1c 5513 	andsne.w	r5, ip, r3, lsr #20
 8001ce8:	ea94 0f0c 	teqne	r4, ip
 8001cec:	ea95 0f0c 	teqne	r5, ip
 8001cf0:	f000 f8de 	bleq	8001eb0 <__aeabi_dmul+0x1dc>
 8001cf4:	442c      	add	r4, r5
 8001cf6:	ea81 0603 	eor.w	r6, r1, r3
 8001cfa:	ea21 514c 	bic.w	r1, r1, ip, lsl #21
 8001cfe:	ea23 534c 	bic.w	r3, r3, ip, lsl #21
 8001d02:	ea50 3501 	orrs.w	r5, r0, r1, lsl #12
 8001d06:	bf18      	it	ne
 8001d08:	ea52 3503 	orrsne.w	r5, r2, r3, lsl #12
 8001d0c:	f441 1180 	orr.w	r1, r1, #1048576	; 0x100000
 8001d10:	f443 1380 	orr.w	r3, r3, #1048576	; 0x100000
 8001d14:	d038      	beq.n	8001d88 <__aeabi_dmul+0xb4>
 8001d16:	fba0 ce02 	umull	ip, lr, r0, r2
 8001d1a:	f04f 0500 	mov.w	r5, #0
 8001d1e:	fbe1 e502 	umlal	lr, r5, r1, r2
 8001d22:	f006 4200 	and.w	r2, r6, #2147483648	; 0x80000000
 8001d26:	fbe0 e503 	umlal	lr, r5, r0, r3
 8001d2a:	f04f 0600 	mov.w	r6, #0
 8001d2e:	fbe1 5603 	umlal	r5, r6, r1, r3
 8001d32:	f09c 0f00 	teq	ip, #0
 8001d36:	bf18      	it	ne
 8001d38:	f04e 0e01 	orrne.w	lr, lr, #1
 8001d3c:	f1a4 04ff 	sub.w	r4, r4, #255	; 0xff
 8001d40:	f5b6 7f00 	cmp.w	r6, #512	; 0x200
 8001d44:	f564 7440 	sbc.w	r4, r4, #768	; 0x300
 8001d48:	d204      	bcs.n	8001d54 <__aeabi_dmul+0x80>
 8001d4a:	ea5f 0e4e 	movs.w	lr, lr, lsl #1
 8001d4e:	416d      	adcs	r5, r5
 8001d50:	eb46 0606 	adc.w	r6, r6, r6
 8001d54:	ea42 21c6 	orr.w	r1, r2, r6, lsl #11
 8001d58:	ea41 5155 	orr.w	r1, r1, r5, lsr #21
 8001d5c:	ea4f 20c5 	mov.w	r0, r5, lsl #11
 8001d60:	ea40 505e 	orr.w	r0, r0, lr, lsr #21
 8001d64:	ea4f 2ece 	mov.w	lr, lr, lsl #11
 8001d68:	f1b4 0cfd 	subs.w	ip, r4, #253	; 0xfd
 8001d6c:	bf88      	it	hi
 8001d6e:	f5bc 6fe0 	cmphi.w	ip, #1792	; 0x700
 8001d72:	d81e      	bhi.n	8001db2 <__aeabi_dmul+0xde>
 8001d74:	f1be 4f00 	cmp.w	lr, #2147483648	; 0x80000000
 8001d78:	bf08      	it	eq
 8001d7a:	ea5f 0e50 	movseq.w	lr, r0, lsr #1
 8001d7e:	f150 0000 	adcs.w	r0, r0, #0
 8001d82:	eb41 5104 	adc.w	r1, r1, r4, lsl #20
 8001d86:	bd70      	pop	{r4, r5, r6, pc}
 8001d88:	f006 4600 	and.w	r6, r6, #2147483648	; 0x80000000
 8001d8c:	ea46 0101 	orr.w	r1, r6, r1
 8001d90:	ea40 0002 	orr.w	r0, r0, r2
 8001d94:	ea81 0103 	eor.w	r1, r1, r3
 8001d98:	ebb4 045c 	subs.w	r4, r4, ip, lsr #1
 8001d9c:	bfc2      	ittt	gt
 8001d9e:	ebd4 050c 	rsbsgt	r5, r4, ip
 8001da2:	ea41 5104 	orrgt.w	r1, r1, r4, lsl #20
 8001da6:	bd70      	popgt	{r4, r5, r6, pc}
 8001da8:	f441 1180 	orr.w	r1, r1, #1048576	; 0x100000
 8001dac:	f04f 0e00 	mov.w	lr, #0
 8001db0:	3c01      	subs	r4, #1
 8001db2:	f300 80ab 	bgt.w	8001f0c <__aeabi_dmul+0x238>
 8001db6:	f114 0f36 	cmn.w	r4, #54	; 0x36
 8001dba:	bfde      	ittt	le
 8001dbc:	2000      	movle	r0, #0
 8001dbe:	f001 4100 	andle.w	r1, r1, #2147483648	; 0x80000000
 8001dc2:	bd70      	pople	{r4, r5, r6, pc}
 8001dc4:	f1c4 0400 	rsb	r4, r4, #0
 8001dc8:	3c20      	subs	r4, #32
 8001dca:	da35      	bge.n	8001e38 <__aeabi_dmul+0x164>
 8001dcc:	340c      	adds	r4, #12
 8001dce:	dc1b      	bgt.n	8001e08 <__aeabi_dmul+0x134>
 8001dd0:	f104 0414 	add.w	r4, r4, #20
 8001dd4:	f1c4 0520 	rsb	r5, r4, #32
 8001dd8:	fa00 f305 	lsl.w	r3, r0, r5
 8001ddc:	fa20 f004 	lsr.w	r0, r0, r4
 8001de0:	fa01 f205 	lsl.w	r2, r1, r5
 8001de4:	ea40 0002 	orr.w	r0, r0, r2
 8001de8:	f001 4200 	and.w	r2, r1, #2147483648	; 0x80000000
 8001dec:	f021 4100 	bic.w	r1, r1, #2147483648	; 0x80000000
 8001df0:	eb10 70d3 	adds.w	r0, r0, r3, lsr #31
 8001df4:	fa21 f604 	lsr.w	r6, r1, r4
 8001df8:	eb42 0106 	adc.w	r1, r2, r6
 8001dfc:	ea5e 0e43 	orrs.w	lr, lr, r3, lsl #1
 8001e00:	bf08      	it	eq
 8001e02:	ea20 70d3 	biceq.w	r0, r0, r3, lsr #31
 8001e06:	bd70      	pop	{r4, r5, r6, pc}
 8001e08:	f1c4 040c 	rsb	r4, r4, #12
 8001e0c:	f1c4 0520 	rsb	r5, r4, #32
 8001e10:	fa00 f304 	lsl.w	r3, r0, r4
 8001e14:	fa20 f005 	lsr.w	r0, r0, r5
 8001e18:	fa01 f204 	lsl.w	r2, r1, r4
 8001e1c:	ea40 0002 	orr.w	r0, r0, r2
 8001e20:	f001 4100 	and.w	r1, r1, #2147483648	; 0x80000000
 8001e24:	eb10 70d3 	adds.w	r0, r0, r3, lsr #31
 8001e28:	f141 0100 	adc.w	r1, r1, #0
 8001e2c:	ea5e 0e43 	orrs.w	lr, lr, r3, lsl #1
 8001e30:	bf08      	it	eq
 8001e32:	ea20 70d3 	biceq.w	r0, r0, r3, lsr #31
 8001e36:	bd70      	pop	{r4, r5, r6, pc}
 8001e38:	f1c4 0520 	rsb	r5, r4, #32
 8001e3c:	fa00 f205 	lsl.w	r2, r0, r5
 8001e40:	ea4e 0e02 	orr.w	lr, lr, r2
 8001e44:	fa20 f304 	lsr.w	r3, r0, r4
 8001e48:	fa01 f205 	lsl.w	r2, r1, r5
 8001e4c:	ea43 0302 	orr.w	r3, r3, r2
 8001e50:	fa21 f004 	lsr.w	r0, r1, r4
 8001e54:	f001 4100 	and.w	r1, r1, #2147483648	; 0x80000000
 8001e58:	fa21 f204 	lsr.w	r2, r1, r4
 8001e5c:	ea20 0002 	bic.w	r0, r0, r2
 8001e60:	eb00 70d3 	add.w	r0, r0, r3, lsr #31
 8001e64:	ea5e 0e43 	orrs.w	lr, lr, r3, lsl #1
 8001e68:	bf08      	it	eq
 8001e6a:	ea20 70d3 	biceq.w	r0, r0, r3, lsr #31
 8001e6e:	bd70      	pop	{r4, r5, r6, pc}
 8001e70:	f094 0f00 	teq	r4, #0
 8001e74:	d10f      	bne.n	8001e96 <__aeabi_dmul+0x1c2>
 8001e76:	f001 4600 	and.w	r6, r1, #2147483648	; 0x80000000
 8001e7a:	0040      	lsls	r0, r0, #1
 8001e7c:	eb41 0101 	adc.w	r1, r1, r1
 8001e80:	f411 1f80 	tst.w	r1, #1048576	; 0x100000
 8001e84:	bf08      	it	eq
 8001e86:	3c01      	subeq	r4, #1
 8001e88:	d0f7      	beq.n	8001e7a <__aeabi_dmul+0x1a6>
 8001e8a:	ea41 0106 	orr.w	r1, r1, r6
 8001e8e:	f095 0f00 	teq	r5, #0
 8001e92:	bf18      	it	ne
 8001e94:	4770      	bxne	lr
 8001e96:	f003 4600 	and.w	r6, r3, #2147483648	; 0x80000000
 8001e9a:	0052      	lsls	r2, r2, #1
 8001e9c:	eb43 0303 	adc.w	r3, r3, r3
 8001ea0:	f413 1f80 	tst.w	r3, #1048576	; 0x100000
 8001ea4:	bf08      	it	eq
 8001ea6:	3d01      	subeq	r5, #1
 8001ea8:	d0f7      	beq.n	8001e9a <__aeabi_dmul+0x1c6>
 8001eaa:	ea43 0306 	orr.w	r3, r3, r6
 8001eae:	4770      	bx	lr
 8001eb0:	ea94 0f0c 	teq	r4, ip
 8001eb4:	ea0c 5513 	and.w	r5, ip, r3, lsr #20
 8001eb8:	bf18      	it	ne
 8001eba:	ea95 0f0c 	teqne	r5, ip
 8001ebe:	d00c      	beq.n	8001eda <__aeabi_dmul+0x206>
 8001ec0:	ea50 0641 	orrs.w	r6, r0, r1, lsl #1
 8001ec4:	bf18      	it	ne
 8001ec6:	ea52 0643 	orrsne.w	r6, r2, r3, lsl #1
 8001eca:	d1d1      	bne.n	8001e70 <__aeabi_dmul+0x19c>
 8001ecc:	ea81 0103 	eor.w	r1, r1, r3
 8001ed0:	f001 4100 	and.w	r1, r1, #2147483648	; 0x80000000
 8001ed4:	f04f 0000 	mov.w	r0, #0
 8001ed8:	bd70      	pop	{r4, r5, r6, pc}
 8001eda:	ea50 0641 	orrs.w	r6, r0, r1, lsl #1
 8001ede:	bf06      	itte	eq
 8001ee0:	4610      	moveq	r0, r2
 8001ee2:	4619      	moveq	r1, r3
 8001ee4:	ea52 0643 	orrsne.w	r6, r2, r3, lsl #1
 8001ee8:	d019      	beq.n	8001f1e <__aeabi_dmul+0x24a>
 8001eea:	ea94 0f0c 	teq	r4, ip
 8001eee:	d102      	bne.n	8001ef6 <__aeabi_dmul+0x222>
 8001ef0:	ea50 3601 	orrs.w	r6, r0, r1, lsl #12
 8001ef4:	d113      	bne.n	8001f1e <__aeabi_dmul+0x24a>
 8001ef6:	ea95 0f0c 	teq	r5, ip
 8001efa:	d105      	bne.n	8001f08 <__aeabi_dmul+0x234>
 8001efc:	ea52 3603 	orrs.w	r6, r2, r3, lsl #12
 8001f00:	bf1c      	itt	ne
 8001f02:	4610      	movne	r0, r2
 8001f04:	4619      	movne	r1, r3
 8001f06:	d10a      	bne.n	8001f1e <__aeabi_dmul+0x24a>
 8001f08:	ea81 0103 	eor.w	r1, r1, r3
 8001f0c:	f001 4100 	and.w	r1, r1, #2147483648	; 0x80000000
 8001f10:	f041 41fe 	orr.w	r1, r1, #2130706432	; 0x7f000000
 8001f14:	f441 0170 	orr.w	r1, r1, #15728640	; 0xf00000
 8001f18:	f04f 0000 	mov.w	r0, #0
 8001f1c:	bd70      	pop	{r4, r5, r6, pc}
 8001f1e:	f041 41fe 	orr.w	r1, r1, #2130706432	; 0x7f000000
 8001f22:	f441 0178 	orr.w	r1, r1, #16252928	; 0xf80000
 8001f26:	bd70      	pop	{r4, r5, r6, pc}

08001f28 <__aeabi_ddiv>:
 8001f28:	b570      	push	{r4, r5, r6, lr}
 8001f2a:	f04f 0cff 	mov.w	ip, #255	; 0xff
 8001f2e:	f44c 6ce0 	orr.w	ip, ip, #1792	; 0x700
 8001f32:	ea1c 5411 	ands.w	r4, ip, r1, lsr #20
 8001f36:	bf1d      	ittte	ne
 8001f38:	ea1c 5513 	andsne.w	r5, ip, r3, lsr #20
 8001f3c:	ea94 0f0c 	teqne	r4, ip
 8001f40:	ea95 0f0c 	teqne	r5, ip
 8001f44:	f000 f8a7 	bleq	8002096 <__aeabi_ddiv+0x16e>
 8001f48:	eba4 0405 	sub.w	r4, r4, r5
 8001f4c:	ea81 0e03 	eor.w	lr, r1, r3
 8001f50:	ea52 3503 	orrs.w	r5, r2, r3, lsl #12
 8001f54:	ea4f 3101 	mov.w	r1, r1, lsl #12
 8001f58:	f000 8088 	beq.w	800206c <__aeabi_ddiv+0x144>
 8001f5c:	ea4f 3303 	mov.w	r3, r3, lsl #12
 8001f60:	f04f 5580 	mov.w	r5, #268435456	; 0x10000000
 8001f64:	ea45 1313 	orr.w	r3, r5, r3, lsr #4
 8001f68:	ea43 6312 	orr.w	r3, r3, r2, lsr #24
 8001f6c:	ea4f 2202 	mov.w	r2, r2, lsl #8
 8001f70:	ea45 1511 	orr.w	r5, r5, r1, lsr #4
 8001f74:	ea45 6510 	orr.w	r5, r5, r0, lsr #24
 8001f78:	ea4f 2600 	mov.w	r6, r0, lsl #8
 8001f7c:	f00e 4100 	and.w	r1, lr, #2147483648	; 0x80000000
 8001f80:	429d      	cmp	r5, r3
 8001f82:	bf08      	it	eq
 8001f84:	4296      	cmpeq	r6, r2
 8001f86:	f144 04fd 	adc.w	r4, r4, #253	; 0xfd
 8001f8a:	f504 7440 	add.w	r4, r4, #768	; 0x300
 8001f8e:	d202      	bcs.n	8001f96 <__aeabi_ddiv+0x6e>
 8001f90:	085b      	lsrs	r3, r3, #1
 8001f92:	ea4f 0232 	mov.w	r2, r2, rrx
 8001f96:	1ab6      	subs	r6, r6, r2
 8001f98:	eb65 0503 	sbc.w	r5, r5, r3
 8001f9c:	085b      	lsrs	r3, r3, #1
 8001f9e:	ea4f 0232 	mov.w	r2, r2, rrx
 8001fa2:	f44f 1080 	mov.w	r0, #1048576	; 0x100000
 8001fa6:	f44f 2c00 	mov.w	ip, #524288	; 0x80000
 8001faa:	ebb6 0e02 	subs.w	lr, r6, r2
 8001fae:	eb75 0e03 	sbcs.w	lr, r5, r3
 8001fb2:	bf22      	ittt	cs
 8001fb4:	1ab6      	subcs	r6, r6, r2
 8001fb6:	4675      	movcs	r5, lr
 8001fb8:	ea40 000c 	orrcs.w	r0, r0, ip
 8001fbc:	085b      	lsrs	r3, r3, #1
 8001fbe:	ea4f 0232 	mov.w	r2, r2, rrx
 8001fc2:	ebb6 0e02 	subs.w	lr, r6, r2
 8001fc6:	eb75 0e03 	sbcs.w	lr, r5, r3
 8001fca:	bf22      	ittt	cs
 8001fcc:	1ab6      	subcs	r6, r6, r2
 8001fce:	4675      	movcs	r5, lr
 8001fd0:	ea40 005c 	orrcs.w	r0, r0, ip, lsr #1
 8001fd4:	085b      	lsrs	r3, r3, #1
 8001fd6:	ea4f 0232 	mov.w	r2, r2, rrx
 8001fda:	ebb6 0e02 	subs.w	lr, r6, r2
 8001fde:	eb75 0e03 	sbcs.w	lr, r5, r3
 8001fe2:	bf22      	ittt	cs
 8001fe4:	1ab6      	subcs	r6, r6, r2
 8001fe6:	4675      	movcs	r5, lr
 8001fe8:	ea40 009c 	orrcs.w	r0, r0, ip, lsr #2
 8001fec:	085b      	lsrs	r3, r3, #1
 8001fee:	ea4f 0232 	mov.w	r2, r2, rrx
 8001ff2:	ebb6 0e02 	subs.w	lr, r6, r2
 8001ff6:	eb75 0e03 	sbcs.w	lr, r5, r3
 8001ffa:	bf22      	ittt	cs
 8001ffc:	1ab6      	subcs	r6, r6, r2
 8001ffe:	4675      	movcs	r5, lr
 8002000:	ea40 00dc 	orrcs.w	r0, r0, ip, lsr #3
 8002004:	ea55 0e06 	orrs.w	lr, r5, r6
 8002008:	d018      	beq.n	800203c <__aeabi_ddiv+0x114>
 800200a:	ea4f 1505 	mov.w	r5, r5, lsl #4
 800200e:	ea45 7516 	orr.w	r5, r5, r6, lsr #28
 8002012:	ea4f 1606 	mov.w	r6, r6, lsl #4
 8002016:	ea4f 03c3 	mov.w	r3, r3, lsl #3
 800201a:	ea43 7352 	orr.w	r3, r3, r2, lsr #29
 800201e:	ea4f 02c2 	mov.w	r2, r2, lsl #3
 8002022:	ea5f 1c1c 	movs.w	ip, ip, lsr #4
 8002026:	d1c0      	bne.n	8001faa <__aeabi_ddiv+0x82>
 8002028:	f411 1f80 	tst.w	r1, #1048576	; 0x100000
 800202c:	d10b      	bne.n	8002046 <__aeabi_ddiv+0x11e>
 800202e:	ea41 0100 	orr.w	r1, r1, r0
 8002032:	f04f 0000 	mov.w	r0, #0
 8002036:	f04f 4c00 	mov.w	ip, #2147483648	; 0x80000000
 800203a:	e7b6      	b.n	8001faa <__aeabi_ddiv+0x82>
 800203c:	f411 1f80 	tst.w	r1, #1048576	; 0x100000
 8002040:	bf04      	itt	eq
 8002042:	4301      	orreq	r1, r0
 8002044:	2000      	moveq	r0, #0
 8002046:	f1b4 0cfd 	subs.w	ip, r4, #253	; 0xfd
 800204a:	bf88      	it	hi
 800204c:	f5bc 6fe0 	cmphi.w	ip, #1792	; 0x700
 8002050:	f63f aeaf 	bhi.w	8001db2 <__aeabi_dmul+0xde>
 8002054:	ebb5 0c03 	subs.w	ip, r5, r3
 8002058:	bf04      	itt	eq
 800205a:	ebb6 0c02 	subseq.w	ip, r6, r2
 800205e:	ea5f 0c50 	movseq.w	ip, r0, lsr #1
 8002062:	f150 0000 	adcs.w	r0, r0, #0
 8002066:	eb41 5104 	adc.w	r1, r1, r4, lsl #20
 800206a:	bd70      	pop	{r4, r5, r6, pc}
 800206c:	f00e 4e00 	and.w	lr, lr, #2147483648	; 0x80000000
 8002070:	ea4e 3111 	orr.w	r1, lr, r1, lsr #12
 8002074:	eb14 045c 	adds.w	r4, r4, ip, lsr #1
 8002078:	bfc2      	ittt	gt
 800207a:	ebd4 050c 	rsbsgt	r5, r4, ip
 800207e:	ea41 5104 	orrgt.w	r1, r1, r4, lsl #20
 8002082:	bd70      	popgt	{r4, r5, r6, pc}
 8002084:	f441 1180 	orr.w	r1, r1, #1048576	; 0x100000
 8002088:	f04f 0e00 	mov.w	lr, #0
 800208c:	3c01      	subs	r4, #1
 800208e:	e690      	b.n	8001db2 <__aeabi_dmul+0xde>
 8002090:	ea45 0e06 	orr.w	lr, r5, r6
 8002094:	e68d      	b.n	8001db2 <__aeabi_dmul+0xde>
 8002096:	ea0c 5513 	and.w	r5, ip, r3, lsr #20
 800209a:	ea94 0f0c 	teq	r4, ip
 800209e:	bf08      	it	eq
 80020a0:	ea95 0f0c 	teqeq	r5, ip
 80020a4:	f43f af3b 	beq.w	8001f1e <__aeabi_dmul+0x24a>
 80020a8:	ea94 0f0c 	teq	r4, ip
 80020ac:	d10a      	bne.n	80020c4 <__aeabi_ddiv+0x19c>
 80020ae:	ea50 3401 	orrs.w	r4, r0, r1, lsl #12
 80020b2:	f47f af34 	bne.w	8001f1e <__aeabi_dmul+0x24a>
 80020b6:	ea95 0f0c 	teq	r5, ip
 80020ba:	f47f af25 	bne.w	8001f08 <__aeabi_dmul+0x234>
 80020be:	4610      	mov	r0, r2
 80020c0:	4619      	mov	r1, r3
 80020c2:	e72c      	b.n	8001f1e <__aeabi_dmul+0x24a>
 80020c4:	ea95 0f0c 	teq	r5, ip
 80020c8:	d106      	bne.n	80020d8 <__aeabi_ddiv+0x1b0>
 80020ca:	ea52 3503 	orrs.w	r5, r2, r3, lsl #12
 80020ce:	f43f aefd 	beq.w	8001ecc <__aeabi_dmul+0x1f8>
 80020d2:	4610      	mov	r0, r2
 80020d4:	4619      	mov	r1, r3
 80020d6:	e722      	b.n	8001f1e <__aeabi_dmul+0x24a>
 80020d8:	ea50 0641 	orrs.w	r6, r0, r1, lsl #1
 80020dc:	bf18      	it	ne
 80020de:	ea52 0643 	orrsne.w	r6, r2, r3, lsl #1
 80020e2:	f47f aec5 	bne.w	8001e70 <__aeabi_dmul+0x19c>
 80020e6:	ea50 0441 	orrs.w	r4, r0, r1, lsl #1
 80020ea:	f47f af0d 	bne.w	8001f08 <__aeabi_dmul+0x234>
 80020ee:	ea52 0543 	orrs.w	r5, r2, r3, lsl #1
 80020f2:	f47f aeeb 	bne.w	8001ecc <__aeabi_dmul+0x1f8>
 80020f6:	e712      	b.n	8001f1e <__aeabi_dmul+0x24a>

080020f8 <__gedf2>:
 80020f8:	f04f 3cff 	mov.w	ip, #4294967295	; 0xffffffff
 80020fc:	e006      	b.n	800210c <__cmpdf2+0x4>
 80020fe:	bf00      	nop

08002100 <__ledf2>:
 8002100:	f04f 0c01 	mov.w	ip, #1
 8002104:	e002      	b.n	800210c <__cmpdf2+0x4>
 8002106:	bf00      	nop

08002108 <__cmpdf2>:
 8002108:	f04f 0c01 	mov.w	ip, #1
 800210c:	f84d cd04 	str.w	ip, [sp, #-4]!
 8002110:	ea4f 0c41 	mov.w	ip, r1, lsl #1
 8002114:	ea7f 5c6c 	mvns.w	ip, ip, asr #21
 8002118:	ea4f 0c43 	mov.w	ip, r3, lsl #1
 800211c:	bf18      	it	ne
 800211e:	ea7f 5c6c 	mvnsne.w	ip, ip, asr #21
 8002122:	d01b      	beq.n	800215c <__cmpdf2+0x54>
 8002124:	b001      	add	sp, #4
 8002126:	ea50 0c41 	orrs.w	ip, r0, r1, lsl #1
 800212a:	bf0c      	ite	eq
 800212c:	ea52 0c43 	orrseq.w	ip, r2, r3, lsl #1
 8002130:	ea91 0f03 	teqne	r1, r3
 8002134:	bf02      	ittt	eq
 8002136:	ea90 0f02 	teqeq	r0, r2
 800213a:	2000      	moveq	r0, #0
 800213c:	4770      	bxeq	lr
 800213e:	f110 0f00 	cmn.w	r0, #0
 8002142:	ea91 0f03 	teq	r1, r3
 8002146:	bf58      	it	pl
 8002148:	4299      	cmppl	r1, r3
 800214a:	bf08      	it	eq
 800214c:	4290      	cmpeq	r0, r2
 800214e:	bf2c      	ite	cs
 8002150:	17d8      	asrcs	r0, r3, #31
 8002152:	ea6f 70e3 	mvncc.w	r0, r3, asr #31
 8002156:	f040 0001 	orr.w	r0, r0, #1
 800215a:	4770      	bx	lr
 800215c:	ea4f 0c41 	mov.w	ip, r1, lsl #1
 8002160:	ea7f 5c6c 	mvns.w	ip, ip, asr #21
 8002164:	d102      	bne.n	800216c <__cmpdf2+0x64>
 8002166:	ea50 3c01 	orrs.w	ip, r0, r1, lsl #12
 800216a:	d107      	bne.n	800217c <__cmpdf2+0x74>
 800216c:	ea4f 0c43 	mov.w	ip, r3, lsl #1
 8002170:	ea7f 5c6c 	mvns.w	ip, ip, asr #21
 8002174:	d1d6      	bne.n	8002124 <__cmpdf2+0x1c>
 8002176:	ea52 3c03 	orrs.w	ip, r2, r3, lsl #12
 800217a:	d0d3      	beq.n	8002124 <__cmpdf2+0x1c>
 800217c:	f85d 0b04 	ldr.w	r0, [sp], #4
 8002180:	4770      	bx	lr
 8002182:	bf00      	nop

08002184 <__aeabi_cdrcmple>:
 8002184:	4684      	mov	ip, r0
 8002186:	4610      	mov	r0, r2
 8002188:	4662      	mov	r2, ip
 800218a:	468c      	mov	ip, r1
 800218c:	4619      	mov	r1, r3
 800218e:	4663      	mov	r3, ip
 8002190:	e000      	b.n	8002194 <__aeabi_cdcmpeq>
 8002192:	bf00      	nop

08002194 <__aeabi_cdcmpeq>:
 8002194:	b501      	push	{r0, lr}
 8002196:	f7ff ffb7 	bl	8002108 <__cmpdf2>
 800219a:	2800      	cmp	r0, #0
 800219c:	bf48      	it	mi
 800219e:	f110 0f00 	cmnmi.w	r0, #0
 80021a2:	bd01      	pop	{r0, pc}

080021a4 <__aeabi_dcmpeq>:
 80021a4:	f84d ed08 	str.w	lr, [sp, #-8]!
 80021a8:	f7ff fff4 	bl	8002194 <__aeabi_cdcmpeq>
 80021ac:	bf0c      	ite	eq
 80021ae:	2001      	moveq	r0, #1
 80021b0:	2000      	movne	r0, #0
 80021b2:	f85d fb08 	ldr.w	pc, [sp], #8
 80021b6:	bf00      	nop

080021b8 <__aeabi_dcmplt>:
 80021b8:	f84d ed08 	str.w	lr, [sp, #-8]!
 80021bc:	f7ff ffea 	bl	8002194 <__aeabi_cdcmpeq>
 80021c0:	bf34      	ite	cc
 80021c2:	2001      	movcc	r0, #1
 80021c4:	2000      	movcs	r0, #0
 80021c6:	f85d fb08 	ldr.w	pc, [sp], #8
 80021ca:	bf00      	nop

080021cc <__aeabi_dcmple>:
 80021cc:	f84d ed08 	str.w	lr, [sp, #-8]!
 80021d0:	f7ff ffe0 	bl	8002194 <__aeabi_cdcmpeq>
 80021d4:	bf94      	ite	ls
 80021d6:	2001      	movls	r0, #1
 80021d8:	2000      	movhi	r0, #0
 80021da:	f85d fb08 	ldr.w	pc, [sp], #8
 80021de:	bf00      	nop

080021e0 <__aeabi_dcmpge>:
 80021e0:	f84d ed08 	str.w	lr, [sp, #-8]!
 80021e4:	f7ff ffce 	bl	8002184 <__aeabi_cdrcmple>
 80021e8:	bf94      	ite	ls
 80021ea:	2001      	movls	r0, #1
 80021ec:	2000      	movhi	r0, #0
 80021ee:	f85d fb08 	ldr.w	pc, [sp], #8
 80021f2:	bf00      	nop

080021f4 <__aeabi_dcmpgt>:
 80021f4:	f84d ed08 	str.w	lr, [sp, #-8]!
 80021f8:	f7ff ffc4 	bl	8002184 <__aeabi_cdrcmple>
 80021fc:	bf34      	ite	cc
 80021fe:	2001      	movcc	r0, #1
 8002200:	2000      	movcs	r0, #0
 8002202:	f85d fb08 	ldr.w	pc, [sp], #8
 8002206:	bf00      	nop

08002208 <__aeabi_dcmpun>:
 8002208:	ea4f 0c41 	mov.w	ip, r1, lsl #1
 800220c:	ea7f 5c6c 	mvns.w	ip, ip, asr #21
 8002210:	d102      	bne.n	8002218 <__aeabi_dcmpun+0x10>
 8002212:	ea50 3c01 	orrs.w	ip, r0, r1, lsl #12
 8002216:	d10a      	bne.n	800222e <__aeabi_dcmpun+0x26>
 8002218:	ea4f 0c43 	mov.w	ip, r3, lsl #1
 800221c:	ea7f 5c6c 	mvns.w	ip, ip, asr #21
 8002220:	d102      	bne.n	8002228 <__aeabi_dcmpun+0x20>
 8002222:	ea52 3c03 	orrs.w	ip, r2, r3, lsl #12
 8002226:	d102      	bne.n	800222e <__aeabi_dcmpun+0x26>
 8002228:	f04f 0000 	mov.w	r0, #0
 800222c:	4770      	bx	lr
 800222e:	f04f 0001 	mov.w	r0, #1
 8002232:	4770      	bx	lr

08002234 <__aeabi_d2iz>:
 8002234:	ea4f 0241 	mov.w	r2, r1, lsl #1
 8002238:	f512 1200 	adds.w	r2, r2, #2097152	; 0x200000
 800223c:	d215      	bcs.n	800226a <__aeabi_d2iz+0x36>
 800223e:	d511      	bpl.n	8002264 <__aeabi_d2iz+0x30>
 8002240:	f46f 7378 	mvn.w	r3, #992	; 0x3e0
 8002244:	ebb3 5262 	subs.w	r2, r3, r2, asr #21
 8002248:	d912      	bls.n	8002270 <__aeabi_d2iz+0x3c>
 800224a:	ea4f 23c1 	mov.w	r3, r1, lsl #11
 800224e:	f043 4300 	orr.w	r3, r3, #2147483648	; 0x80000000
 8002252:	ea43 5350 	orr.w	r3, r3, r0, lsr #21
 8002256:	f011 4f00 	tst.w	r1, #2147483648	; 0x80000000
 800225a:	fa23 f002 	lsr.w	r0, r3, r2
 800225e:	bf18      	it	ne
 8002260:	4240      	negne	r0, r0
 8002262:	4770      	bx	lr
 8002264:	f04f 0000 	mov.w	r0, #0
 8002268:	4770      	bx	lr
 800226a:	ea50 3001 	orrs.w	r0, r0, r1, lsl #12
 800226e:	d105      	bne.n	800227c <__aeabi_d2iz+0x48>
 8002270:	f011 4000 	ands.w	r0, r1, #2147483648	; 0x80000000
 8002274:	bf08      	it	eq
 8002276:	f06f 4000 	mvneq.w	r0, #2147483648	; 0x80000000
 800227a:	4770      	bx	lr
 800227c:	f04f 0000 	mov.w	r0, #0
 8002280:	4770      	bx	lr
 8002282:	bf00      	nop

08002284 <calloc>:
 8002284:	4b02      	ldr	r3, [pc, #8]	; (8002290 <calloc+0xc>)
 8002286:	460a      	mov	r2, r1
 8002288:	4601      	mov	r1, r0
 800228a:	6818      	ldr	r0, [r3, #0]
 800228c:	f000 b802 	b.w	8002294 <_calloc_r>
 8002290:	20000004 	.word	0x20000004

08002294 <_calloc_r>:
 8002294:	b510      	push	{r4, lr}
 8002296:	fb02 f101 	mul.w	r1, r2, r1
 800229a:	f000 f859 	bl	8002350 <_malloc_r>
 800229e:	4604      	mov	r4, r0
 80022a0:	b1d8      	cbz	r0, 80022da <_calloc_r+0x46>
 80022a2:	f850 2c04 	ldr.w	r2, [r0, #-4]
 80022a6:	f022 0203 	bic.w	r2, r2, #3
 80022aa:	3a04      	subs	r2, #4
 80022ac:	2a24      	cmp	r2, #36	; 0x24
 80022ae:	d81d      	bhi.n	80022ec <_calloc_r+0x58>
 80022b0:	2a13      	cmp	r2, #19
 80022b2:	d914      	bls.n	80022de <_calloc_r+0x4a>
 80022b4:	2300      	movs	r3, #0
 80022b6:	2a1b      	cmp	r2, #27
 80022b8:	e9c0 3300 	strd	r3, r3, [r0]
 80022bc:	d91b      	bls.n	80022f6 <_calloc_r+0x62>
 80022be:	2a24      	cmp	r2, #36	; 0x24
 80022c0:	e9c0 3302 	strd	r3, r3, [r0, #8]
 80022c4:	bf0a      	itet	eq
 80022c6:	e9c0 3304 	strdeq	r3, r3, [r0, #16]
 80022ca:	f100 0210 	addne.w	r2, r0, #16
 80022ce:	f100 0218 	addeq.w	r2, r0, #24
 80022d2:	2300      	movs	r3, #0
 80022d4:	e9c2 3300 	strd	r3, r3, [r2]
 80022d8:	6093      	str	r3, [r2, #8]
 80022da:	4620      	mov	r0, r4
 80022dc:	bd10      	pop	{r4, pc}
 80022de:	4602      	mov	r2, r0
 80022e0:	2300      	movs	r3, #0
 80022e2:	e9c2 3300 	strd	r3, r3, [r2]
 80022e6:	6093      	str	r3, [r2, #8]
 80022e8:	4620      	mov	r0, r4
 80022ea:	bd10      	pop	{r4, pc}
 80022ec:	2100      	movs	r1, #0
 80022ee:	f000 fad3 	bl	8002898 <memset>
 80022f2:	4620      	mov	r0, r4
 80022f4:	bd10      	pop	{r4, pc}
 80022f6:	f100 0208 	add.w	r2, r0, #8
 80022fa:	e7f1      	b.n	80022e0 <_calloc_r+0x4c>

080022fc <__errno>:
 80022fc:	4b01      	ldr	r3, [pc, #4]	; (8002304 <__errno+0x8>)
 80022fe:	6818      	ldr	r0, [r3, #0]
 8002300:	4770      	bx	lr
 8002302:	bf00      	nop
 8002304:	20000004 	.word	0x20000004

08002308 <__libc_init_array>:
 8002308:	b570      	push	{r4, r5, r6, lr}
 800230a:	4e0d      	ldr	r6, [pc, #52]	; (8002340 <__libc_init_array+0x38>)
 800230c:	4d0d      	ldr	r5, [pc, #52]	; (8002344 <__libc_init_array+0x3c>)
 800230e:	1b76      	subs	r6, r6, r5
 8002310:	10b6      	asrs	r6, r6, #2
 8002312:	d006      	beq.n	8002322 <__libc_init_array+0x1a>
 8002314:	2400      	movs	r4, #0
 8002316:	3401      	adds	r4, #1
 8002318:	f855 3b04 	ldr.w	r3, [r5], #4
 800231c:	4798      	blx	r3
 800231e:	42a6      	cmp	r6, r4
 8002320:	d1f9      	bne.n	8002316 <__libc_init_array+0xe>
 8002322:	4e09      	ldr	r6, [pc, #36]	; (8002348 <__libc_init_array+0x40>)
 8002324:	4d09      	ldr	r5, [pc, #36]	; (800234c <__libc_init_array+0x44>)
 8002326:	1b76      	subs	r6, r6, r5
 8002328:	f7ff f834 	bl	8001394 <_init>
 800232c:	10b6      	asrs	r6, r6, #2
 800232e:	d006      	beq.n	800233e <__libc_init_array+0x36>
 8002330:	2400      	movs	r4, #0
 8002332:	3401      	adds	r4, #1
 8002334:	f855 3b04 	ldr.w	r3, [r5], #4
 8002338:	4798      	blx	r3
 800233a:	42a6      	cmp	r6, r4
 800233c:	d1f9      	bne.n	8002332 <__libc_init_array+0x2a>
 800233e:	bd70      	pop	{r4, r5, r6, pc}
 8002340:	200009ac 	.word	0x200009ac
 8002344:	200009ac 	.word	0x200009ac
 8002348:	200009ac 	.word	0x200009ac
 800234c:	200009ac 	.word	0x200009ac

08002350 <_malloc_r>:
 8002350:	e92d 4ff0 	stmdb	sp!, {r4, r5, r6, r7, r8, r9, sl, fp, lr}
 8002354:	f101 050b 	add.w	r5, r1, #11
 8002358:	2d16      	cmp	r5, #22
 800235a:	b083      	sub	sp, #12
 800235c:	4606      	mov	r6, r0
 800235e:	d823      	bhi.n	80023a8 <_malloc_r+0x58>
 8002360:	2910      	cmp	r1, #16
 8002362:	f200 80b9 	bhi.w	80024d8 <_malloc_r+0x188>
 8002366:	f000 fae1 	bl	800292c <__malloc_lock>
 800236a:	2510      	movs	r5, #16
 800236c:	2318      	movs	r3, #24
 800236e:	2002      	movs	r0, #2
 8002370:	4fc5      	ldr	r7, [pc, #788]	; (8002688 <_malloc_r+0x338>)
 8002372:	443b      	add	r3, r7
 8002374:	f1a3 0208 	sub.w	r2, r3, #8
 8002378:	685c      	ldr	r4, [r3, #4]
 800237a:	4294      	cmp	r4, r2
 800237c:	f000 8166 	beq.w	800264c <_malloc_r+0x2fc>
 8002380:	6863      	ldr	r3, [r4, #4]
 8002382:	f023 0303 	bic.w	r3, r3, #3
 8002386:	4423      	add	r3, r4
 8002388:	e9d4 5102 	ldrd	r5, r1, [r4, #8]
 800238c:	685a      	ldr	r2, [r3, #4]
 800238e:	60e9      	str	r1, [r5, #12]
 8002390:	f042 0201 	orr.w	r2, r2, #1
 8002394:	608d      	str	r5, [r1, #8]
 8002396:	4630      	mov	r0, r6
 8002398:	605a      	str	r2, [r3, #4]
 800239a:	f000 facd 	bl	8002938 <__malloc_unlock>
 800239e:	3408      	adds	r4, #8
 80023a0:	4620      	mov	r0, r4
 80023a2:	b003      	add	sp, #12
 80023a4:	e8bd 8ff0 	ldmia.w	sp!, {r4, r5, r6, r7, r8, r9, sl, fp, pc}
 80023a8:	f035 0507 	bics.w	r5, r5, #7
 80023ac:	f100 8094 	bmi.w	80024d8 <_malloc_r+0x188>
 80023b0:	42a9      	cmp	r1, r5
 80023b2:	f200 8091 	bhi.w	80024d8 <_malloc_r+0x188>
 80023b6:	f000 fab9 	bl	800292c <__malloc_lock>
 80023ba:	f5b5 7ffc 	cmp.w	r5, #504	; 0x1f8
 80023be:	f0c0 8183 	bcc.w	80026c8 <_malloc_r+0x378>
 80023c2:	0a6b      	lsrs	r3, r5, #9
 80023c4:	f000 808f 	beq.w	80024e6 <_malloc_r+0x196>
 80023c8:	2b04      	cmp	r3, #4
 80023ca:	f200 8146 	bhi.w	800265a <_malloc_r+0x30a>
 80023ce:	09ab      	lsrs	r3, r5, #6
 80023d0:	f103 0039 	add.w	r0, r3, #57	; 0x39
 80023d4:	f103 0c38 	add.w	ip, r3, #56	; 0x38
 80023d8:	00c3      	lsls	r3, r0, #3
 80023da:	4fab      	ldr	r7, [pc, #684]	; (8002688 <_malloc_r+0x338>)
 80023dc:	443b      	add	r3, r7
 80023de:	f1a3 0108 	sub.w	r1, r3, #8
 80023e2:	685c      	ldr	r4, [r3, #4]
 80023e4:	42a1      	cmp	r1, r4
 80023e6:	d106      	bne.n	80023f6 <_malloc_r+0xa6>
 80023e8:	e00c      	b.n	8002404 <_malloc_r+0xb4>
 80023ea:	2a00      	cmp	r2, #0
 80023ec:	f280 811d 	bge.w	800262a <_malloc_r+0x2da>
 80023f0:	68e4      	ldr	r4, [r4, #12]
 80023f2:	42a1      	cmp	r1, r4
 80023f4:	d006      	beq.n	8002404 <_malloc_r+0xb4>
 80023f6:	6863      	ldr	r3, [r4, #4]
 80023f8:	f023 0303 	bic.w	r3, r3, #3
 80023fc:	1b5a      	subs	r2, r3, r5
 80023fe:	2a0f      	cmp	r2, #15
 8002400:	ddf3      	ble.n	80023ea <_malloc_r+0x9a>
 8002402:	4660      	mov	r0, ip
 8002404:	693c      	ldr	r4, [r7, #16]
 8002406:	f8df c294 	ldr.w	ip, [pc, #660]	; 800269c <_malloc_r+0x34c>
 800240a:	4564      	cmp	r4, ip
 800240c:	d071      	beq.n	80024f2 <_malloc_r+0x1a2>
 800240e:	6863      	ldr	r3, [r4, #4]
 8002410:	f023 0303 	bic.w	r3, r3, #3
 8002414:	1b5a      	subs	r2, r3, r5
 8002416:	2a0f      	cmp	r2, #15
 8002418:	f300 8144 	bgt.w	80026a4 <_malloc_r+0x354>
 800241c:	2a00      	cmp	r2, #0
 800241e:	e9c7 cc04 	strd	ip, ip, [r7, #16]
 8002422:	f280 8126 	bge.w	8002672 <_malloc_r+0x322>
 8002426:	f5b3 7f00 	cmp.w	r3, #512	; 0x200
 800242a:	f080 8169 	bcs.w	8002700 <_malloc_r+0x3b0>
 800242e:	08db      	lsrs	r3, r3, #3
 8002430:	1c59      	adds	r1, r3, #1
 8002432:	687a      	ldr	r2, [r7, #4]
 8002434:	f857 8031 	ldr.w	r8, [r7, r1, lsl #3]
 8002438:	f8c4 8008 	str.w	r8, [r4, #8]
 800243c:	f04f 0e01 	mov.w	lr, #1
 8002440:	109b      	asrs	r3, r3, #2
 8002442:	fa0e f303 	lsl.w	r3, lr, r3
 8002446:	eb07 0ec1 	add.w	lr, r7, r1, lsl #3
 800244a:	4313      	orrs	r3, r2
 800244c:	f1ae 0208 	sub.w	r2, lr, #8
 8002450:	60e2      	str	r2, [r4, #12]
 8002452:	607b      	str	r3, [r7, #4]
 8002454:	f847 4031 	str.w	r4, [r7, r1, lsl #3]
 8002458:	f8c8 400c 	str.w	r4, [r8, #12]
 800245c:	1082      	asrs	r2, r0, #2
 800245e:	2401      	movs	r4, #1
 8002460:	4094      	lsls	r4, r2
 8002462:	429c      	cmp	r4, r3
 8002464:	d84b      	bhi.n	80024fe <_malloc_r+0x1ae>
 8002466:	421c      	tst	r4, r3
 8002468:	d106      	bne.n	8002478 <_malloc_r+0x128>
 800246a:	f020 0003 	bic.w	r0, r0, #3
 800246e:	0064      	lsls	r4, r4, #1
 8002470:	421c      	tst	r4, r3
 8002472:	f100 0004 	add.w	r0, r0, #4
 8002476:	d0fa      	beq.n	800246e <_malloc_r+0x11e>
 8002478:	eb07 09c0 	add.w	r9, r7, r0, lsl #3
 800247c:	46ce      	mov	lr, r9
 800247e:	4680      	mov	r8, r0
 8002480:	f8de 300c 	ldr.w	r3, [lr, #12]
 8002484:	459e      	cmp	lr, r3
 8002486:	d107      	bne.n	8002498 <_malloc_r+0x148>
 8002488:	e122      	b.n	80026d0 <_malloc_r+0x380>
 800248a:	2a00      	cmp	r2, #0
 800248c:	f280 8129 	bge.w	80026e2 <_malloc_r+0x392>
 8002490:	68db      	ldr	r3, [r3, #12]
 8002492:	459e      	cmp	lr, r3
 8002494:	f000 811c 	beq.w	80026d0 <_malloc_r+0x380>
 8002498:	6859      	ldr	r1, [r3, #4]
 800249a:	f021 0103 	bic.w	r1, r1, #3
 800249e:	1b4a      	subs	r2, r1, r5
 80024a0:	2a0f      	cmp	r2, #15
 80024a2:	ddf2      	ble.n	800248a <_malloc_r+0x13a>
 80024a4:	e9d3 8e02 	ldrd	r8, lr, [r3, #8]
 80024a8:	195c      	adds	r4, r3, r5
 80024aa:	f045 0501 	orr.w	r5, r5, #1
 80024ae:	605d      	str	r5, [r3, #4]
 80024b0:	f042 0501 	orr.w	r5, r2, #1
 80024b4:	f8c8 e00c 	str.w	lr, [r8, #12]
 80024b8:	4630      	mov	r0, r6
 80024ba:	f8ce 8008 	str.w	r8, [lr, #8]
 80024be:	e9c7 4404 	strd	r4, r4, [r7, #16]
 80024c2:	e9c4 cc02 	strd	ip, ip, [r4, #8]
 80024c6:	6065      	str	r5, [r4, #4]
 80024c8:	505a      	str	r2, [r3, r1]
 80024ca:	9301      	str	r3, [sp, #4]
 80024cc:	f000 fa34 	bl	8002938 <__malloc_unlock>
 80024d0:	9b01      	ldr	r3, [sp, #4]
 80024d2:	f103 0408 	add.w	r4, r3, #8
 80024d6:	e763      	b.n	80023a0 <_malloc_r+0x50>
 80024d8:	2400      	movs	r4, #0
 80024da:	230c      	movs	r3, #12
 80024dc:	4620      	mov	r0, r4
 80024de:	6033      	str	r3, [r6, #0]
 80024e0:	b003      	add	sp, #12
 80024e2:	e8bd 8ff0 	ldmia.w	sp!, {r4, r5, r6, r7, r8, r9, sl, fp, pc}
 80024e6:	f44f 7300 	mov.w	r3, #512	; 0x200
 80024ea:	2040      	movs	r0, #64	; 0x40
 80024ec:	f04f 0c3f 	mov.w	ip, #63	; 0x3f
 80024f0:	e773      	b.n	80023da <_malloc_r+0x8a>
 80024f2:	687b      	ldr	r3, [r7, #4]
 80024f4:	1082      	asrs	r2, r0, #2
 80024f6:	2401      	movs	r4, #1
 80024f8:	4094      	lsls	r4, r2
 80024fa:	429c      	cmp	r4, r3
 80024fc:	d9b3      	bls.n	8002466 <_malloc_r+0x116>
 80024fe:	68bc      	ldr	r4, [r7, #8]
 8002500:	6863      	ldr	r3, [r4, #4]
 8002502:	f023 0903 	bic.w	r9, r3, #3
 8002506:	45a9      	cmp	r9, r5
 8002508:	d303      	bcc.n	8002512 <_malloc_r+0x1c2>
 800250a:	eba9 0305 	sub.w	r3, r9, r5
 800250e:	2b0f      	cmp	r3, #15
 8002510:	dc7b      	bgt.n	800260a <_malloc_r+0x2ba>
 8002512:	4b5e      	ldr	r3, [pc, #376]	; (800268c <_malloc_r+0x33c>)
 8002514:	f8df a188 	ldr.w	sl, [pc, #392]	; 80026a0 <_malloc_r+0x350>
 8002518:	681a      	ldr	r2, [r3, #0]
 800251a:	f8da 3000 	ldr.w	r3, [sl]
 800251e:	3301      	adds	r3, #1
 8002520:	eb05 0802 	add.w	r8, r5, r2
 8002524:	f000 8148 	beq.w	80027b8 <_malloc_r+0x468>
 8002528:	f508 5880 	add.w	r8, r8, #4096	; 0x1000
 800252c:	f108 080f 	add.w	r8, r8, #15
 8002530:	f428 687f 	bic.w	r8, r8, #4080	; 0xff0
 8002534:	f028 080f 	bic.w	r8, r8, #15
 8002538:	4641      	mov	r1, r8
 800253a:	4630      	mov	r0, r6
 800253c:	f000 fa02 	bl	8002944 <_sbrk_r>
 8002540:	f1b0 3fff 	cmp.w	r0, #4294967295	; 0xffffffff
 8002544:	4683      	mov	fp, r0
 8002546:	f000 8104 	beq.w	8002752 <_malloc_r+0x402>
 800254a:	eb04 0009 	add.w	r0, r4, r9
 800254e:	4558      	cmp	r0, fp
 8002550:	f200 80fd 	bhi.w	800274e <_malloc_r+0x3fe>
 8002554:	4a4e      	ldr	r2, [pc, #312]	; (8002690 <_malloc_r+0x340>)
 8002556:	6813      	ldr	r3, [r2, #0]
 8002558:	4443      	add	r3, r8
 800255a:	6013      	str	r3, [r2, #0]
 800255c:	f000 814d 	beq.w	80027fa <_malloc_r+0x4aa>
 8002560:	f8da 1000 	ldr.w	r1, [sl]
 8002564:	3101      	adds	r1, #1
 8002566:	bf1b      	ittet	ne
 8002568:	ebab 0000 	subne.w	r0, fp, r0
 800256c:	181b      	addne	r3, r3, r0
 800256e:	f8ca b000 	streq.w	fp, [sl]
 8002572:	6013      	strne	r3, [r2, #0]
 8002574:	f01b 0307 	ands.w	r3, fp, #7
 8002578:	f000 8134 	beq.w	80027e4 <_malloc_r+0x494>
 800257c:	f1c3 0108 	rsb	r1, r3, #8
 8002580:	f5c3 5380 	rsb	r3, r3, #4096	; 0x1000
 8002584:	448b      	add	fp, r1
 8002586:	3308      	adds	r3, #8
 8002588:	44d8      	add	r8, fp
 800258a:	f3c8 080b 	ubfx	r8, r8, #0, #12
 800258e:	eba3 0808 	sub.w	r8, r3, r8
 8002592:	4641      	mov	r1, r8
 8002594:	4630      	mov	r0, r6
 8002596:	9201      	str	r2, [sp, #4]
 8002598:	f000 f9d4 	bl	8002944 <_sbrk_r>
 800259c:	1c43      	adds	r3, r0, #1
 800259e:	9a01      	ldr	r2, [sp, #4]
 80025a0:	f000 8146 	beq.w	8002830 <_malloc_r+0x4e0>
 80025a4:	eba0 010b 	sub.w	r1, r0, fp
 80025a8:	4441      	add	r1, r8
 80025aa:	f041 0101 	orr.w	r1, r1, #1
 80025ae:	6813      	ldr	r3, [r2, #0]
 80025b0:	f8c7 b008 	str.w	fp, [r7, #8]
 80025b4:	4443      	add	r3, r8
 80025b6:	42bc      	cmp	r4, r7
 80025b8:	f8cb 1004 	str.w	r1, [fp, #4]
 80025bc:	6013      	str	r3, [r2, #0]
 80025be:	d015      	beq.n	80025ec <_malloc_r+0x29c>
 80025c0:	f1b9 0f0f 	cmp.w	r9, #15
 80025c4:	f240 8130 	bls.w	8002828 <_malloc_r+0x4d8>
 80025c8:	6860      	ldr	r0, [r4, #4]
 80025ca:	f1a9 010c 	sub.w	r1, r9, #12
 80025ce:	f021 0107 	bic.w	r1, r1, #7
 80025d2:	f000 0001 	and.w	r0, r0, #1
 80025d6:	eb04 0c01 	add.w	ip, r4, r1
 80025da:	4308      	orrs	r0, r1
 80025dc:	f04f 0e05 	mov.w	lr, #5
 80025e0:	290f      	cmp	r1, #15
 80025e2:	6060      	str	r0, [r4, #4]
 80025e4:	e9cc ee01 	strd	lr, lr, [ip, #4]
 80025e8:	f200 813a 	bhi.w	8002860 <_malloc_r+0x510>
 80025ec:	4a29      	ldr	r2, [pc, #164]	; (8002694 <_malloc_r+0x344>)
 80025ee:	482a      	ldr	r0, [pc, #168]	; (8002698 <_malloc_r+0x348>)
 80025f0:	6811      	ldr	r1, [r2, #0]
 80025f2:	68bc      	ldr	r4, [r7, #8]
 80025f4:	428b      	cmp	r3, r1
 80025f6:	6801      	ldr	r1, [r0, #0]
 80025f8:	bf88      	it	hi
 80025fa:	6013      	strhi	r3, [r2, #0]
 80025fc:	6862      	ldr	r2, [r4, #4]
 80025fe:	428b      	cmp	r3, r1
 8002600:	f022 0203 	bic.w	r2, r2, #3
 8002604:	bf88      	it	hi
 8002606:	6003      	strhi	r3, [r0, #0]
 8002608:	e0a7      	b.n	800275a <_malloc_r+0x40a>
 800260a:	1962      	adds	r2, r4, r5
 800260c:	f043 0301 	orr.w	r3, r3, #1
 8002610:	f045 0501 	orr.w	r5, r5, #1
 8002614:	6065      	str	r5, [r4, #4]
 8002616:	4630      	mov	r0, r6
 8002618:	60ba      	str	r2, [r7, #8]
 800261a:	6053      	str	r3, [r2, #4]
 800261c:	f000 f98c 	bl	8002938 <__malloc_unlock>
 8002620:	3408      	adds	r4, #8
 8002622:	4620      	mov	r0, r4
 8002624:	b003      	add	sp, #12
 8002626:	e8bd 8ff0 	ldmia.w	sp!, {r4, r5, r6, r7, r8, r9, sl, fp, pc}
 800262a:	4423      	add	r3, r4
 800262c:	68e1      	ldr	r1, [r4, #12]
 800262e:	685a      	ldr	r2, [r3, #4]
 8002630:	68a5      	ldr	r5, [r4, #8]
 8002632:	f042 0201 	orr.w	r2, r2, #1
 8002636:	60e9      	str	r1, [r5, #12]
 8002638:	4630      	mov	r0, r6
 800263a:	608d      	str	r5, [r1, #8]
 800263c:	605a      	str	r2, [r3, #4]
 800263e:	f000 f97b 	bl	8002938 <__malloc_unlock>
 8002642:	3408      	adds	r4, #8
 8002644:	4620      	mov	r0, r4
 8002646:	b003      	add	sp, #12
 8002648:	e8bd 8ff0 	ldmia.w	sp!, {r4, r5, r6, r7, r8, r9, sl, fp, pc}
 800264c:	68dc      	ldr	r4, [r3, #12]
 800264e:	42a3      	cmp	r3, r4
 8002650:	bf08      	it	eq
 8002652:	3002      	addeq	r0, #2
 8002654:	f43f aed6 	beq.w	8002404 <_malloc_r+0xb4>
 8002658:	e692      	b.n	8002380 <_malloc_r+0x30>
 800265a:	2b14      	cmp	r3, #20
 800265c:	d971      	bls.n	8002742 <_malloc_r+0x3f2>
 800265e:	2b54      	cmp	r3, #84	; 0x54
 8002660:	f200 80ad 	bhi.w	80027be <_malloc_r+0x46e>
 8002664:	0b2b      	lsrs	r3, r5, #12
 8002666:	f103 006f 	add.w	r0, r3, #111	; 0x6f
 800266a:	f103 0c6e 	add.w	ip, r3, #110	; 0x6e
 800266e:	00c3      	lsls	r3, r0, #3
 8002670:	e6b3      	b.n	80023da <_malloc_r+0x8a>
 8002672:	4423      	add	r3, r4
 8002674:	4630      	mov	r0, r6
 8002676:	685a      	ldr	r2, [r3, #4]
 8002678:	f042 0201 	orr.w	r2, r2, #1
 800267c:	605a      	str	r2, [r3, #4]
 800267e:	3408      	adds	r4, #8
 8002680:	f000 f95a 	bl	8002938 <__malloc_unlock>
 8002684:	e68c      	b.n	80023a0 <_malloc_r+0x50>
 8002686:	bf00      	nop
 8002688:	20000430 	.word	0x20000430
 800268c:	20000a10 	.word	0x20000a10
 8002690:	200009e0 	.word	0x200009e0
 8002694:	20000a08 	.word	0x20000a08
 8002698:	20000a0c 	.word	0x20000a0c
 800269c:	20000438 	.word	0x20000438
 80026a0:	20000838 	.word	0x20000838
 80026a4:	1961      	adds	r1, r4, r5
 80026a6:	f045 0e01 	orr.w	lr, r5, #1
 80026aa:	f042 0501 	orr.w	r5, r2, #1
 80026ae:	f8c4 e004 	str.w	lr, [r4, #4]
 80026b2:	4630      	mov	r0, r6
 80026b4:	e9c7 1104 	strd	r1, r1, [r7, #16]
 80026b8:	e9c1 cc02 	strd	ip, ip, [r1, #8]
 80026bc:	604d      	str	r5, [r1, #4]
 80026be:	50e2      	str	r2, [r4, r3]
 80026c0:	f000 f93a 	bl	8002938 <__malloc_unlock>
 80026c4:	3408      	adds	r4, #8
 80026c6:	e66b      	b.n	80023a0 <_malloc_r+0x50>
 80026c8:	08e8      	lsrs	r0, r5, #3
 80026ca:	f105 0308 	add.w	r3, r5, #8
 80026ce:	e64f      	b.n	8002370 <_malloc_r+0x20>
 80026d0:	f108 0801 	add.w	r8, r8, #1
 80026d4:	f018 0f03 	tst.w	r8, #3
 80026d8:	f10e 0e08 	add.w	lr, lr, #8
 80026dc:	f47f aed0 	bne.w	8002480 <_malloc_r+0x130>
 80026e0:	e052      	b.n	8002788 <_malloc_r+0x438>
 80026e2:	4419      	add	r1, r3
 80026e4:	461c      	mov	r4, r3
 80026e6:	684a      	ldr	r2, [r1, #4]
 80026e8:	68db      	ldr	r3, [r3, #12]
 80026ea:	f854 5f08 	ldr.w	r5, [r4, #8]!
 80026ee:	f042 0201 	orr.w	r2, r2, #1
 80026f2:	604a      	str	r2, [r1, #4]
 80026f4:	4630      	mov	r0, r6
 80026f6:	60eb      	str	r3, [r5, #12]
 80026f8:	609d      	str	r5, [r3, #8]
 80026fa:	f000 f91d 	bl	8002938 <__malloc_unlock>
 80026fe:	e64f      	b.n	80023a0 <_malloc_r+0x50>
 8002700:	0a5a      	lsrs	r2, r3, #9
 8002702:	2a04      	cmp	r2, #4
 8002704:	d935      	bls.n	8002772 <_malloc_r+0x422>
 8002706:	2a14      	cmp	r2, #20
 8002708:	d86f      	bhi.n	80027ea <_malloc_r+0x49a>
 800270a:	f102 015c 	add.w	r1, r2, #92	; 0x5c
 800270e:	00c9      	lsls	r1, r1, #3
 8002710:	325b      	adds	r2, #91	; 0x5b
 8002712:	eb07 0e01 	add.w	lr, r7, r1
 8002716:	5879      	ldr	r1, [r7, r1]
 8002718:	f1ae 0e08 	sub.w	lr, lr, #8
 800271c:	458e      	cmp	lr, r1
 800271e:	d058      	beq.n	80027d2 <_malloc_r+0x482>
 8002720:	684a      	ldr	r2, [r1, #4]
 8002722:	f022 0203 	bic.w	r2, r2, #3
 8002726:	429a      	cmp	r2, r3
 8002728:	d902      	bls.n	8002730 <_malloc_r+0x3e0>
 800272a:	6889      	ldr	r1, [r1, #8]
 800272c:	458e      	cmp	lr, r1
 800272e:	d1f7      	bne.n	8002720 <_malloc_r+0x3d0>
 8002730:	f8d1 e00c 	ldr.w	lr, [r1, #12]
 8002734:	687b      	ldr	r3, [r7, #4]
 8002736:	e9c4 1e02 	strd	r1, lr, [r4, #8]
 800273a:	f8ce 4008 	str.w	r4, [lr, #8]
 800273e:	60cc      	str	r4, [r1, #12]
 8002740:	e68c      	b.n	800245c <_malloc_r+0x10c>
 8002742:	f103 005c 	add.w	r0, r3, #92	; 0x5c
 8002746:	f103 0c5b 	add.w	ip, r3, #91	; 0x5b
 800274a:	00c3      	lsls	r3, r0, #3
 800274c:	e645      	b.n	80023da <_malloc_r+0x8a>
 800274e:	42bc      	cmp	r4, r7
 8002750:	d072      	beq.n	8002838 <_malloc_r+0x4e8>
 8002752:	68bc      	ldr	r4, [r7, #8]
 8002754:	6862      	ldr	r2, [r4, #4]
 8002756:	f022 0203 	bic.w	r2, r2, #3
 800275a:	4295      	cmp	r5, r2
 800275c:	eba2 0305 	sub.w	r3, r2, r5
 8002760:	d802      	bhi.n	8002768 <_malloc_r+0x418>
 8002762:	2b0f      	cmp	r3, #15
 8002764:	f73f af51 	bgt.w	800260a <_malloc_r+0x2ba>
 8002768:	4630      	mov	r0, r6
 800276a:	f000 f8e5 	bl	8002938 <__malloc_unlock>
 800276e:	2400      	movs	r4, #0
 8002770:	e616      	b.n	80023a0 <_malloc_r+0x50>
 8002772:	099a      	lsrs	r2, r3, #6
 8002774:	f102 0139 	add.w	r1, r2, #57	; 0x39
 8002778:	00c9      	lsls	r1, r1, #3
 800277a:	3238      	adds	r2, #56	; 0x38
 800277c:	e7c9      	b.n	8002712 <_malloc_r+0x3c2>
 800277e:	f8d9 9000 	ldr.w	r9, [r9]
 8002782:	4599      	cmp	r9, r3
 8002784:	f040 8083 	bne.w	800288e <_malloc_r+0x53e>
 8002788:	f010 0f03 	tst.w	r0, #3
 800278c:	f1a9 0308 	sub.w	r3, r9, #8
 8002790:	f100 30ff 	add.w	r0, r0, #4294967295	; 0xffffffff
 8002794:	d1f3      	bne.n	800277e <_malloc_r+0x42e>
 8002796:	687b      	ldr	r3, [r7, #4]
 8002798:	ea23 0304 	bic.w	r3, r3, r4
 800279c:	607b      	str	r3, [r7, #4]
 800279e:	0064      	lsls	r4, r4, #1
 80027a0:	429c      	cmp	r4, r3
 80027a2:	f63f aeac 	bhi.w	80024fe <_malloc_r+0x1ae>
 80027a6:	b91c      	cbnz	r4, 80027b0 <_malloc_r+0x460>
 80027a8:	e6a9      	b.n	80024fe <_malloc_r+0x1ae>
 80027aa:	0064      	lsls	r4, r4, #1
 80027ac:	f108 0804 	add.w	r8, r8, #4
 80027b0:	421c      	tst	r4, r3
 80027b2:	d0fa      	beq.n	80027aa <_malloc_r+0x45a>
 80027b4:	4640      	mov	r0, r8
 80027b6:	e65f      	b.n	8002478 <_malloc_r+0x128>
 80027b8:	f108 0810 	add.w	r8, r8, #16
 80027bc:	e6bc      	b.n	8002538 <_malloc_r+0x1e8>
 80027be:	f5b3 7faa 	cmp.w	r3, #340	; 0x154
 80027c2:	d826      	bhi.n	8002812 <_malloc_r+0x4c2>
 80027c4:	0beb      	lsrs	r3, r5, #15
 80027c6:	f103 0078 	add.w	r0, r3, #120	; 0x78
 80027ca:	f103 0c77 	add.w	ip, r3, #119	; 0x77
 80027ce:	00c3      	lsls	r3, r0, #3
 80027d0:	e603      	b.n	80023da <_malloc_r+0x8a>
 80027d2:	687b      	ldr	r3, [r7, #4]
 80027d4:	1092      	asrs	r2, r2, #2
 80027d6:	f04f 0801 	mov.w	r8, #1
 80027da:	fa08 f202 	lsl.w	r2, r8, r2
 80027de:	4313      	orrs	r3, r2
 80027e0:	607b      	str	r3, [r7, #4]
 80027e2:	e7a8      	b.n	8002736 <_malloc_r+0x3e6>
 80027e4:	f44f 5380 	mov.w	r3, #4096	; 0x1000
 80027e8:	e6ce      	b.n	8002588 <_malloc_r+0x238>
 80027ea:	2a54      	cmp	r2, #84	; 0x54
 80027ec:	d829      	bhi.n	8002842 <_malloc_r+0x4f2>
 80027ee:	0b1a      	lsrs	r2, r3, #12
 80027f0:	f102 016f 	add.w	r1, r2, #111	; 0x6f
 80027f4:	00c9      	lsls	r1, r1, #3
 80027f6:	326e      	adds	r2, #110	; 0x6e
 80027f8:	e78b      	b.n	8002712 <_malloc_r+0x3c2>
 80027fa:	f3c0 010b 	ubfx	r1, r0, #0, #12
 80027fe:	2900      	cmp	r1, #0
 8002800:	f47f aeae 	bne.w	8002560 <_malloc_r+0x210>
 8002804:	eb09 0208 	add.w	r2, r9, r8
 8002808:	68b9      	ldr	r1, [r7, #8]
 800280a:	f042 0201 	orr.w	r2, r2, #1
 800280e:	604a      	str	r2, [r1, #4]
 8002810:	e6ec      	b.n	80025ec <_malloc_r+0x29c>
 8002812:	f240 5254 	movw	r2, #1364	; 0x554
 8002816:	4293      	cmp	r3, r2
 8002818:	d81c      	bhi.n	8002854 <_malloc_r+0x504>
 800281a:	0cab      	lsrs	r3, r5, #18
 800281c:	f103 007d 	add.w	r0, r3, #125	; 0x7d
 8002820:	f103 0c7c 	add.w	ip, r3, #124	; 0x7c
 8002824:	00c3      	lsls	r3, r0, #3
 8002826:	e5d8      	b.n	80023da <_malloc_r+0x8a>
 8002828:	2301      	movs	r3, #1
 800282a:	f8cb 3004 	str.w	r3, [fp, #4]
 800282e:	e79b      	b.n	8002768 <_malloc_r+0x418>
 8002830:	2101      	movs	r1, #1
 8002832:	f04f 0800 	mov.w	r8, #0
 8002836:	e6ba      	b.n	80025ae <_malloc_r+0x25e>
 8002838:	4a16      	ldr	r2, [pc, #88]	; (8002894 <_malloc_r+0x544>)
 800283a:	6813      	ldr	r3, [r2, #0]
 800283c:	4443      	add	r3, r8
 800283e:	6013      	str	r3, [r2, #0]
 8002840:	e68e      	b.n	8002560 <_malloc_r+0x210>
 8002842:	f5b2 7faa 	cmp.w	r2, #340	; 0x154
 8002846:	d814      	bhi.n	8002872 <_malloc_r+0x522>
 8002848:	0bda      	lsrs	r2, r3, #15
 800284a:	f102 0178 	add.w	r1, r2, #120	; 0x78
 800284e:	00c9      	lsls	r1, r1, #3
 8002850:	3277      	adds	r2, #119	; 0x77
 8002852:	e75e      	b.n	8002712 <_malloc_r+0x3c2>
 8002854:	f44f 737e 	mov.w	r3, #1016	; 0x3f8
 8002858:	207f      	movs	r0, #127	; 0x7f
 800285a:	f04f 0c7e 	mov.w	ip, #126	; 0x7e
 800285e:	e5bc      	b.n	80023da <_malloc_r+0x8a>
 8002860:	f104 0108 	add.w	r1, r4, #8
 8002864:	4630      	mov	r0, r6
 8002866:	9201      	str	r2, [sp, #4]
 8002868:	f002 febc 	bl	80055e4 <_free_r>
 800286c:	9a01      	ldr	r2, [sp, #4]
 800286e:	6813      	ldr	r3, [r2, #0]
 8002870:	e6bc      	b.n	80025ec <_malloc_r+0x29c>
 8002872:	f240 5154 	movw	r1, #1364	; 0x554
 8002876:	428a      	cmp	r2, r1
 8002878:	d805      	bhi.n	8002886 <_malloc_r+0x536>
 800287a:	0c9a      	lsrs	r2, r3, #18
 800287c:	f102 017d 	add.w	r1, r2, #125	; 0x7d
 8002880:	00c9      	lsls	r1, r1, #3
 8002882:	327c      	adds	r2, #124	; 0x7c
 8002884:	e745      	b.n	8002712 <_malloc_r+0x3c2>
 8002886:	f44f 717e 	mov.w	r1, #1016	; 0x3f8
 800288a:	227e      	movs	r2, #126	; 0x7e
 800288c:	e741      	b.n	8002712 <_malloc_r+0x3c2>
 800288e:	687b      	ldr	r3, [r7, #4]
 8002890:	e785      	b.n	800279e <_malloc_r+0x44e>
 8002892:	bf00      	nop
 8002894:	200009e0 	.word	0x200009e0

08002898 <memset>:
 8002898:	b4f0      	push	{r4, r5, r6, r7}
 800289a:	0786      	lsls	r6, r0, #30
 800289c:	d043      	beq.n	8002926 <memset+0x8e>
 800289e:	1e54      	subs	r4, r2, #1
 80028a0:	2a00      	cmp	r2, #0
 80028a2:	d03e      	beq.n	8002922 <memset+0x8a>
 80028a4:	b2ca      	uxtb	r2, r1
 80028a6:	4603      	mov	r3, r0
 80028a8:	e002      	b.n	80028b0 <memset+0x18>
 80028aa:	f114 34ff 	adds.w	r4, r4, #4294967295	; 0xffffffff
 80028ae:	d338      	bcc.n	8002922 <memset+0x8a>
 80028b0:	f803 2b01 	strb.w	r2, [r3], #1
 80028b4:	079d      	lsls	r5, r3, #30
 80028b6:	d1f8      	bne.n	80028aa <memset+0x12>
 80028b8:	2c03      	cmp	r4, #3
 80028ba:	d92b      	bls.n	8002914 <memset+0x7c>
 80028bc:	b2cd      	uxtb	r5, r1
 80028be:	ea45 2505 	orr.w	r5, r5, r5, lsl #8
 80028c2:	2c0f      	cmp	r4, #15
 80028c4:	ea45 4505 	orr.w	r5, r5, r5, lsl #16
 80028c8:	d916      	bls.n	80028f8 <memset+0x60>
 80028ca:	f1a4 0710 	sub.w	r7, r4, #16
 80028ce:	093f      	lsrs	r7, r7, #4
 80028d0:	f103 0620 	add.w	r6, r3, #32
 80028d4:	eb06 1607 	add.w	r6, r6, r7, lsl #4
 80028d8:	f103 0210 	add.w	r2, r3, #16
 80028dc:	e942 5504 	strd	r5, r5, [r2, #-16]
 80028e0:	e942 5502 	strd	r5, r5, [r2, #-8]
 80028e4:	3210      	adds	r2, #16
 80028e6:	42b2      	cmp	r2, r6
 80028e8:	d1f8      	bne.n	80028dc <memset+0x44>
 80028ea:	f004 040f 	and.w	r4, r4, #15
 80028ee:	3701      	adds	r7, #1
 80028f0:	2c03      	cmp	r4, #3
 80028f2:	eb03 1307 	add.w	r3, r3, r7, lsl #4
 80028f6:	d90d      	bls.n	8002914 <memset+0x7c>
 80028f8:	461e      	mov	r6, r3
 80028fa:	4622      	mov	r2, r4
 80028fc:	3a04      	subs	r2, #4
 80028fe:	2a03      	cmp	r2, #3
 8002900:	f846 5b04 	str.w	r5, [r6], #4
 8002904:	d8fa      	bhi.n	80028fc <memset+0x64>
 8002906:	1f22      	subs	r2, r4, #4
 8002908:	f022 0203 	bic.w	r2, r2, #3
 800290c:	3204      	adds	r2, #4
 800290e:	4413      	add	r3, r2
 8002910:	f004 0403 	and.w	r4, r4, #3
 8002914:	b12c      	cbz	r4, 8002922 <memset+0x8a>
 8002916:	b2c9      	uxtb	r1, r1
 8002918:	441c      	add	r4, r3
 800291a:	f803 1b01 	strb.w	r1, [r3], #1
 800291e:	429c      	cmp	r4, r3
 8002920:	d1fb      	bne.n	800291a <memset+0x82>
 8002922:	bcf0      	pop	{r4, r5, r6, r7}
 8002924:	4770      	bx	lr
 8002926:	4614      	mov	r4, r2
 8002928:	4603      	mov	r3, r0
 800292a:	e7c5      	b.n	80028b8 <memset+0x20>

0800292c <__malloc_lock>:
 800292c:	4801      	ldr	r0, [pc, #4]	; (8002934 <__malloc_lock+0x8>)
 800292e:	f002 bf75 	b.w	800581c <__retarget_lock_acquire_recursive>
 8002932:	bf00      	nop
 8002934:	20000a2c 	.word	0x20000a2c

08002938 <__malloc_unlock>:
 8002938:	4801      	ldr	r0, [pc, #4]	; (8002940 <__malloc_unlock+0x8>)
 800293a:	f002 bf77 	b.w	800582c <__retarget_lock_release_recursive>
 800293e:	bf00      	nop
 8002940:	20000a2c 	.word	0x20000a2c

08002944 <_sbrk_r>:
 8002944:	b538      	push	{r3, r4, r5, lr}
 8002946:	4c07      	ldr	r4, [pc, #28]	; (8002964 <_sbrk_r+0x20>)
 8002948:	2300      	movs	r3, #0
 800294a:	4605      	mov	r5, r0
 800294c:	4608      	mov	r0, r1
 800294e:	6023      	str	r3, [r4, #0]
 8002950:	f7fe fcec 	bl	800132c <_sbrk>
 8002954:	1c43      	adds	r3, r0, #1
 8002956:	d000      	beq.n	800295a <_sbrk_r+0x16>
 8002958:	bd38      	pop	{r3, r4, r5, pc}
 800295a:	6823      	ldr	r3, [r4, #0]
 800295c:	2b00      	cmp	r3, #0
 800295e:	d0fb      	beq.n	8002958 <_sbrk_r+0x14>
 8002960:	602b      	str	r3, [r5, #0]
 8002962:	bd38      	pop	{r3, r4, r5, pc}
 8002964:	20000a40 	.word	0x20000a40

08002968 <_sprintf_r>:
 8002968:	b40c      	push	{r2, r3}
 800296a:	b570      	push	{r4, r5, r6, lr}
 800296c:	b09c      	sub	sp, #112	; 0x70
 800296e:	ac20      	add	r4, sp, #128	; 0x80
 8002970:	4e0b      	ldr	r6, [pc, #44]	; (80029a0 <_sprintf_r+0x38>)
 8002972:	f854 2b04 	ldr.w	r2, [r4], #4
 8002976:	9102      	str	r1, [sp, #8]
 8002978:	4623      	mov	r3, r4
 800297a:	9106      	str	r1, [sp, #24]
 800297c:	f06f 4500 	mvn.w	r5, #2147483648	; 0x80000000
 8002980:	a902      	add	r1, sp, #8
 8002982:	9401      	str	r4, [sp, #4]
 8002984:	9507      	str	r5, [sp, #28]
 8002986:	e9cd 5604 	strd	r5, r6, [sp, #16]
 800298a:	f000 f965 	bl	8002c58 <_svfprintf_r>
 800298e:	9b02      	ldr	r3, [sp, #8]
 8002990:	2200      	movs	r2, #0
 8002992:	701a      	strb	r2, [r3, #0]
 8002994:	b01c      	add	sp, #112	; 0x70
 8002996:	e8bd 4070 	ldmia.w	sp!, {r4, r5, r6, lr}
 800299a:	b002      	add	sp, #8
 800299c:	4770      	bx	lr
 800299e:	bf00      	nop
 80029a0:	ffff0208 	.word	0xffff0208

080029a4 <sprintf>:
 80029a4:	b40e      	push	{r1, r2, r3}
 80029a6:	b530      	push	{r4, r5, lr}
 80029a8:	b09c      	sub	sp, #112	; 0x70
 80029aa:	ab1f      	add	r3, sp, #124	; 0x7c
 80029ac:	4c0c      	ldr	r4, [pc, #48]	; (80029e0 <sprintf+0x3c>)
 80029ae:	4d0d      	ldr	r5, [pc, #52]	; (80029e4 <sprintf+0x40>)
 80029b0:	f853 2b04 	ldr.w	r2, [r3], #4
 80029b4:	9301      	str	r3, [sp, #4]
 80029b6:	4601      	mov	r1, r0
 80029b8:	9102      	str	r1, [sp, #8]
 80029ba:	9106      	str	r1, [sp, #24]
 80029bc:	6820      	ldr	r0, [r4, #0]
 80029be:	a902      	add	r1, sp, #8
 80029c0:	f06f 4400 	mvn.w	r4, #2147483648	; 0x80000000
 80029c4:	9407      	str	r4, [sp, #28]
 80029c6:	e9cd 4504 	strd	r4, r5, [sp, #16]
 80029ca:	f000 f945 	bl	8002c58 <_svfprintf_r>
 80029ce:	9b02      	ldr	r3, [sp, #8]
 80029d0:	2200      	movs	r2, #0
 80029d2:	701a      	strb	r2, [r3, #0]
 80029d4:	b01c      	add	sp, #112	; 0x70
 80029d6:	e8bd 4030 	ldmia.w	sp!, {r4, r5, lr}
 80029da:	b003      	add	sp, #12
 80029dc:	4770      	bx	lr
 80029de:	bf00      	nop
 80029e0:	20000004 	.word	0x20000004
 80029e4:	ffff0208 	.word	0xffff0208

080029e8 <strcat>:
 80029e8:	0783      	lsls	r3, r0, #30
 80029ea:	b510      	push	{r4, lr}
 80029ec:	4604      	mov	r4, r0
 80029ee:	d110      	bne.n	8002a12 <strcat+0x2a>
 80029f0:	6802      	ldr	r2, [r0, #0]
 80029f2:	f1a2 3301 	sub.w	r3, r2, #16843009	; 0x1010101
 80029f6:	ea23 0302 	bic.w	r3, r3, r2
 80029fa:	f013 3f80 	tst.w	r3, #2155905152	; 0x80808080
 80029fe:	d108      	bne.n	8002a12 <strcat+0x2a>
 8002a00:	f850 2f04 	ldr.w	r2, [r0, #4]!
 8002a04:	f1a2 3301 	sub.w	r3, r2, #16843009	; 0x1010101
 8002a08:	ea23 0302 	bic.w	r3, r3, r2
 8002a0c:	f013 3f80 	tst.w	r3, #2155905152	; 0x80808080
 8002a10:	d0f6      	beq.n	8002a00 <strcat+0x18>
 8002a12:	7803      	ldrb	r3, [r0, #0]
 8002a14:	b11b      	cbz	r3, 8002a1e <strcat+0x36>
 8002a16:	f810 3f01 	ldrb.w	r3, [r0, #1]!
 8002a1a:	2b00      	cmp	r3, #0
 8002a1c:	d1fb      	bne.n	8002a16 <strcat+0x2e>
 8002a1e:	f000 f803 	bl	8002a28 <strcpy>
 8002a22:	4620      	mov	r0, r4
 8002a24:	bd10      	pop	{r4, pc}
 8002a26:	bf00      	nop

08002a28 <strcpy>:
 8002a28:	ea80 0201 	eor.w	r2, r0, r1
 8002a2c:	4684      	mov	ip, r0
 8002a2e:	f012 0f03 	tst.w	r2, #3
 8002a32:	d14f      	bne.n	8002ad4 <strcpy+0xac>
 8002a34:	f011 0f03 	tst.w	r1, #3
 8002a38:	d132      	bne.n	8002aa0 <strcpy+0x78>
 8002a3a:	f84d 4d04 	str.w	r4, [sp, #-4]!
 8002a3e:	f011 0f04 	tst.w	r1, #4
 8002a42:	f851 3b04 	ldr.w	r3, [r1], #4
 8002a46:	d00b      	beq.n	8002a60 <strcpy+0x38>
 8002a48:	f1a3 3201 	sub.w	r2, r3, #16843009	; 0x1010101
 8002a4c:	439a      	bics	r2, r3
 8002a4e:	f012 3f80 	tst.w	r2, #2155905152	; 0x80808080
 8002a52:	bf04      	itt	eq
 8002a54:	f84c 3b04 	streq.w	r3, [ip], #4
 8002a58:	f851 3b04 	ldreq.w	r3, [r1], #4
 8002a5c:	d116      	bne.n	8002a8c <strcpy+0x64>
 8002a5e:	bf00      	nop
 8002a60:	f851 4b04 	ldr.w	r4, [r1], #4
 8002a64:	f1a3 3201 	sub.w	r2, r3, #16843009	; 0x1010101
 8002a68:	439a      	bics	r2, r3
 8002a6a:	f012 3f80 	tst.w	r2, #2155905152	; 0x80808080
 8002a6e:	f1a4 3201 	sub.w	r2, r4, #16843009	; 0x1010101
 8002a72:	d10b      	bne.n	8002a8c <strcpy+0x64>
 8002a74:	f84c 3b04 	str.w	r3, [ip], #4
 8002a78:	43a2      	bics	r2, r4
 8002a7a:	f012 3f80 	tst.w	r2, #2155905152	; 0x80808080
 8002a7e:	bf04      	itt	eq
 8002a80:	f851 3b04 	ldreq.w	r3, [r1], #4
 8002a84:	f84c 4b04 	streq.w	r4, [ip], #4
 8002a88:	d0ea      	beq.n	8002a60 <strcpy+0x38>
 8002a8a:	4623      	mov	r3, r4
 8002a8c:	f80c 3b01 	strb.w	r3, [ip], #1
 8002a90:	f013 0fff 	tst.w	r3, #255	; 0xff
 8002a94:	ea4f 2333 	mov.w	r3, r3, ror #8
 8002a98:	d1f8      	bne.n	8002a8c <strcpy+0x64>
 8002a9a:	f85d 4b04 	ldr.w	r4, [sp], #4
 8002a9e:	4770      	bx	lr
 8002aa0:	f011 0f01 	tst.w	r1, #1
 8002aa4:	d006      	beq.n	8002ab4 <strcpy+0x8c>
 8002aa6:	f811 2b01 	ldrb.w	r2, [r1], #1
 8002aaa:	f80c 2b01 	strb.w	r2, [ip], #1
 8002aae:	2a00      	cmp	r2, #0
 8002ab0:	bf08      	it	eq
 8002ab2:	4770      	bxeq	lr
 8002ab4:	f011 0f02 	tst.w	r1, #2
 8002ab8:	d0bf      	beq.n	8002a3a <strcpy+0x12>
 8002aba:	f831 2b02 	ldrh.w	r2, [r1], #2
 8002abe:	f012 0fff 	tst.w	r2, #255	; 0xff
 8002ac2:	bf16      	itet	ne
 8002ac4:	f82c 2b02 	strhne.w	r2, [ip], #2
 8002ac8:	f88c 2000 	strbeq.w	r2, [ip]
 8002acc:	f412 4f7f 	tstne.w	r2, #65280	; 0xff00
 8002ad0:	d1b3      	bne.n	8002a3a <strcpy+0x12>
 8002ad2:	4770      	bx	lr
 8002ad4:	f811 2b01 	ldrb.w	r2, [r1], #1
 8002ad8:	f80c 2b01 	strb.w	r2, [ip], #1
 8002adc:	2a00      	cmp	r2, #0
 8002ade:	d1f9      	bne.n	8002ad4 <strcpy+0xac>
 8002ae0:	4770      	bx	lr
 8002ae2:	bf00      	nop
	...

08002b00 <strlen>:
 8002b00:	f890 f000 	pld	[r0]
 8002b04:	e96d 4502 	strd	r4, r5, [sp, #-8]!
 8002b08:	f020 0107 	bic.w	r1, r0, #7
 8002b0c:	f06f 0c00 	mvn.w	ip, #0
 8002b10:	f010 0407 	ands.w	r4, r0, #7
 8002b14:	f891 f020 	pld	[r1, #32]
 8002b18:	f040 8049 	bne.w	8002bae <strlen+0xae>
 8002b1c:	f04f 0400 	mov.w	r4, #0
 8002b20:	f06f 0007 	mvn.w	r0, #7
 8002b24:	e9d1 2300 	ldrd	r2, r3, [r1]
 8002b28:	f891 f040 	pld	[r1, #64]	; 0x40
 8002b2c:	f100 0008 	add.w	r0, r0, #8
 8002b30:	fa82 f24c 	uadd8	r2, r2, ip
 8002b34:	faa4 f28c 	sel	r2, r4, ip
 8002b38:	fa83 f34c 	uadd8	r3, r3, ip
 8002b3c:	faa2 f38c 	sel	r3, r2, ip
 8002b40:	bb4b      	cbnz	r3, 8002b96 <strlen+0x96>
 8002b42:	e9d1 2302 	ldrd	r2, r3, [r1, #8]
 8002b46:	fa82 f24c 	uadd8	r2, r2, ip
 8002b4a:	f100 0008 	add.w	r0, r0, #8
 8002b4e:	faa4 f28c 	sel	r2, r4, ip
 8002b52:	fa83 f34c 	uadd8	r3, r3, ip
 8002b56:	faa2 f38c 	sel	r3, r2, ip
 8002b5a:	b9e3      	cbnz	r3, 8002b96 <strlen+0x96>
 8002b5c:	e9d1 2304 	ldrd	r2, r3, [r1, #16]
 8002b60:	fa82 f24c 	uadd8	r2, r2, ip
 8002b64:	f100 0008 	add.w	r0, r0, #8
 8002b68:	faa4 f28c 	sel	r2, r4, ip
 8002b6c:	fa83 f34c 	uadd8	r3, r3, ip
 8002b70:	faa2 f38c 	sel	r3, r2, ip
 8002b74:	b97b      	cbnz	r3, 8002b96 <strlen+0x96>
 8002b76:	e9d1 2306 	ldrd	r2, r3, [r1, #24]
 8002b7a:	f101 0120 	add.w	r1, r1, #32
 8002b7e:	fa82 f24c 	uadd8	r2, r2, ip
 8002b82:	f100 0008 	add.w	r0, r0, #8
 8002b86:	faa4 f28c 	sel	r2, r4, ip
 8002b8a:	fa83 f34c 	uadd8	r3, r3, ip
 8002b8e:	faa2 f38c 	sel	r3, r2, ip
 8002b92:	2b00      	cmp	r3, #0
 8002b94:	d0c6      	beq.n	8002b24 <strlen+0x24>
 8002b96:	2a00      	cmp	r2, #0
 8002b98:	bf04      	itt	eq
 8002b9a:	3004      	addeq	r0, #4
 8002b9c:	461a      	moveq	r2, r3
 8002b9e:	ba12      	rev	r2, r2
 8002ba0:	fab2 f282 	clz	r2, r2
 8002ba4:	e8fd 4502 	ldrd	r4, r5, [sp], #8
 8002ba8:	eb00 00d2 	add.w	r0, r0, r2, lsr #3
 8002bac:	4770      	bx	lr
 8002bae:	e9d1 2300 	ldrd	r2, r3, [r1]
 8002bb2:	f004 0503 	and.w	r5, r4, #3
 8002bb6:	f1c4 0000 	rsb	r0, r4, #0
 8002bba:	ea4f 05c5 	mov.w	r5, r5, lsl #3
 8002bbe:	f014 0f04 	tst.w	r4, #4
 8002bc2:	f891 f040 	pld	[r1, #64]	; 0x40
 8002bc6:	fa0c f505 	lsl.w	r5, ip, r5
 8002bca:	ea62 0205 	orn	r2, r2, r5
 8002bce:	bf1c      	itt	ne
 8002bd0:	ea63 0305 	ornne	r3, r3, r5
 8002bd4:	4662      	movne	r2, ip
 8002bd6:	f04f 0400 	mov.w	r4, #0
 8002bda:	e7a9      	b.n	8002b30 <strlen+0x30>

08002bdc <strtok>:
 8002bdc:	4b02      	ldr	r3, [pc, #8]	; (8002be8 <strtok+0xc>)
 8002bde:	681a      	ldr	r2, [r3, #0]
 8002be0:	2301      	movs	r3, #1
 8002be2:	325c      	adds	r2, #92	; 0x5c
 8002be4:	f000 b802 	b.w	8002bec <__strtok_r>
 8002be8:	20000004 	.word	0x20000004

08002bec <__strtok_r>:
 8002bec:	b4f0      	push	{r4, r5, r6, r7}
 8002bee:	b320      	cbz	r0, 8002c3a <__strtok_r+0x4e>
 8002bf0:	4607      	mov	r7, r0
 8002bf2:	460d      	mov	r5, r1
 8002bf4:	f817 6b01 	ldrb.w	r6, [r7], #1
 8002bf8:	e001      	b.n	8002bfe <__strtok_r+0x12>
 8002bfa:	42a6      	cmp	r6, r4
 8002bfc:	d016      	beq.n	8002c2c <__strtok_r+0x40>
 8002bfe:	f815 4b01 	ldrb.w	r4, [r5], #1
 8002c02:	2c00      	cmp	r4, #0
 8002c04:	d1f9      	bne.n	8002bfa <__strtok_r+0xe>
 8002c06:	b1ee      	cbz	r6, 8002c44 <__strtok_r+0x58>
 8002c08:	463e      	mov	r6, r7
 8002c0a:	460c      	mov	r4, r1
 8002c0c:	f816 5b01 	ldrb.w	r5, [r6], #1
 8002c10:	e000      	b.n	8002c14 <__strtok_r+0x28>
 8002c12:	b173      	cbz	r3, 8002c32 <__strtok_r+0x46>
 8002c14:	f814 3b01 	ldrb.w	r3, [r4], #1
 8002c18:	429d      	cmp	r5, r3
 8002c1a:	d1fa      	bne.n	8002c12 <__strtok_r+0x26>
 8002c1c:	b15d      	cbz	r5, 8002c36 <__strtok_r+0x4a>
 8002c1e:	2300      	movs	r3, #0
 8002c20:	703b      	strb	r3, [r7, #0]
 8002c22:	6016      	str	r6, [r2, #0]
 8002c24:	4606      	mov	r6, r0
 8002c26:	4630      	mov	r0, r6
 8002c28:	bcf0      	pop	{r4, r5, r6, r7}
 8002c2a:	4770      	bx	lr
 8002c2c:	b163      	cbz	r3, 8002c48 <__strtok_r+0x5c>
 8002c2e:	4638      	mov	r0, r7
 8002c30:	e7de      	b.n	8002bf0 <__strtok_r+0x4>
 8002c32:	4637      	mov	r7, r6
 8002c34:	e7e8      	b.n	8002c08 <__strtok_r+0x1c>
 8002c36:	462e      	mov	r6, r5
 8002c38:	e7f3      	b.n	8002c22 <__strtok_r+0x36>
 8002c3a:	6810      	ldr	r0, [r2, #0]
 8002c3c:	2800      	cmp	r0, #0
 8002c3e:	d1d7      	bne.n	8002bf0 <__strtok_r+0x4>
 8002c40:	4606      	mov	r6, r0
 8002c42:	e7f0      	b.n	8002c26 <__strtok_r+0x3a>
 8002c44:	6016      	str	r6, [r2, #0]
 8002c46:	e7ee      	b.n	8002c26 <__strtok_r+0x3a>
 8002c48:	6017      	str	r7, [r2, #0]
 8002c4a:	4606      	mov	r6, r0
 8002c4c:	7003      	strb	r3, [r0, #0]
 8002c4e:	e7ea      	b.n	8002c26 <__strtok_r+0x3a>

08002c50 <strtok_r>:
 8002c50:	2301      	movs	r3, #1
 8002c52:	f7ff bfcb 	b.w	8002bec <__strtok_r>
 8002c56:	bf00      	nop

08002c58 <_svfprintf_r>:
 8002c58:	e92d 4ff0 	stmdb	sp!, {r4, r5, r6, r7, r8, r9, sl, fp, lr}
 8002c5c:	b0d9      	sub	sp, #356	; 0x164
 8002c5e:	460c      	mov	r4, r1
 8002c60:	910a      	str	r1, [sp, #40]	; 0x28
 8002c62:	4693      	mov	fp, r2
 8002c64:	930d      	str	r3, [sp, #52]	; 0x34
 8002c66:	9007      	str	r0, [sp, #28]
 8002c68:	f002 fdb2 	bl	80057d0 <_localeconv_r>
 8002c6c:	6803      	ldr	r3, [r0, #0]
 8002c6e:	931d      	str	r3, [sp, #116]	; 0x74
 8002c70:	4618      	mov	r0, r3
 8002c72:	f7ff ff45 	bl	8002b00 <strlen>
 8002c76:	89a3      	ldrh	r3, [r4, #12]
 8002c78:	901c      	str	r0, [sp, #112]	; 0x70
 8002c7a:	061f      	lsls	r7, r3, #24
 8002c7c:	d503      	bpl.n	8002c86 <_svfprintf_r+0x2e>
 8002c7e:	6923      	ldr	r3, [r4, #16]
 8002c80:	2b00      	cmp	r3, #0
 8002c82:	f000 8752 	beq.w	8003b2a <_svfprintf_r+0xed2>
 8002c86:	2300      	movs	r3, #0
 8002c88:	465e      	mov	r6, fp
 8002c8a:	4618      	mov	r0, r3
 8002c8c:	9314      	str	r3, [sp, #80]	; 0x50
 8002c8e:	9318      	str	r3, [sp, #96]	; 0x60
 8002c90:	9317      	str	r3, [sp, #92]	; 0x5c
 8002c92:	e9cd 332d 	strd	r3, r3, [sp, #180]	; 0xb4
 8002c96:	931b      	str	r3, [sp, #108]	; 0x6c
 8002c98:	e9cd 331f 	strd	r3, r3, [sp, #124]	; 0x7c
 8002c9c:	9321      	str	r3, [sp, #132]	; 0x84
 8002c9e:	931e      	str	r3, [sp, #120]	; 0x78
 8002ca0:	9309      	str	r3, [sp, #36]	; 0x24
 8002ca2:	ab2f      	add	r3, sp, #188	; 0xbc
 8002ca4:	932c      	str	r3, [sp, #176]	; 0xb0
 8002ca6:	4699      	mov	r9, r3
 8002ca8:	7833      	ldrb	r3, [r6, #0]
 8002caa:	e9cd 0019 	strd	r0, r0, [sp, #100]	; 0x64
 8002cae:	2b00      	cmp	r3, #0
 8002cb0:	f000 82c9 	beq.w	8003246 <_svfprintf_r+0x5ee>
 8002cb4:	2b25      	cmp	r3, #37	; 0x25
 8002cb6:	4634      	mov	r4, r6
 8002cb8:	d102      	bne.n	8002cc0 <_svfprintf_r+0x68>
 8002cba:	e01c      	b.n	8002cf6 <_svfprintf_r+0x9e>
 8002cbc:	2b25      	cmp	r3, #37	; 0x25
 8002cbe:	d003      	beq.n	8002cc8 <_svfprintf_r+0x70>
 8002cc0:	f814 3f01 	ldrb.w	r3, [r4, #1]!
 8002cc4:	2b00      	cmp	r3, #0
 8002cc6:	d1f9      	bne.n	8002cbc <_svfprintf_r+0x64>
 8002cc8:	1ba5      	subs	r5, r4, r6
 8002cca:	b185      	cbz	r5, 8002cee <_svfprintf_r+0x96>
 8002ccc:	e9dd 322d 	ldrd	r3, r2, [sp, #180]	; 0xb4
 8002cd0:	3301      	adds	r3, #1
 8002cd2:	442a      	add	r2, r5
 8002cd4:	2b07      	cmp	r3, #7
 8002cd6:	f8c9 6000 	str.w	r6, [r9]
 8002cda:	f8c9 5004 	str.w	r5, [r9, #4]
 8002cde:	e9cd 322d 	strd	r3, r2, [sp, #180]	; 0xb4
 8002ce2:	dc7c      	bgt.n	8002dde <_svfprintf_r+0x186>
 8002ce4:	f109 0908 	add.w	r9, r9, #8
 8002ce8:	9b09      	ldr	r3, [sp, #36]	; 0x24
 8002cea:	442b      	add	r3, r5
 8002cec:	9309      	str	r3, [sp, #36]	; 0x24
 8002cee:	7823      	ldrb	r3, [r4, #0]
 8002cf0:	2b00      	cmp	r3, #0
 8002cf2:	f000 82a8 	beq.w	8003246 <_svfprintf_r+0x5ee>
 8002cf6:	2300      	movs	r3, #0
 8002cf8:	7867      	ldrb	r7, [r4, #1]
 8002cfa:	930b      	str	r3, [sp, #44]	; 0x2c
 8002cfc:	4698      	mov	r8, r3
 8002cfe:	f88d 3093 	strb.w	r3, [sp, #147]	; 0x93
 8002d02:	f104 0b01 	add.w	fp, r4, #1
 8002d06:	f04f 3aff 	mov.w	sl, #4294967295	; 0xffffffff
 8002d0a:	252b      	movs	r5, #43	; 0x2b
 8002d0c:	f10b 0b01 	add.w	fp, fp, #1
 8002d10:	f1a7 0320 	sub.w	r3, r7, #32
 8002d14:	2b5a      	cmp	r3, #90	; 0x5a
 8002d16:	f200 83db 	bhi.w	80034d0 <_svfprintf_r+0x878>
 8002d1a:	e8df f013 	tbh	[pc, r3, lsl #1]
 8002d1e:	039c      	.short	0x039c
 8002d20:	03d903d9 	.word	0x03d903d9
 8002d24:	03d90397 	.word	0x03d90397
 8002d28:	03d903d9 	.word	0x03d903d9
 8002d2c:	03d90378 	.word	0x03d90378
 8002d30:	03ac03d9 	.word	0x03ac03d9
 8002d34:	03d903a7 	.word	0x03d903a7
 8002d38:	0153016d 	.word	0x0153016d
 8002d3c:	033603d9 	.word	0x033603d9
 8002d40:	00c600c6 	.word	0x00c600c6
 8002d44:	00c600c6 	.word	0x00c600c6
 8002d48:	00c600c6 	.word	0x00c600c6
 8002d4c:	00c600c6 	.word	0x00c600c6
 8002d50:	03d900c6 	.word	0x03d900c6
 8002d54:	03d903d9 	.word	0x03d903d9
 8002d58:	03d903d9 	.word	0x03d903d9
 8002d5c:	03d903d9 	.word	0x03d903d9
 8002d60:	03d9033b 	.word	0x03d9033b
 8002d64:	02eb0172 	.word	0x02eb0172
 8002d68:	033b033b 	.word	0x033b033b
 8002d6c:	03d9033b 	.word	0x03d9033b
 8002d70:	03d903d9 	.word	0x03d903d9
 8002d74:	02e603d9 	.word	0x02e603d9
 8002d78:	03d903d9 	.word	0x03d903d9
 8002d7c:	03d90084 	.word	0x03d90084
 8002d80:	03d903d9 	.word	0x03d903d9
 8002d84:	03d902bf 	.word	0x03d902bf
 8002d88:	03d903c5 	.word	0x03d903c5
 8002d8c:	02a003d9 	.word	0x02a003d9
 8002d90:	03d903d9 	.word	0x03d903d9
 8002d94:	03d903d9 	.word	0x03d903d9
 8002d98:	03d903d9 	.word	0x03d903d9
 8002d9c:	03d903d9 	.word	0x03d903d9
 8002da0:	03d9033b 	.word	0x03d9033b
 8002da4:	00d50172 	.word	0x00d50172
 8002da8:	033b033b 	.word	0x033b033b
 8002dac:	03b8033b 	.word	0x03b8033b
 8002db0:	005b00d5 	.word	0x005b00d5
 8002db4:	031903d9 	.word	0x031903d9
 8002db8:	030103d9 	.word	0x030103d9
 8002dbc:	03260086 	.word	0x03260086
 8002dc0:	03d9005b 	.word	0x03d9005b
 8002dc4:	005d02bf 	.word	0x005d02bf
 8002dc8:	03d90124 	.word	0x03d90124
 8002dcc:	013303d9 	.word	0x013303d9
 8002dd0:	005d03d9 	.word	0x005d03d9
 8002dd4:	f048 0820 	orr.w	r8, r8, #32
 8002dd8:	f89b 7000 	ldrb.w	r7, [fp]
 8002ddc:	e796      	b.n	8002d0c <_svfprintf_r+0xb4>
 8002dde:	aa2c      	add	r2, sp, #176	; 0xb0
 8002de0:	990a      	ldr	r1, [sp, #40]	; 0x28
 8002de2:	9807      	ldr	r0, [sp, #28]
 8002de4:	f003 fb30 	bl	8006448 <__ssprint_r>
 8002de8:	b980      	cbnz	r0, 8002e0c <_svfprintf_r+0x1b4>
 8002dea:	f10d 09bc 	add.w	r9, sp, #188	; 0xbc
 8002dee:	e77b      	b.n	8002ce8 <_svfprintf_r+0x90>
 8002df0:	aa2c      	add	r2, sp, #176	; 0xb0
 8002df2:	4659      	mov	r1, fp
 8002df4:	4650      	mov	r0, sl
 8002df6:	f003 fb27 	bl	8006448 <__ssprint_r>
 8002dfa:	2800      	cmp	r0, #0
 8002dfc:	f001 80c4 	beq.w	8003f88 <_svfprintf_r+0x1330>
 8002e00:	9b10      	ldr	r3, [sp, #64]	; 0x40
 8002e02:	b11b      	cbz	r3, 8002e0c <_svfprintf_r+0x1b4>
 8002e04:	9910      	ldr	r1, [sp, #64]	; 0x40
 8002e06:	9807      	ldr	r0, [sp, #28]
 8002e08:	f002 fbec 	bl	80055e4 <_free_r>
 8002e0c:	9b0a      	ldr	r3, [sp, #40]	; 0x28
 8002e0e:	899b      	ldrh	r3, [r3, #12]
 8002e10:	f013 0f40 	tst.w	r3, #64	; 0x40
 8002e14:	9b09      	ldr	r3, [sp, #36]	; 0x24
 8002e16:	bf18      	it	ne
 8002e18:	f04f 33ff 	movne.w	r3, #4294967295	; 0xffffffff
 8002e1c:	9309      	str	r3, [sp, #36]	; 0x24
 8002e1e:	9809      	ldr	r0, [sp, #36]	; 0x24
 8002e20:	b059      	add	sp, #356	; 0x164
 8002e22:	e8bd 8ff0 	ldmia.w	sp!, {r4, r5, r6, r7, r8, r9, sl, fp, pc}
 8002e26:	f048 0810 	orr.w	r8, r8, #16
 8002e2a:	f018 0f20 	tst.w	r8, #32
 8002e2e:	f000 8569 	beq.w	8003904 <_svfprintf_r+0xcac>
 8002e32:	9c0d      	ldr	r4, [sp, #52]	; 0x34
 8002e34:	3407      	adds	r4, #7
 8002e36:	f024 0307 	bic.w	r3, r4, #7
 8002e3a:	e9d3 4500 	ldrd	r4, r5, [r3]
 8002e3e:	f103 0208 	add.w	r2, r3, #8
 8002e42:	920d      	str	r2, [sp, #52]	; 0x34
 8002e44:	f428 6380 	bic.w	r3, r8, #1024	; 0x400
 8002e48:	2200      	movs	r2, #0
 8002e4a:	2100      	movs	r1, #0
 8002e4c:	f88d 1093 	strb.w	r1, [sp, #147]	; 0x93
 8002e50:	f1ba 3fff 	cmp.w	sl, #4294967295	; 0xffffffff
 8002e54:	a958      	add	r1, sp, #352	; 0x160
 8002e56:	9108      	str	r1, [sp, #32]
 8002e58:	f000 84a2 	beq.w	80037a0 <_svfprintf_r+0xb48>
 8002e5c:	ea54 0105 	orrs.w	r1, r4, r5
 8002e60:	f023 0880 	bic.w	r8, r3, #128	; 0x80
 8002e64:	d156      	bne.n	8002f14 <_svfprintf_r+0x2bc>
 8002e66:	f1ba 0f00 	cmp.w	sl, #0
 8002e6a:	f040 8795 	bne.w	8003d98 <_svfprintf_r+0x1140>
 8002e6e:	2a00      	cmp	r2, #0
 8002e70:	f040 8515 	bne.w	800389e <_svfprintf_r+0xc46>
 8002e74:	f013 0301 	ands.w	r3, r3, #1
 8002e78:	ae58      	add	r6, sp, #352	; 0x160
 8002e7a:	930c      	str	r3, [sp, #48]	; 0x30
 8002e7c:	d002      	beq.n	8002e84 <_svfprintf_r+0x22c>
 8002e7e:	2330      	movs	r3, #48	; 0x30
 8002e80:	f806 3d01 	strb.w	r3, [r6, #-1]!
 8002e84:	2300      	movs	r3, #0
 8002e86:	9310      	str	r3, [sp, #64]	; 0x40
 8002e88:	9313      	str	r3, [sp, #76]	; 0x4c
 8002e8a:	e9cd 3315 	strd	r3, r3, [sp, #84]	; 0x54
 8002e8e:	9b0c      	ldr	r3, [sp, #48]	; 0x30
 8002e90:	f89d 2093 	ldrb.w	r2, [sp, #147]	; 0x93
 8002e94:	4553      	cmp	r3, sl
 8002e96:	bfb8      	it	lt
 8002e98:	4653      	movlt	r3, sl
 8002e9a:	9308      	str	r3, [sp, #32]
 8002e9c:	2a00      	cmp	r2, #0
 8002e9e:	f000 80c3 	beq.w	8003028 <_svfprintf_r+0x3d0>
 8002ea2:	9b08      	ldr	r3, [sp, #32]
 8002ea4:	3301      	adds	r3, #1
 8002ea6:	9308      	str	r3, [sp, #32]
 8002ea8:	e0be      	b.n	8003028 <_svfprintf_r+0x3d0>
 8002eaa:	f1a7 0330 	sub.w	r3, r7, #48	; 0x30
 8002eae:	2200      	movs	r2, #0
 8002eb0:	f81b 7b01 	ldrb.w	r7, [fp], #1
 8002eb4:	eb02 0282 	add.w	r2, r2, r2, lsl #2
 8002eb8:	eb03 0242 	add.w	r2, r3, r2, lsl #1
 8002ebc:	f1a7 0330 	sub.w	r3, r7, #48	; 0x30
 8002ec0:	2b09      	cmp	r3, #9
 8002ec2:	d9f5      	bls.n	8002eb0 <_svfprintf_r+0x258>
 8002ec4:	920b      	str	r2, [sp, #44]	; 0x2c
 8002ec6:	e723      	b.n	8002d10 <_svfprintf_r+0xb8>
 8002ec8:	4643      	mov	r3, r8
 8002eca:	069e      	lsls	r6, r3, #26
 8002ecc:	f140 8217 	bpl.w	80032fe <_svfprintf_r+0x6a6>
 8002ed0:	9c0d      	ldr	r4, [sp, #52]	; 0x34
 8002ed2:	3407      	adds	r4, #7
 8002ed4:	f024 0407 	bic.w	r4, r4, #7
 8002ed8:	e9d4 0100 	ldrd	r0, r1, [r4]
 8002edc:	f104 0208 	add.w	r2, r4, #8
 8002ee0:	920d      	str	r2, [sp, #52]	; 0x34
 8002ee2:	4604      	mov	r4, r0
 8002ee4:	460d      	mov	r5, r1
 8002ee6:	2800      	cmp	r0, #0
 8002ee8:	f171 0200 	sbcs.w	r2, r1, #0
 8002eec:	da05      	bge.n	8002efa <_svfprintf_r+0x2a2>
 8002eee:	222d      	movs	r2, #45	; 0x2d
 8002ef0:	4264      	negs	r4, r4
 8002ef2:	eb65 0545 	sbc.w	r5, r5, r5, lsl #1
 8002ef6:	f88d 2093 	strb.w	r2, [sp, #147]	; 0x93
 8002efa:	aa58      	add	r2, sp, #352	; 0x160
 8002efc:	f1ba 3fff 	cmp.w	sl, #4294967295	; 0xffffffff
 8002f00:	9208      	str	r2, [sp, #32]
 8002f02:	f000 86e6 	beq.w	8003cd2 <_svfprintf_r+0x107a>
 8002f06:	ea54 0105 	orrs.w	r1, r4, r5
 8002f0a:	f04f 0201 	mov.w	r2, #1
 8002f0e:	f023 0880 	bic.w	r8, r3, #128	; 0x80
 8002f12:	d0a8      	beq.n	8002e66 <_svfprintf_r+0x20e>
 8002f14:	2a01      	cmp	r2, #1
 8002f16:	f000 8447 	beq.w	80037a8 <_svfprintf_r+0xb50>
 8002f1a:	2a02      	cmp	r2, #2
 8002f1c:	f000 82eb 	beq.w	80034f6 <_svfprintf_r+0x89e>
 8002f20:	a958      	add	r1, sp, #352	; 0x160
 8002f22:	e000      	b.n	8002f26 <_svfprintf_r+0x2ce>
 8002f24:	4631      	mov	r1, r6
 8002f26:	08e2      	lsrs	r2, r4, #3
 8002f28:	ea42 7245 	orr.w	r2, r2, r5, lsl #29
 8002f2c:	08e8      	lsrs	r0, r5, #3
 8002f2e:	f004 0307 	and.w	r3, r4, #7
 8002f32:	4605      	mov	r5, r0
 8002f34:	4614      	mov	r4, r2
 8002f36:	3330      	adds	r3, #48	; 0x30
 8002f38:	ea54 0205 	orrs.w	r2, r4, r5
 8002f3c:	f801 3c01 	strb.w	r3, [r1, #-1]
 8002f40:	f101 36ff 	add.w	r6, r1, #4294967295	; 0xffffffff
 8002f44:	d1ee      	bne.n	8002f24 <_svfprintf_r+0x2cc>
 8002f46:	f018 0f01 	tst.w	r8, #1
 8002f4a:	f000 82e4 	beq.w	8003516 <_svfprintf_r+0x8be>
 8002f4e:	2b30      	cmp	r3, #48	; 0x30
 8002f50:	f000 82e1 	beq.w	8003516 <_svfprintf_r+0x8be>
 8002f54:	9a08      	ldr	r2, [sp, #32]
 8002f56:	3902      	subs	r1, #2
 8002f58:	2330      	movs	r3, #48	; 0x30
 8002f5a:	1a52      	subs	r2, r2, r1
 8002f5c:	f806 3c01 	strb.w	r3, [r6, #-1]
 8002f60:	920c      	str	r2, [sp, #48]	; 0x30
 8002f62:	460e      	mov	r6, r1
 8002f64:	e78e      	b.n	8002e84 <_svfprintf_r+0x22c>
 8002f66:	4643      	mov	r3, r8
 8002f68:	069e      	lsls	r6, r3, #26
 8002f6a:	f140 82a2 	bpl.w	80034b2 <_svfprintf_r+0x85a>
 8002f6e:	9c0d      	ldr	r4, [sp, #52]	; 0x34
 8002f70:	3407      	adds	r4, #7
 8002f72:	f024 0207 	bic.w	r2, r4, #7
 8002f76:	f102 0108 	add.w	r1, r2, #8
 8002f7a:	e9d2 4500 	ldrd	r4, r5, [r2]
 8002f7e:	910d      	str	r1, [sp, #52]	; 0x34
 8002f80:	2201      	movs	r2, #1
 8002f82:	e762      	b.n	8002e4a <_svfprintf_r+0x1f2>
 8002f84:	4bc1      	ldr	r3, [pc, #772]	; (800328c <_svfprintf_r+0x634>)
 8002f86:	931b      	str	r3, [sp, #108]	; 0x6c
 8002f88:	f018 0f20 	tst.w	r8, #32
 8002f8c:	f000 816d 	beq.w	800326a <_svfprintf_r+0x612>
 8002f90:	9c0d      	ldr	r4, [sp, #52]	; 0x34
 8002f92:	3407      	adds	r4, #7
 8002f94:	f024 0307 	bic.w	r3, r4, #7
 8002f98:	e9d3 4500 	ldrd	r4, r5, [r3]
 8002f9c:	f103 0208 	add.w	r2, r3, #8
 8002fa0:	920d      	str	r2, [sp, #52]	; 0x34
 8002fa2:	f018 0f01 	tst.w	r8, #1
 8002fa6:	d009      	beq.n	8002fbc <_svfprintf_r+0x364>
 8002fa8:	ea54 0305 	orrs.w	r3, r4, r5
 8002fac:	d006      	beq.n	8002fbc <_svfprintf_r+0x364>
 8002fae:	2330      	movs	r3, #48	; 0x30
 8002fb0:	f88d 7095 	strb.w	r7, [sp, #149]	; 0x95
 8002fb4:	f048 0802 	orr.w	r8, r8, #2
 8002fb8:	f88d 3094 	strb.w	r3, [sp, #148]	; 0x94
 8002fbc:	f428 6380 	bic.w	r3, r8, #1024	; 0x400
 8002fc0:	2202      	movs	r2, #2
 8002fc2:	e742      	b.n	8002e4a <_svfprintf_r+0x1f2>
 8002fc4:	f89b 7000 	ldrb.w	r7, [fp]
 8002fc8:	2f2a      	cmp	r7, #42	; 0x2a
 8002fca:	f10b 0201 	add.w	r2, fp, #1
 8002fce:	f001 82f2 	beq.w	80045b6 <_svfprintf_r+0x195e>
 8002fd2:	f1a7 0330 	sub.w	r3, r7, #48	; 0x30
 8002fd6:	2b09      	cmp	r3, #9
 8002fd8:	4693      	mov	fp, r2
 8002fda:	f04f 0a00 	mov.w	sl, #0
 8002fde:	f63f ae97 	bhi.w	8002d10 <_svfprintf_r+0xb8>
 8002fe2:	f81b 7b01 	ldrb.w	r7, [fp], #1
 8002fe6:	eb0a 0a8a 	add.w	sl, sl, sl, lsl #2
 8002fea:	eb03 0a4a 	add.w	sl, r3, sl, lsl #1
 8002fee:	f1a7 0330 	sub.w	r3, r7, #48	; 0x30
 8002ff2:	2b09      	cmp	r3, #9
 8002ff4:	d9f5      	bls.n	8002fe2 <_svfprintf_r+0x38a>
 8002ff6:	e68b      	b.n	8002d10 <_svfprintf_r+0xb8>
 8002ff8:	f89b 7000 	ldrb.w	r7, [fp]
 8002ffc:	f048 0804 	orr.w	r8, r8, #4
 8003000:	e684      	b.n	8002d0c <_svfprintf_r+0xb4>
 8003002:	980d      	ldr	r0, [sp, #52]	; 0x34
 8003004:	2300      	movs	r3, #0
 8003006:	6801      	ldr	r1, [r0, #0]
 8003008:	f88d 3093 	strb.w	r3, [sp, #147]	; 0x93
 800300c:	461a      	mov	r2, r3
 800300e:	f88d 10fc 	strb.w	r1, [sp, #252]	; 0xfc
 8003012:	2301      	movs	r3, #1
 8003014:	1d01      	adds	r1, r0, #4
 8003016:	e9cd 2215 	strd	r2, r2, [sp, #84]	; 0x54
 800301a:	e9cd 310c 	strd	r3, r1, [sp, #48]	; 0x30
 800301e:	9308      	str	r3, [sp, #32]
 8003020:	9210      	str	r2, [sp, #64]	; 0x40
 8003022:	4692      	mov	sl, r2
 8003024:	9213      	str	r2, [sp, #76]	; 0x4c
 8003026:	ae3f      	add	r6, sp, #252	; 0xfc
 8003028:	f018 0302 	ands.w	r3, r8, #2
 800302c:	930e      	str	r3, [sp, #56]	; 0x38
 800302e:	d002      	beq.n	8003036 <_svfprintf_r+0x3de>
 8003030:	9b08      	ldr	r3, [sp, #32]
 8003032:	3302      	adds	r3, #2
 8003034:	9308      	str	r3, [sp, #32]
 8003036:	f018 0384 	ands.w	r3, r8, #132	; 0x84
 800303a:	9c2e      	ldr	r4, [sp, #184]	; 0xb8
 800303c:	9311      	str	r3, [sp, #68]	; 0x44
 800303e:	d13f      	bne.n	80030c0 <_svfprintf_r+0x468>
 8003040:	9b0b      	ldr	r3, [sp, #44]	; 0x2c
 8003042:	9908      	ldr	r1, [sp, #32]
 8003044:	1a5d      	subs	r5, r3, r1
 8003046:	2d00      	cmp	r5, #0
 8003048:	dd3a      	ble.n	80030c0 <_svfprintf_r+0x468>
 800304a:	2d10      	cmp	r5, #16
 800304c:	9a2d      	ldr	r2, [sp, #180]	; 0xb4
 800304e:	dd29      	ble.n	80030a4 <_svfprintf_r+0x44c>
 8003050:	4649      	mov	r1, r9
 8003052:	4620      	mov	r0, r4
 8003054:	46b1      	mov	r9, r6
 8003056:	2310      	movs	r3, #16
 8003058:	9722      	str	r7, [sp, #136]	; 0x88
 800305a:	9c07      	ldr	r4, [sp, #28]
 800305c:	9e0a      	ldr	r6, [sp, #40]	; 0x28
 800305e:	e004      	b.n	800306a <_svfprintf_r+0x412>
 8003060:	3d10      	subs	r5, #16
 8003062:	2d10      	cmp	r5, #16
 8003064:	f101 0108 	add.w	r1, r1, #8
 8003068:	dd18      	ble.n	800309c <_svfprintf_r+0x444>
 800306a:	3201      	adds	r2, #1
 800306c:	4f88      	ldr	r7, [pc, #544]	; (8003290 <_svfprintf_r+0x638>)
 800306e:	3010      	adds	r0, #16
 8003070:	2a07      	cmp	r2, #7
 8003072:	e9cd 202d 	strd	r2, r0, [sp, #180]	; 0xb4
 8003076:	e9c1 7300 	strd	r7, r3, [r1]
 800307a:	ddf1      	ble.n	8003060 <_svfprintf_r+0x408>
 800307c:	aa2c      	add	r2, sp, #176	; 0xb0
 800307e:	4631      	mov	r1, r6
 8003080:	4620      	mov	r0, r4
 8003082:	9312      	str	r3, [sp, #72]	; 0x48
 8003084:	f003 f9e0 	bl	8006448 <__ssprint_r>
 8003088:	2800      	cmp	r0, #0
 800308a:	f47f aeb9 	bne.w	8002e00 <_svfprintf_r+0x1a8>
 800308e:	3d10      	subs	r5, #16
 8003090:	2d10      	cmp	r5, #16
 8003092:	e9dd 202d 	ldrd	r2, r0, [sp, #180]	; 0xb4
 8003096:	a92f      	add	r1, sp, #188	; 0xbc
 8003098:	9b12      	ldr	r3, [sp, #72]	; 0x48
 800309a:	dce6      	bgt.n	800306a <_svfprintf_r+0x412>
 800309c:	9f22      	ldr	r7, [sp, #136]	; 0x88
 800309e:	464e      	mov	r6, r9
 80030a0:	4604      	mov	r4, r0
 80030a2:	4689      	mov	r9, r1
 80030a4:	3201      	adds	r2, #1
 80030a6:	4b7a      	ldr	r3, [pc, #488]	; (8003290 <_svfprintf_r+0x638>)
 80030a8:	442c      	add	r4, r5
 80030aa:	2a07      	cmp	r2, #7
 80030ac:	e9cd 242d 	strd	r2, r4, [sp, #180]	; 0xb4
 80030b0:	e9c9 3500 	strd	r3, r5, [r9]
 80030b4:	f300 857f 	bgt.w	8003bb6 <_svfprintf_r+0xf5e>
 80030b8:	f89d 2093 	ldrb.w	r2, [sp, #147]	; 0x93
 80030bc:	f109 0908 	add.w	r9, r9, #8
 80030c0:	b172      	cbz	r2, 80030e0 <_svfprintf_r+0x488>
 80030c2:	9a2d      	ldr	r2, [sp, #180]	; 0xb4
 80030c4:	3201      	adds	r2, #1
 80030c6:	3401      	adds	r4, #1
 80030c8:	f10d 0093 	add.w	r0, sp, #147	; 0x93
 80030cc:	2101      	movs	r1, #1
 80030ce:	2a07      	cmp	r2, #7
 80030d0:	e9cd 242d 	strd	r2, r4, [sp, #180]	; 0xb4
 80030d4:	e9c9 0100 	strd	r0, r1, [r9]
 80030d8:	f300 8373 	bgt.w	80037c2 <_svfprintf_r+0xb6a>
 80030dc:	f109 0908 	add.w	r9, r9, #8
 80030e0:	9b0e      	ldr	r3, [sp, #56]	; 0x38
 80030e2:	b16b      	cbz	r3, 8003100 <_svfprintf_r+0x4a8>
 80030e4:	9b2d      	ldr	r3, [sp, #180]	; 0xb4
 80030e6:	3301      	adds	r3, #1
 80030e8:	3402      	adds	r4, #2
 80030ea:	a925      	add	r1, sp, #148	; 0x94
 80030ec:	2202      	movs	r2, #2
 80030ee:	2b07      	cmp	r3, #7
 80030f0:	e9cd 342d 	strd	r3, r4, [sp, #180]	; 0xb4
 80030f4:	e9c9 1200 	strd	r1, r2, [r9]
 80030f8:	f300 836f 	bgt.w	80037da <_svfprintf_r+0xb82>
 80030fc:	f109 0908 	add.w	r9, r9, #8
 8003100:	9b11      	ldr	r3, [sp, #68]	; 0x44
 8003102:	2b80      	cmp	r3, #128	; 0x80
 8003104:	f000 826a 	beq.w	80035dc <_svfprintf_r+0x984>
 8003108:	9b0c      	ldr	r3, [sp, #48]	; 0x30
 800310a:	ebaa 0503 	sub.w	r5, sl, r3
 800310e:	2d00      	cmp	r5, #0
 8003110:	dd35      	ble.n	800317e <_svfprintf_r+0x526>
 8003112:	2d10      	cmp	r5, #16
 8003114:	9a2d      	ldr	r2, [sp, #180]	; 0xb4
 8003116:	4b5f      	ldr	r3, [pc, #380]	; (8003294 <_svfprintf_r+0x63c>)
 8003118:	dd26      	ble.n	8003168 <_svfprintf_r+0x510>
 800311a:	4649      	mov	r1, r9
 800311c:	4620      	mov	r0, r4
 800311e:	46b1      	mov	r9, r6
 8003120:	f04f 0a10 	mov.w	sl, #16
 8003124:	9e0a      	ldr	r6, [sp, #40]	; 0x28
 8003126:	461c      	mov	r4, r3
 8003128:	e004      	b.n	8003134 <_svfprintf_r+0x4dc>
 800312a:	3d10      	subs	r5, #16
 800312c:	2d10      	cmp	r5, #16
 800312e:	f101 0108 	add.w	r1, r1, #8
 8003132:	dd15      	ble.n	8003160 <_svfprintf_r+0x508>
 8003134:	3201      	adds	r2, #1
 8003136:	3010      	adds	r0, #16
 8003138:	2a07      	cmp	r2, #7
 800313a:	e9cd 202d 	strd	r2, r0, [sp, #180]	; 0xb4
 800313e:	e9c1 4a00 	strd	r4, sl, [r1]
 8003142:	ddf2      	ble.n	800312a <_svfprintf_r+0x4d2>
 8003144:	aa2c      	add	r2, sp, #176	; 0xb0
 8003146:	4631      	mov	r1, r6
 8003148:	9807      	ldr	r0, [sp, #28]
 800314a:	f003 f97d 	bl	8006448 <__ssprint_r>
 800314e:	2800      	cmp	r0, #0
 8003150:	f47f ae56 	bne.w	8002e00 <_svfprintf_r+0x1a8>
 8003154:	3d10      	subs	r5, #16
 8003156:	2d10      	cmp	r5, #16
 8003158:	e9dd 202d 	ldrd	r2, r0, [sp, #180]	; 0xb4
 800315c:	a92f      	add	r1, sp, #188	; 0xbc
 800315e:	dce9      	bgt.n	8003134 <_svfprintf_r+0x4dc>
 8003160:	464e      	mov	r6, r9
 8003162:	4623      	mov	r3, r4
 8003164:	4689      	mov	r9, r1
 8003166:	4604      	mov	r4, r0
 8003168:	3201      	adds	r2, #1
 800316a:	442c      	add	r4, r5
 800316c:	2a07      	cmp	r2, #7
 800316e:	e9cd 242d 	strd	r2, r4, [sp, #180]	; 0xb4
 8003172:	e9c9 3500 	strd	r3, r5, [r9]
 8003176:	f300 833c 	bgt.w	80037f2 <_svfprintf_r+0xb9a>
 800317a:	f109 0908 	add.w	r9, r9, #8
 800317e:	f418 7f80 	tst.w	r8, #256	; 0x100
 8003182:	f040 81cc 	bne.w	800351e <_svfprintf_r+0x8c6>
 8003186:	9b2d      	ldr	r3, [sp, #180]	; 0xb4
 8003188:	9a0c      	ldr	r2, [sp, #48]	; 0x30
 800318a:	f8c9 6000 	str.w	r6, [r9]
 800318e:	3301      	adds	r3, #1
 8003190:	4414      	add	r4, r2
 8003192:	2b07      	cmp	r3, #7
 8003194:	942e      	str	r4, [sp, #184]	; 0xb8
 8003196:	f8c9 2004 	str.w	r2, [r9, #4]
 800319a:	932d      	str	r3, [sp, #180]	; 0xb4
 800319c:	f300 829e 	bgt.w	80036dc <_svfprintf_r+0xa84>
 80031a0:	f109 0908 	add.w	r9, r9, #8
 80031a4:	f018 0f04 	tst.w	r8, #4
 80031a8:	d033      	beq.n	8003212 <_svfprintf_r+0x5ba>
 80031aa:	9b0b      	ldr	r3, [sp, #44]	; 0x2c
 80031ac:	9a08      	ldr	r2, [sp, #32]
 80031ae:	1a9d      	subs	r5, r3, r2
 80031b0:	2d00      	cmp	r5, #0
 80031b2:	dd2e      	ble.n	8003212 <_svfprintf_r+0x5ba>
 80031b4:	2d10      	cmp	r5, #16
 80031b6:	9b2d      	ldr	r3, [sp, #180]	; 0xb4
 80031b8:	dd21      	ble.n	80031fe <_svfprintf_r+0x5a6>
 80031ba:	2610      	movs	r6, #16
 80031bc:	9f07      	ldr	r7, [sp, #28]
 80031be:	f8dd 8028 	ldr.w	r8, [sp, #40]	; 0x28
 80031c2:	e004      	b.n	80031ce <_svfprintf_r+0x576>
 80031c4:	3d10      	subs	r5, #16
 80031c6:	2d10      	cmp	r5, #16
 80031c8:	f109 0908 	add.w	r9, r9, #8
 80031cc:	dd17      	ble.n	80031fe <_svfprintf_r+0x5a6>
 80031ce:	3301      	adds	r3, #1
 80031d0:	4a2f      	ldr	r2, [pc, #188]	; (8003290 <_svfprintf_r+0x638>)
 80031d2:	3410      	adds	r4, #16
 80031d4:	2b07      	cmp	r3, #7
 80031d6:	e9cd 342d 	strd	r3, r4, [sp, #180]	; 0xb4
 80031da:	e9c9 2600 	strd	r2, r6, [r9]
 80031de:	ddf1      	ble.n	80031c4 <_svfprintf_r+0x56c>
 80031e0:	aa2c      	add	r2, sp, #176	; 0xb0
 80031e2:	4641      	mov	r1, r8
 80031e4:	4638      	mov	r0, r7
 80031e6:	f003 f92f 	bl	8006448 <__ssprint_r>
 80031ea:	2800      	cmp	r0, #0
 80031ec:	f47f ae08 	bne.w	8002e00 <_svfprintf_r+0x1a8>
 80031f0:	3d10      	subs	r5, #16
 80031f2:	2d10      	cmp	r5, #16
 80031f4:	e9dd 342d 	ldrd	r3, r4, [sp, #180]	; 0xb4
 80031f8:	f10d 09bc 	add.w	r9, sp, #188	; 0xbc
 80031fc:	dce7      	bgt.n	80031ce <_svfprintf_r+0x576>
 80031fe:	3301      	adds	r3, #1
 8003200:	4a23      	ldr	r2, [pc, #140]	; (8003290 <_svfprintf_r+0x638>)
 8003202:	442c      	add	r4, r5
 8003204:	2b07      	cmp	r3, #7
 8003206:	e9cd 342d 	strd	r3, r4, [sp, #180]	; 0xb4
 800320a:	e9c9 2500 	strd	r2, r5, [r9]
 800320e:	f300 83a1 	bgt.w	8003954 <_svfprintf_r+0xcfc>
 8003212:	9b09      	ldr	r3, [sp, #36]	; 0x24
 8003214:	9a0b      	ldr	r2, [sp, #44]	; 0x2c
 8003216:	9908      	ldr	r1, [sp, #32]
 8003218:	428a      	cmp	r2, r1
 800321a:	bfac      	ite	ge
 800321c:	189b      	addge	r3, r3, r2
 800321e:	185b      	addlt	r3, r3, r1
 8003220:	9309      	str	r3, [sp, #36]	; 0x24
 8003222:	2c00      	cmp	r4, #0
 8003224:	f040 8216 	bne.w	8003654 <_svfprintf_r+0x9fc>
 8003228:	2300      	movs	r3, #0
 800322a:	932d      	str	r3, [sp, #180]	; 0xb4
 800322c:	9b10      	ldr	r3, [sp, #64]	; 0x40
 800322e:	b11b      	cbz	r3, 8003238 <_svfprintf_r+0x5e0>
 8003230:	9910      	ldr	r1, [sp, #64]	; 0x40
 8003232:	9807      	ldr	r0, [sp, #28]
 8003234:	f002 f9d6 	bl	80055e4 <_free_r>
 8003238:	f10d 09bc 	add.w	r9, sp, #188	; 0xbc
 800323c:	465e      	mov	r6, fp
 800323e:	7833      	ldrb	r3, [r6, #0]
 8003240:	2b00      	cmp	r3, #0
 8003242:	f47f ad37 	bne.w	8002cb4 <_svfprintf_r+0x5c>
 8003246:	9b2e      	ldr	r3, [sp, #184]	; 0xb8
 8003248:	2b00      	cmp	r3, #0
 800324a:	f43f addf 	beq.w	8002e0c <_svfprintf_r+0x1b4>
 800324e:	9c0a      	ldr	r4, [sp, #40]	; 0x28
 8003250:	9807      	ldr	r0, [sp, #28]
 8003252:	aa2c      	add	r2, sp, #176	; 0xb0
 8003254:	4621      	mov	r1, r4
 8003256:	f003 f8f7 	bl	8006448 <__ssprint_r>
 800325a:	89a3      	ldrh	r3, [r4, #12]
 800325c:	e5d8      	b.n	8002e10 <_svfprintf_r+0x1b8>
 800325e:	4b0e      	ldr	r3, [pc, #56]	; (8003298 <_svfprintf_r+0x640>)
 8003260:	931b      	str	r3, [sp, #108]	; 0x6c
 8003262:	f018 0f20 	tst.w	r8, #32
 8003266:	f47f ae93 	bne.w	8002f90 <_svfprintf_r+0x338>
 800326a:	9a0d      	ldr	r2, [sp, #52]	; 0x34
 800326c:	f018 0f10 	tst.w	r8, #16
 8003270:	f102 0304 	add.w	r3, r2, #4
 8003274:	f040 837c 	bne.w	8003970 <_svfprintf_r+0xd18>
 8003278:	f018 0f40 	tst.w	r8, #64	; 0x40
 800327c:	9a0d      	ldr	r2, [sp, #52]	; 0x34
 800327e:	f000 8373 	beq.w	8003968 <_svfprintf_r+0xd10>
 8003282:	8814      	ldrh	r4, [r2, #0]
 8003284:	930d      	str	r3, [sp, #52]	; 0x34
 8003286:	2500      	movs	r5, #0
 8003288:	e68b      	b.n	8002fa2 <_svfprintf_r+0x34a>
 800328a:	bf00      	nop
 800328c:	08007be8 	.word	0x08007be8
 8003290:	08007c18 	.word	0x08007c18
 8003294:	08007c28 	.word	0x08007c28
 8003298:	08007bfc 	.word	0x08007bfc
 800329c:	9b0d      	ldr	r3, [sp, #52]	; 0x34
 800329e:	681e      	ldr	r6, [r3, #0]
 80032a0:	2500      	movs	r5, #0
 80032a2:	f88d 5093 	strb.w	r5, [sp, #147]	; 0x93
 80032a6:	1d1c      	adds	r4, r3, #4
 80032a8:	2e00      	cmp	r6, #0
 80032aa:	f000 8474 	beq.w	8003b96 <_svfprintf_r+0xf3e>
 80032ae:	f1ba 3fff 	cmp.w	sl, #4294967295	; 0xffffffff
 80032b2:	f000 8661 	beq.w	8003f78 <_svfprintf_r+0x1320>
 80032b6:	4652      	mov	r2, sl
 80032b8:	4629      	mov	r1, r5
 80032ba:	4630      	mov	r0, r6
 80032bc:	f002 fab8 	bl	8005830 <memchr>
 80032c0:	9010      	str	r0, [sp, #64]	; 0x40
 80032c2:	2800      	cmp	r0, #0
 80032c4:	f000 8795 	beq.w	80041f2 <_svfprintf_r+0x159a>
 80032c8:	9b10      	ldr	r3, [sp, #64]	; 0x40
 80032ca:	1b9b      	subs	r3, r3, r6
 80032cc:	930c      	str	r3, [sp, #48]	; 0x30
 80032ce:	46aa      	mov	sl, r5
 80032d0:	ea23 73e3 	bic.w	r3, r3, r3, asr #31
 80032d4:	940d      	str	r4, [sp, #52]	; 0x34
 80032d6:	9308      	str	r3, [sp, #32]
 80032d8:	f8cd a040 	str.w	sl, [sp, #64]	; 0x40
 80032dc:	f8cd a04c 	str.w	sl, [sp, #76]	; 0x4c
 80032e0:	e9cd aa15 	strd	sl, sl, [sp, #84]	; 0x54
 80032e4:	f89d 2093 	ldrb.w	r2, [sp, #147]	; 0x93
 80032e8:	e5d8      	b.n	8002e9c <_svfprintf_r+0x244>
 80032ea:	f048 0808 	orr.w	r8, r8, #8
 80032ee:	f89b 7000 	ldrb.w	r7, [fp]
 80032f2:	e50b      	b.n	8002d0c <_svfprintf_r+0xb4>
 80032f4:	f048 0310 	orr.w	r3, r8, #16
 80032f8:	069e      	lsls	r6, r3, #26
 80032fa:	f53f ade9 	bmi.w	8002ed0 <_svfprintf_r+0x278>
 80032fe:	990d      	ldr	r1, [sp, #52]	; 0x34
 8003300:	06dd      	lsls	r5, r3, #27
 8003302:	f101 0204 	add.w	r2, r1, #4
 8003306:	f100 834d 	bmi.w	80039a4 <_svfprintf_r+0xd4c>
 800330a:	065c      	lsls	r4, r3, #25
 800330c:	990d      	ldr	r1, [sp, #52]	; 0x34
 800330e:	f140 8346 	bpl.w	800399e <_svfprintf_r+0xd46>
 8003312:	f9b1 4000 	ldrsh.w	r4, [r1]
 8003316:	920d      	str	r2, [sp, #52]	; 0x34
 8003318:	17e5      	asrs	r5, r4, #31
 800331a:	4620      	mov	r0, r4
 800331c:	4629      	mov	r1, r5
 800331e:	e5e2      	b.n	8002ee6 <_svfprintf_r+0x28e>
 8003320:	9a0d      	ldr	r2, [sp, #52]	; 0x34
 8003322:	f018 0f20 	tst.w	r8, #32
 8003326:	f852 3b04 	ldr.w	r3, [r2], #4
 800332a:	920d      	str	r2, [sp, #52]	; 0x34
 800332c:	f040 8341 	bne.w	80039b2 <_svfprintf_r+0xd5a>
 8003330:	f018 0f10 	tst.w	r8, #16
 8003334:	f040 8581 	bne.w	8003e3a <_svfprintf_r+0x11e2>
 8003338:	f018 0f40 	tst.w	r8, #64	; 0x40
 800333c:	f040 8632 	bne.w	8003fa4 <_svfprintf_r+0x134c>
 8003340:	f418 7f00 	tst.w	r8, #512	; 0x200
 8003344:	f000 8579 	beq.w	8003e3a <_svfprintf_r+0x11e2>
 8003348:	9a09      	ldr	r2, [sp, #36]	; 0x24
 800334a:	701a      	strb	r2, [r3, #0]
 800334c:	465e      	mov	r6, fp
 800334e:	e776      	b.n	800323e <_svfprintf_r+0x5e6>
 8003350:	f89b 7000 	ldrb.w	r7, [fp]
 8003354:	2f6c      	cmp	r7, #108	; 0x6c
 8003356:	bf03      	ittte	eq
 8003358:	f89b 7001 	ldrbeq.w	r7, [fp, #1]
 800335c:	f048 0820 	orreq.w	r8, r8, #32
 8003360:	f10b 0b01 	addeq.w	fp, fp, #1
 8003364:	f048 0810 	orrne.w	r8, r8, #16
 8003368:	e4d0      	b.n	8002d0c <_svfprintf_r+0xb4>
 800336a:	990d      	ldr	r1, [sp, #52]	; 0x34
 800336c:	4bbe      	ldr	r3, [pc, #760]	; (8003668 <_svfprintf_r+0xa10>)
 800336e:	680c      	ldr	r4, [r1, #0]
 8003370:	931b      	str	r3, [sp, #108]	; 0x6c
 8003372:	f647 0230 	movw	r2, #30768	; 0x7830
 8003376:	3104      	adds	r1, #4
 8003378:	f8ad 2094 	strh.w	r2, [sp, #148]	; 0x94
 800337c:	f048 0302 	orr.w	r3, r8, #2
 8003380:	910d      	str	r1, [sp, #52]	; 0x34
 8003382:	2500      	movs	r5, #0
 8003384:	2202      	movs	r2, #2
 8003386:	2778      	movs	r7, #120	; 0x78
 8003388:	e55f      	b.n	8002e4a <_svfprintf_r+0x1f2>
 800338a:	f048 0880 	orr.w	r8, r8, #128	; 0x80
 800338e:	f89b 7000 	ldrb.w	r7, [fp]
 8003392:	e4bb      	b.n	8002d0c <_svfprintf_r+0xb4>
 8003394:	9c0d      	ldr	r4, [sp, #52]	; 0x34
 8003396:	4bb5      	ldr	r3, [pc, #724]	; (800366c <_svfprintf_r+0xa14>)
 8003398:	3407      	adds	r4, #7
 800339a:	f024 0c07 	bic.w	ip, r4, #7
 800339e:	e9dc 0100 	ldrd	r0, r1, [ip]
 80033a2:	f10c 0408 	add.w	r4, ip, #8
 80033a6:	9117      	str	r1, [sp, #92]	; 0x5c
 80033a8:	f04f 32ff 	mov.w	r2, #4294967295	; 0xffffffff
 80033ac:	f021 4100 	bic.w	r1, r1, #2147483648	; 0x80000000
 80033b0:	9018      	str	r0, [sp, #96]	; 0x60
 80033b2:	4605      	mov	r5, r0
 80033b4:	9108      	str	r1, [sp, #32]
 80033b6:	940d      	str	r4, [sp, #52]	; 0x34
 80033b8:	f7fe ff26 	bl	8002208 <__aeabi_dcmpun>
 80033bc:	2800      	cmp	r0, #0
 80033be:	f040 82ff 	bne.w	80039c0 <_svfprintf_r+0xd68>
 80033c2:	4628      	mov	r0, r5
 80033c4:	9908      	ldr	r1, [sp, #32]
 80033c6:	4ba9      	ldr	r3, [pc, #676]	; (800366c <_svfprintf_r+0xa14>)
 80033c8:	f04f 32ff 	mov.w	r2, #4294967295	; 0xffffffff
 80033cc:	f7fe fefe 	bl	80021cc <__aeabi_dcmple>
 80033d0:	2800      	cmp	r0, #0
 80033d2:	f040 82f5 	bne.w	80039c0 <_svfprintf_r+0xd68>
 80033d6:	e9dd 0218 	ldrd	r0, r2, [sp, #96]	; 0x60
 80033da:	9b1a      	ldr	r3, [sp, #104]	; 0x68
 80033dc:	9917      	ldr	r1, [sp, #92]	; 0x5c
 80033de:	f7fe feeb 	bl	80021b8 <__aeabi_dcmplt>
 80033e2:	2800      	cmp	r0, #0
 80033e4:	f040 86e5 	bne.w	80041b2 <_svfprintf_r+0x155a>
 80033e8:	f89d 2093 	ldrb.w	r2, [sp, #147]	; 0x93
 80033ec:	4ea0      	ldr	r6, [pc, #640]	; (8003670 <_svfprintf_r+0xa18>)
 80033ee:	4ba1      	ldr	r3, [pc, #644]	; (8003674 <_svfprintf_r+0xa1c>)
 80033f0:	2000      	movs	r0, #0
 80033f2:	2103      	movs	r1, #3
 80033f4:	9108      	str	r1, [sp, #32]
 80033f6:	9010      	str	r0, [sp, #64]	; 0x40
 80033f8:	f028 0880 	bic.w	r8, r8, #128	; 0x80
 80033fc:	2f47      	cmp	r7, #71	; 0x47
 80033fe:	bfd8      	it	le
 8003400:	461e      	movle	r6, r3
 8003402:	910c      	str	r1, [sp, #48]	; 0x30
 8003404:	4682      	mov	sl, r0
 8003406:	9013      	str	r0, [sp, #76]	; 0x4c
 8003408:	e9cd 0015 	strd	r0, r0, [sp, #84]	; 0x54
 800340c:	e546      	b.n	8002e9c <_svfprintf_r+0x244>
 800340e:	9f07      	ldr	r7, [sp, #28]
 8003410:	4638      	mov	r0, r7
 8003412:	f002 f9dd 	bl	80057d0 <_localeconv_r>
 8003416:	6843      	ldr	r3, [r0, #4]
 8003418:	931e      	str	r3, [sp, #120]	; 0x78
 800341a:	4618      	mov	r0, r3
 800341c:	f7ff fb70 	bl	8002b00 <strlen>
 8003420:	9021      	str	r0, [sp, #132]	; 0x84
 8003422:	4604      	mov	r4, r0
 8003424:	4638      	mov	r0, r7
 8003426:	f002 f9d3 	bl	80057d0 <_localeconv_r>
 800342a:	6883      	ldr	r3, [r0, #8]
 800342c:	9320      	str	r3, [sp, #128]	; 0x80
 800342e:	2c00      	cmp	r4, #0
 8003430:	f43f acd2 	beq.w	8002dd8 <_svfprintf_r+0x180>
 8003434:	f89b 7000 	ldrb.w	r7, [fp]
 8003438:	2b00      	cmp	r3, #0
 800343a:	f43f ac67 	beq.w	8002d0c <_svfprintf_r+0xb4>
 800343e:	781b      	ldrb	r3, [r3, #0]
 8003440:	2b00      	cmp	r3, #0
 8003442:	f43f ac63 	beq.w	8002d0c <_svfprintf_r+0xb4>
 8003446:	f448 6880 	orr.w	r8, r8, #1024	; 0x400
 800344a:	e45f      	b.n	8002d0c <_svfprintf_r+0xb4>
 800344c:	f048 0801 	orr.w	r8, r8, #1
 8003450:	f89b 7000 	ldrb.w	r7, [fp]
 8003454:	e45a      	b.n	8002d0c <_svfprintf_r+0xb4>
 8003456:	f89d 3093 	ldrb.w	r3, [sp, #147]	; 0x93
 800345a:	f89b 7000 	ldrb.w	r7, [fp]
 800345e:	2b00      	cmp	r3, #0
 8003460:	f47f ac54 	bne.w	8002d0c <_svfprintf_r+0xb4>
 8003464:	2320      	movs	r3, #32
 8003466:	f88d 3093 	strb.w	r3, [sp, #147]	; 0x93
 800346a:	e44f      	b.n	8002d0c <_svfprintf_r+0xb4>
 800346c:	f88d 5093 	strb.w	r5, [sp, #147]	; 0x93
 8003470:	f89b 7000 	ldrb.w	r7, [fp]
 8003474:	e44a      	b.n	8002d0c <_svfprintf_r+0xb4>
 8003476:	9b0d      	ldr	r3, [sp, #52]	; 0x34
 8003478:	f89b 7000 	ldrb.w	r7, [fp]
 800347c:	681a      	ldr	r2, [r3, #0]
 800347e:	920b      	str	r2, [sp, #44]	; 0x2c
 8003480:	2a00      	cmp	r2, #0
 8003482:	f103 0304 	add.w	r3, r3, #4
 8003486:	f2c0 835f 	blt.w	8003b48 <_svfprintf_r+0xef0>
 800348a:	930d      	str	r3, [sp, #52]	; 0x34
 800348c:	e43e      	b.n	8002d0c <_svfprintf_r+0xb4>
 800348e:	f89b 7000 	ldrb.w	r7, [fp]
 8003492:	2f68      	cmp	r7, #104	; 0x68
 8003494:	bf03      	ittte	eq
 8003496:	f89b 7001 	ldrbeq.w	r7, [fp, #1]
 800349a:	f448 7800 	orreq.w	r8, r8, #512	; 0x200
 800349e:	f10b 0b01 	addeq.w	fp, fp, #1
 80034a2:	f048 0840 	orrne.w	r8, r8, #64	; 0x40
 80034a6:	e431      	b.n	8002d0c <_svfprintf_r+0xb4>
 80034a8:	f048 0310 	orr.w	r3, r8, #16
 80034ac:	069e      	lsls	r6, r3, #26
 80034ae:	f53f ad5e 	bmi.w	8002f6e <_svfprintf_r+0x316>
 80034b2:	9a0d      	ldr	r2, [sp, #52]	; 0x34
 80034b4:	06dd      	lsls	r5, r3, #27
 80034b6:	f102 0104 	add.w	r1, r2, #4
 80034ba:	f100 8261 	bmi.w	8003980 <_svfprintf_r+0xd28>
 80034be:	065c      	lsls	r4, r3, #25
 80034c0:	9a0d      	ldr	r2, [sp, #52]	; 0x34
 80034c2:	f140 825a 	bpl.w	800397a <_svfprintf_r+0xd22>
 80034c6:	8814      	ldrh	r4, [r2, #0]
 80034c8:	910d      	str	r1, [sp, #52]	; 0x34
 80034ca:	2500      	movs	r5, #0
 80034cc:	2201      	movs	r2, #1
 80034ce:	e4bc      	b.n	8002e4a <_svfprintf_r+0x1f2>
 80034d0:	2f00      	cmp	r7, #0
 80034d2:	f43f aeb8 	beq.w	8003246 <_svfprintf_r+0x5ee>
 80034d6:	2300      	movs	r3, #0
 80034d8:	2101      	movs	r1, #1
 80034da:	461a      	mov	r2, r3
 80034dc:	9108      	str	r1, [sp, #32]
 80034de:	f88d 70fc 	strb.w	r7, [sp, #252]	; 0xfc
 80034e2:	f88d 3093 	strb.w	r3, [sp, #147]	; 0x93
 80034e6:	9310      	str	r3, [sp, #64]	; 0x40
 80034e8:	469a      	mov	sl, r3
 80034ea:	9313      	str	r3, [sp, #76]	; 0x4c
 80034ec:	e9cd 3315 	strd	r3, r3, [sp, #84]	; 0x54
 80034f0:	910c      	str	r1, [sp, #48]	; 0x30
 80034f2:	ae3f      	add	r6, sp, #252	; 0xfc
 80034f4:	e598      	b.n	8003028 <_svfprintf_r+0x3d0>
 80034f6:	981b      	ldr	r0, [sp, #108]	; 0x6c
 80034f8:	ae58      	add	r6, sp, #352	; 0x160
 80034fa:	0923      	lsrs	r3, r4, #4
 80034fc:	f004 010f 	and.w	r1, r4, #15
 8003500:	ea43 7305 	orr.w	r3, r3, r5, lsl #28
 8003504:	092a      	lsrs	r2, r5, #4
 8003506:	461c      	mov	r4, r3
 8003508:	4615      	mov	r5, r2
 800350a:	5c43      	ldrb	r3, [r0, r1]
 800350c:	f806 3d01 	strb.w	r3, [r6, #-1]!
 8003510:	ea54 0305 	orrs.w	r3, r4, r5
 8003514:	d1f1      	bne.n	80034fa <_svfprintf_r+0x8a2>
 8003516:	9b08      	ldr	r3, [sp, #32]
 8003518:	1b9b      	subs	r3, r3, r6
 800351a:	930c      	str	r3, [sp, #48]	; 0x30
 800351c:	e4b2      	b.n	8002e84 <_svfprintf_r+0x22c>
 800351e:	2f65      	cmp	r7, #101	; 0x65
 8003520:	f340 80e8 	ble.w	80036f4 <_svfprintf_r+0xa9c>
 8003524:	e9dd 0218 	ldrd	r0, r2, [sp, #96]	; 0x60
 8003528:	9b1a      	ldr	r3, [sp, #104]	; 0x68
 800352a:	9917      	ldr	r1, [sp, #92]	; 0x5c
 800352c:	f7fe fe3a 	bl	80021a4 <__aeabi_dcmpeq>
 8003530:	2800      	cmp	r0, #0
 8003532:	f000 816a 	beq.w	800380a <_svfprintf_r+0xbb2>
 8003536:	9b2d      	ldr	r3, [sp, #180]	; 0xb4
 8003538:	4a4f      	ldr	r2, [pc, #316]	; (8003678 <_svfprintf_r+0xa20>)
 800353a:	f8c9 2000 	str.w	r2, [r9]
 800353e:	3301      	adds	r3, #1
 8003540:	3401      	adds	r4, #1
 8003542:	2201      	movs	r2, #1
 8003544:	2b07      	cmp	r3, #7
 8003546:	e9cd 342d 	strd	r3, r4, [sp, #180]	; 0xb4
 800354a:	f8c9 2004 	str.w	r2, [r9, #4]
 800354e:	f300 844f 	bgt.w	8003df0 <_svfprintf_r+0x1198>
 8003552:	f109 0908 	add.w	r9, r9, #8
 8003556:	9b26      	ldr	r3, [sp, #152]	; 0x98
 8003558:	9a14      	ldr	r2, [sp, #80]	; 0x50
 800355a:	9c2e      	ldr	r4, [sp, #184]	; 0xb8
 800355c:	4293      	cmp	r3, r2
 800355e:	f280 81f4 	bge.w	800394a <_svfprintf_r+0xcf2>
 8003562:	9b2d      	ldr	r3, [sp, #180]	; 0xb4
 8003564:	9a1d      	ldr	r2, [sp, #116]	; 0x74
 8003566:	f8c9 2000 	str.w	r2, [r9]
 800356a:	9a1c      	ldr	r2, [sp, #112]	; 0x70
 800356c:	f8c9 2004 	str.w	r2, [r9, #4]
 8003570:	3301      	adds	r3, #1
 8003572:	4414      	add	r4, r2
 8003574:	2b07      	cmp	r3, #7
 8003576:	e9cd 342d 	strd	r3, r4, [sp, #180]	; 0xb4
 800357a:	f300 8300 	bgt.w	8003b7e <_svfprintf_r+0xf26>
 800357e:	f109 0908 	add.w	r9, r9, #8
 8003582:	9b14      	ldr	r3, [sp, #80]	; 0x50
 8003584:	1e5d      	subs	r5, r3, #1
 8003586:	2d00      	cmp	r5, #0
 8003588:	f77f ae0c 	ble.w	80031a4 <_svfprintf_r+0x54c>
 800358c:	2d10      	cmp	r5, #16
 800358e:	9a2d      	ldr	r2, [sp, #180]	; 0xb4
 8003590:	4b3a      	ldr	r3, [pc, #232]	; (800367c <_svfprintf_r+0xa24>)
 8003592:	f340 8416 	ble.w	8003dc2 <_svfprintf_r+0x116a>
 8003596:	4619      	mov	r1, r3
 8003598:	2610      	movs	r6, #16
 800359a:	4623      	mov	r3, r4
 800359c:	9f07      	ldr	r7, [sp, #28]
 800359e:	f8dd a028 	ldr.w	sl, [sp, #40]	; 0x28
 80035a2:	460c      	mov	r4, r1
 80035a4:	e005      	b.n	80035b2 <_svfprintf_r+0x95a>
 80035a6:	f109 0908 	add.w	r9, r9, #8
 80035aa:	3d10      	subs	r5, #16
 80035ac:	2d10      	cmp	r5, #16
 80035ae:	f340 8405 	ble.w	8003dbc <_svfprintf_r+0x1164>
 80035b2:	3201      	adds	r2, #1
 80035b4:	3310      	adds	r3, #16
 80035b6:	2a07      	cmp	r2, #7
 80035b8:	e9cd 232d 	strd	r2, r3, [sp, #180]	; 0xb4
 80035bc:	e9c9 4600 	strd	r4, r6, [r9]
 80035c0:	ddf1      	ble.n	80035a6 <_svfprintf_r+0x94e>
 80035c2:	aa2c      	add	r2, sp, #176	; 0xb0
 80035c4:	4651      	mov	r1, sl
 80035c6:	4638      	mov	r0, r7
 80035c8:	f002 ff3e 	bl	8006448 <__ssprint_r>
 80035cc:	2800      	cmp	r0, #0
 80035ce:	f47f ac17 	bne.w	8002e00 <_svfprintf_r+0x1a8>
 80035d2:	e9dd 232d 	ldrd	r2, r3, [sp, #180]	; 0xb4
 80035d6:	f10d 09bc 	add.w	r9, sp, #188	; 0xbc
 80035da:	e7e6      	b.n	80035aa <_svfprintf_r+0x952>
 80035dc:	9b0b      	ldr	r3, [sp, #44]	; 0x2c
 80035de:	9a08      	ldr	r2, [sp, #32]
 80035e0:	1a9d      	subs	r5, r3, r2
 80035e2:	2d00      	cmp	r5, #0
 80035e4:	f77f ad90 	ble.w	8003108 <_svfprintf_r+0x4b0>
 80035e8:	2d10      	cmp	r5, #16
 80035ea:	9a2d      	ldr	r2, [sp, #180]	; 0xb4
 80035ec:	4b23      	ldr	r3, [pc, #140]	; (800367c <_svfprintf_r+0xa24>)
 80035ee:	dd25      	ble.n	800363c <_svfprintf_r+0x9e4>
 80035f0:	4649      	mov	r1, r9
 80035f2:	4620      	mov	r0, r4
 80035f4:	46b1      	mov	r9, r6
 80035f6:	461c      	mov	r4, r3
 80035f8:	9e0a      	ldr	r6, [sp, #40]	; 0x28
 80035fa:	e004      	b.n	8003606 <_svfprintf_r+0x9ae>
 80035fc:	3d10      	subs	r5, #16
 80035fe:	2d10      	cmp	r5, #16
 8003600:	f101 0108 	add.w	r1, r1, #8
 8003604:	dd16      	ble.n	8003634 <_svfprintf_r+0x9dc>
 8003606:	3201      	adds	r2, #1
 8003608:	3010      	adds	r0, #16
 800360a:	2310      	movs	r3, #16
 800360c:	2a07      	cmp	r2, #7
 800360e:	e9cd 202d 	strd	r2, r0, [sp, #180]	; 0xb4
 8003612:	600c      	str	r4, [r1, #0]
 8003614:	604b      	str	r3, [r1, #4]
 8003616:	ddf1      	ble.n	80035fc <_svfprintf_r+0x9a4>
 8003618:	aa2c      	add	r2, sp, #176	; 0xb0
 800361a:	4631      	mov	r1, r6
 800361c:	9807      	ldr	r0, [sp, #28]
 800361e:	f002 ff13 	bl	8006448 <__ssprint_r>
 8003622:	2800      	cmp	r0, #0
 8003624:	f47f abec 	bne.w	8002e00 <_svfprintf_r+0x1a8>
 8003628:	3d10      	subs	r5, #16
 800362a:	2d10      	cmp	r5, #16
 800362c:	e9dd 202d 	ldrd	r2, r0, [sp, #180]	; 0xb4
 8003630:	a92f      	add	r1, sp, #188	; 0xbc
 8003632:	dce8      	bgt.n	8003606 <_svfprintf_r+0x9ae>
 8003634:	464e      	mov	r6, r9
 8003636:	4623      	mov	r3, r4
 8003638:	4689      	mov	r9, r1
 800363a:	4604      	mov	r4, r0
 800363c:	3201      	adds	r2, #1
 800363e:	442c      	add	r4, r5
 8003640:	2a07      	cmp	r2, #7
 8003642:	e9cd 242d 	strd	r2, r4, [sp, #180]	; 0xb4
 8003646:	e9c9 3500 	strd	r3, r5, [r9]
 800364a:	f300 83c4 	bgt.w	8003dd6 <_svfprintf_r+0x117e>
 800364e:	f109 0908 	add.w	r9, r9, #8
 8003652:	e559      	b.n	8003108 <_svfprintf_r+0x4b0>
 8003654:	aa2c      	add	r2, sp, #176	; 0xb0
 8003656:	990a      	ldr	r1, [sp, #40]	; 0x28
 8003658:	9807      	ldr	r0, [sp, #28]
 800365a:	f002 fef5 	bl	8006448 <__ssprint_r>
 800365e:	2800      	cmp	r0, #0
 8003660:	f43f ade2 	beq.w	8003228 <_svfprintf_r+0x5d0>
 8003664:	f7ff bbcc 	b.w	8002e00 <_svfprintf_r+0x1a8>
 8003668:	08007be8 	.word	0x08007be8
 800366c:	7fefffff 	.word	0x7fefffff
 8003670:	08007bdc 	.word	0x08007bdc
 8003674:	08007bd8 	.word	0x08007bd8
 8003678:	08007bd0 	.word	0x08007bd0
 800367c:	08007c28 	.word	0x08007c28
 8003680:	aa2c      	add	r2, sp, #176	; 0xb0
 8003682:	990a      	ldr	r1, [sp, #40]	; 0x28
 8003684:	9807      	ldr	r0, [sp, #28]
 8003686:	f002 fedf 	bl	8006448 <__ssprint_r>
 800368a:	2800      	cmp	r0, #0
 800368c:	f47f abb8 	bne.w	8002e00 <_svfprintf_r+0x1a8>
 8003690:	9b26      	ldr	r3, [sp, #152]	; 0x98
 8003692:	9c2e      	ldr	r4, [sp, #184]	; 0xb8
 8003694:	f10d 09bc 	add.w	r9, sp, #188	; 0xbc
 8003698:	b91b      	cbnz	r3, 80036a2 <_svfprintf_r+0xa4a>
 800369a:	9a14      	ldr	r2, [sp, #80]	; 0x50
 800369c:	2a00      	cmp	r2, #0
 800369e:	f000 8499 	beq.w	8003fd4 <_svfprintf_r+0x137c>
 80036a2:	9a2d      	ldr	r2, [sp, #180]	; 0xb4
 80036a4:	991d      	ldr	r1, [sp, #116]	; 0x74
 80036a6:	f8c9 1000 	str.w	r1, [r9]
 80036aa:	991c      	ldr	r1, [sp, #112]	; 0x70
 80036ac:	f8c9 1004 	str.w	r1, [r9, #4]
 80036b0:	3201      	adds	r2, #1
 80036b2:	440c      	add	r4, r1
 80036b4:	2a07      	cmp	r2, #7
 80036b6:	942e      	str	r4, [sp, #184]	; 0xb8
 80036b8:	922d      	str	r2, [sp, #180]	; 0xb4
 80036ba:	f300 85a7 	bgt.w	800420c <_svfprintf_r+0x15b4>
 80036be:	f109 0908 	add.w	r9, r9, #8
 80036c2:	2b00      	cmp	r3, #0
 80036c4:	f2c0 861e 	blt.w	8004304 <_svfprintf_r+0x16ac>
 80036c8:	9b14      	ldr	r3, [sp, #80]	; 0x50
 80036ca:	3201      	adds	r2, #1
 80036cc:	441c      	add	r4, r3
 80036ce:	2a07      	cmp	r2, #7
 80036d0:	e9cd 242d 	strd	r2, r4, [sp, #180]	; 0xb4
 80036d4:	e9c9 6300 	strd	r6, r3, [r9]
 80036d8:	f77f ad62 	ble.w	80031a0 <_svfprintf_r+0x548>
 80036dc:	aa2c      	add	r2, sp, #176	; 0xb0
 80036de:	990a      	ldr	r1, [sp, #40]	; 0x28
 80036e0:	9807      	ldr	r0, [sp, #28]
 80036e2:	f002 feb1 	bl	8006448 <__ssprint_r>
 80036e6:	2800      	cmp	r0, #0
 80036e8:	f47f ab8a 	bne.w	8002e00 <_svfprintf_r+0x1a8>
 80036ec:	9c2e      	ldr	r4, [sp, #184]	; 0xb8
 80036ee:	f10d 09bc 	add.w	r9, sp, #188	; 0xbc
 80036f2:	e557      	b.n	80031a4 <_svfprintf_r+0x54c>
 80036f4:	1c62      	adds	r2, r4, #1
 80036f6:	920c      	str	r2, [sp, #48]	; 0x30
 80036f8:	9a14      	ldr	r2, [sp, #80]	; 0x50
 80036fa:	9b2d      	ldr	r3, [sp, #180]	; 0xb4
 80036fc:	2a01      	cmp	r2, #1
 80036fe:	f103 0501 	add.w	r5, r3, #1
 8003702:	f109 0708 	add.w	r7, r9, #8
 8003706:	f340 810c 	ble.w	8003922 <_svfprintf_r+0xcca>
 800370a:	9a0c      	ldr	r2, [sp, #48]	; 0x30
 800370c:	f8c9 6000 	str.w	r6, [r9]
 8003710:	2301      	movs	r3, #1
 8003712:	2d07      	cmp	r5, #7
 8003714:	e9cd 522d 	strd	r5, r2, [sp, #180]	; 0xb4
 8003718:	f8c9 3004 	str.w	r3, [r9, #4]
 800371c:	f300 8322 	bgt.w	8003d64 <_svfprintf_r+0x110c>
 8003720:	9b1c      	ldr	r3, [sp, #112]	; 0x70
 8003722:	990c      	ldr	r1, [sp, #48]	; 0x30
 8003724:	9a1d      	ldr	r2, [sp, #116]	; 0x74
 8003726:	3501      	adds	r5, #1
 8003728:	4419      	add	r1, r3
 800372a:	2d07      	cmp	r5, #7
 800372c:	910c      	str	r1, [sp, #48]	; 0x30
 800372e:	e9cd 512d 	strd	r5, r1, [sp, #180]	; 0xb4
 8003732:	e9c7 2300 	strd	r2, r3, [r7]
 8003736:	f300 8322 	bgt.w	8003d7e <_svfprintf_r+0x1126>
 800373a:	3708      	adds	r7, #8
 800373c:	1c6c      	adds	r4, r5, #1
 800373e:	9411      	str	r4, [sp, #68]	; 0x44
 8003740:	940e      	str	r4, [sp, #56]	; 0x38
 8003742:	9c14      	ldr	r4, [sp, #80]	; 0x50
 8003744:	9b1a      	ldr	r3, [sp, #104]	; 0x68
 8003746:	9917      	ldr	r1, [sp, #92]	; 0x5c
 8003748:	e9dd 0218 	ldrd	r0, r2, [sp, #96]	; 0x60
 800374c:	f104 3aff 	add.w	sl, r4, #4294967295	; 0xffffffff
 8003750:	f107 0908 	add.w	r9, r7, #8
 8003754:	f7fe fd26 	bl	80021a4 <__aeabi_dcmpeq>
 8003758:	2800      	cmp	r0, #0
 800375a:	f040 80a5 	bne.w	80038a8 <_svfprintf_r+0xc50>
 800375e:	9b0c      	ldr	r3, [sp, #48]	; 0x30
 8003760:	9c0e      	ldr	r4, [sp, #56]	; 0x38
 8003762:	f8c7 a004 	str.w	sl, [r7, #4]
 8003766:	4453      	add	r3, sl
 8003768:	3601      	adds	r6, #1
 800376a:	2c07      	cmp	r4, #7
 800376c:	930c      	str	r3, [sp, #48]	; 0x30
 800376e:	603e      	str	r6, [r7, #0]
 8003770:	932e      	str	r3, [sp, #184]	; 0xb8
 8003772:	942d      	str	r4, [sp, #180]	; 0xb4
 8003774:	f300 81f2 	bgt.w	8003b5c <_svfprintf_r+0xf04>
 8003778:	f107 0310 	add.w	r3, r7, #16
 800377c:	1caa      	adds	r2, r5, #2
 800377e:	464f      	mov	r7, r9
 8003780:	920e      	str	r2, [sp, #56]	; 0x38
 8003782:	4699      	mov	r9, r3
 8003784:	9a1f      	ldr	r2, [sp, #124]	; 0x7c
 8003786:	990c      	ldr	r1, [sp, #48]	; 0x30
 8003788:	607a      	str	r2, [r7, #4]
 800378a:	4411      	add	r1, r2
 800378c:	9a0e      	ldr	r2, [sp, #56]	; 0x38
 800378e:	912e      	str	r1, [sp, #184]	; 0xb8
 8003790:	ab28      	add	r3, sp, #160	; 0xa0
 8003792:	2a07      	cmp	r2, #7
 8003794:	460c      	mov	r4, r1
 8003796:	922d      	str	r2, [sp, #180]	; 0xb4
 8003798:	603b      	str	r3, [r7, #0]
 800379a:	f77f ad03 	ble.w	80031a4 <_svfprintf_r+0x54c>
 800379e:	e79d      	b.n	80036dc <_svfprintf_r+0xa84>
 80037a0:	2a01      	cmp	r2, #1
 80037a2:	4698      	mov	r8, r3
 80037a4:	f47f abb9 	bne.w	8002f1a <_svfprintf_r+0x2c2>
 80037a8:	2d00      	cmp	r5, #0
 80037aa:	bf08      	it	eq
 80037ac:	2c0a      	cmpeq	r4, #10
 80037ae:	f080 8296 	bcs.w	8003cde <_svfprintf_r+0x1086>
 80037b2:	ae58      	add	r6, sp, #352	; 0x160
 80037b4:	3430      	adds	r4, #48	; 0x30
 80037b6:	2301      	movs	r3, #1
 80037b8:	f806 4d01 	strb.w	r4, [r6, #-1]!
 80037bc:	930c      	str	r3, [sp, #48]	; 0x30
 80037be:	f7ff bb61 	b.w	8002e84 <_svfprintf_r+0x22c>
 80037c2:	aa2c      	add	r2, sp, #176	; 0xb0
 80037c4:	990a      	ldr	r1, [sp, #40]	; 0x28
 80037c6:	9807      	ldr	r0, [sp, #28]
 80037c8:	f002 fe3e 	bl	8006448 <__ssprint_r>
 80037cc:	2800      	cmp	r0, #0
 80037ce:	f47f ab17 	bne.w	8002e00 <_svfprintf_r+0x1a8>
 80037d2:	9c2e      	ldr	r4, [sp, #184]	; 0xb8
 80037d4:	f10d 09bc 	add.w	r9, sp, #188	; 0xbc
 80037d8:	e482      	b.n	80030e0 <_svfprintf_r+0x488>
 80037da:	aa2c      	add	r2, sp, #176	; 0xb0
 80037dc:	990a      	ldr	r1, [sp, #40]	; 0x28
 80037de:	9807      	ldr	r0, [sp, #28]
 80037e0:	f002 fe32 	bl	8006448 <__ssprint_r>
 80037e4:	2800      	cmp	r0, #0
 80037e6:	f47f ab0b 	bne.w	8002e00 <_svfprintf_r+0x1a8>
 80037ea:	9c2e      	ldr	r4, [sp, #184]	; 0xb8
 80037ec:	f10d 09bc 	add.w	r9, sp, #188	; 0xbc
 80037f0:	e486      	b.n	8003100 <_svfprintf_r+0x4a8>
 80037f2:	aa2c      	add	r2, sp, #176	; 0xb0
 80037f4:	990a      	ldr	r1, [sp, #40]	; 0x28
 80037f6:	9807      	ldr	r0, [sp, #28]
 80037f8:	f002 fe26 	bl	8006448 <__ssprint_r>
 80037fc:	2800      	cmp	r0, #0
 80037fe:	f47f aaff 	bne.w	8002e00 <_svfprintf_r+0x1a8>
 8003802:	9c2e      	ldr	r4, [sp, #184]	; 0xb8
 8003804:	f10d 09bc 	add.w	r9, sp, #188	; 0xbc
 8003808:	e4b9      	b.n	800317e <_svfprintf_r+0x526>
 800380a:	9b26      	ldr	r3, [sp, #152]	; 0x98
 800380c:	2b00      	cmp	r3, #0
 800380e:	f340 817b 	ble.w	8003b08 <_svfprintf_r+0xeb0>
 8003812:	e9dd 2314 	ldrd	r2, r3, [sp, #80]	; 0x50
 8003816:	4293      	cmp	r3, r2
 8003818:	bfa8      	it	ge
 800381a:	4613      	movge	r3, r2
 800381c:	2b00      	cmp	r3, #0
 800381e:	461d      	mov	r5, r3
 8003820:	dd0d      	ble.n	800383e <_svfprintf_r+0xbe6>
 8003822:	9b2d      	ldr	r3, [sp, #180]	; 0xb4
 8003824:	f8c9 6000 	str.w	r6, [r9]
 8003828:	3301      	adds	r3, #1
 800382a:	442c      	add	r4, r5
 800382c:	2b07      	cmp	r3, #7
 800382e:	942e      	str	r4, [sp, #184]	; 0xb8
 8003830:	f8c9 5004 	str.w	r5, [r9, #4]
 8003834:	932d      	str	r3, [sp, #180]	; 0xb4
 8003836:	f300 84c1 	bgt.w	80041bc <_svfprintf_r+0x1564>
 800383a:	f109 0908 	add.w	r9, r9, #8
 800383e:	9b15      	ldr	r3, [sp, #84]	; 0x54
 8003840:	2d00      	cmp	r5, #0
 8003842:	bfa8      	it	ge
 8003844:	1b5b      	subge	r3, r3, r5
 8003846:	2b00      	cmp	r3, #0
 8003848:	461d      	mov	r5, r3
 800384a:	f340 81dc 	ble.w	8003c06 <_svfprintf_r+0xfae>
 800384e:	2d10      	cmp	r5, #16
 8003850:	9a2d      	ldr	r2, [sp, #180]	; 0xb4
 8003852:	4bc0      	ldr	r3, [pc, #768]	; (8003b54 <_svfprintf_r+0xefc>)
 8003854:	f340 81c3 	ble.w	8003bde <_svfprintf_r+0xf86>
 8003858:	4618      	mov	r0, r3
 800385a:	4621      	mov	r1, r4
 800385c:	464b      	mov	r3, r9
 800385e:	2710      	movs	r7, #16
 8003860:	46b1      	mov	r9, r6
 8003862:	f8dd a01c 	ldr.w	sl, [sp, #28]
 8003866:	9c0a      	ldr	r4, [sp, #40]	; 0x28
 8003868:	4606      	mov	r6, r0
 800386a:	e004      	b.n	8003876 <_svfprintf_r+0xc1e>
 800386c:	3308      	adds	r3, #8
 800386e:	3d10      	subs	r5, #16
 8003870:	2d10      	cmp	r5, #16
 8003872:	f340 81af 	ble.w	8003bd4 <_svfprintf_r+0xf7c>
 8003876:	3201      	adds	r2, #1
 8003878:	3110      	adds	r1, #16
 800387a:	2a07      	cmp	r2, #7
 800387c:	e9cd 212d 	strd	r2, r1, [sp, #180]	; 0xb4
 8003880:	e9c3 6700 	strd	r6, r7, [r3]
 8003884:	ddf2      	ble.n	800386c <_svfprintf_r+0xc14>
 8003886:	aa2c      	add	r2, sp, #176	; 0xb0
 8003888:	4621      	mov	r1, r4
 800388a:	4650      	mov	r0, sl
 800388c:	f002 fddc 	bl	8006448 <__ssprint_r>
 8003890:	2800      	cmp	r0, #0
 8003892:	f47f aab5 	bne.w	8002e00 <_svfprintf_r+0x1a8>
 8003896:	e9dd 212d 	ldrd	r2, r1, [sp, #180]	; 0xb4
 800389a:	ab2f      	add	r3, sp, #188	; 0xbc
 800389c:	e7e7      	b.n	800386e <_svfprintf_r+0xc16>
 800389e:	f8cd a030 	str.w	sl, [sp, #48]	; 0x30
 80038a2:	ae58      	add	r6, sp, #352	; 0x160
 80038a4:	f7ff baee 	b.w	8002e84 <_svfprintf_r+0x22c>
 80038a8:	f1ba 0f00 	cmp.w	sl, #0
 80038ac:	f77f af6a 	ble.w	8003784 <_svfprintf_r+0xb2c>
 80038b0:	f1ba 0f10 	cmp.w	sl, #16
 80038b4:	4ba7      	ldr	r3, [pc, #668]	; (8003b54 <_svfprintf_r+0xefc>)
 80038b6:	f340 8659 	ble.w	800456c <_svfprintf_r+0x1914>
 80038ba:	4619      	mov	r1, r3
 80038bc:	2610      	movs	r6, #16
 80038be:	463b      	mov	r3, r7
 80038c0:	9a0c      	ldr	r2, [sp, #48]	; 0x30
 80038c2:	f8dd 901c 	ldr.w	r9, [sp, #28]
 80038c6:	9c0a      	ldr	r4, [sp, #40]	; 0x28
 80038c8:	9d11      	ldr	r5, [sp, #68]	; 0x44
 80038ca:	460f      	mov	r7, r1
 80038cc:	e007      	b.n	80038de <_svfprintf_r+0xc86>
 80038ce:	3308      	adds	r3, #8
 80038d0:	f1aa 0a10 	sub.w	sl, sl, #16
 80038d4:	f1ba 0f10 	cmp.w	sl, #16
 80038d8:	f340 8296 	ble.w	8003e08 <_svfprintf_r+0x11b0>
 80038dc:	3501      	adds	r5, #1
 80038de:	3210      	adds	r2, #16
 80038e0:	2d07      	cmp	r5, #7
 80038e2:	e9cd 522d 	strd	r5, r2, [sp, #180]	; 0xb4
 80038e6:	e9c3 7600 	strd	r7, r6, [r3]
 80038ea:	ddf0      	ble.n	80038ce <_svfprintf_r+0xc76>
 80038ec:	aa2c      	add	r2, sp, #176	; 0xb0
 80038ee:	4621      	mov	r1, r4
 80038f0:	4648      	mov	r0, r9
 80038f2:	f002 fda9 	bl	8006448 <__ssprint_r>
 80038f6:	2800      	cmp	r0, #0
 80038f8:	f47f aa82 	bne.w	8002e00 <_svfprintf_r+0x1a8>
 80038fc:	e9dd 522d 	ldrd	r5, r2, [sp, #180]	; 0xb4
 8003900:	ab2f      	add	r3, sp, #188	; 0xbc
 8003902:	e7e5      	b.n	80038d0 <_svfprintf_r+0xc78>
 8003904:	9a0d      	ldr	r2, [sp, #52]	; 0x34
 8003906:	f018 0f10 	tst.w	r8, #16
 800390a:	f102 0304 	add.w	r3, r2, #4
 800390e:	d141      	bne.n	8003994 <_svfprintf_r+0xd3c>
 8003910:	f018 0f40 	tst.w	r8, #64	; 0x40
 8003914:	9a0d      	ldr	r2, [sp, #52]	; 0x34
 8003916:	d039      	beq.n	800398c <_svfprintf_r+0xd34>
 8003918:	8814      	ldrh	r4, [r2, #0]
 800391a:	930d      	str	r3, [sp, #52]	; 0x34
 800391c:	2500      	movs	r5, #0
 800391e:	f7ff ba91 	b.w	8002e44 <_svfprintf_r+0x1ec>
 8003922:	f018 0f01 	tst.w	r8, #1
 8003926:	f47f aef0 	bne.w	800370a <_svfprintf_r+0xab2>
 800392a:	990c      	ldr	r1, [sp, #48]	; 0x30
 800392c:	f8c9 6000 	str.w	r6, [r9]
 8003930:	2201      	movs	r2, #1
 8003932:	2d07      	cmp	r5, #7
 8003934:	e9cd 512d 	strd	r5, r1, [sp, #180]	; 0xb4
 8003938:	f8c9 2004 	str.w	r2, [r9, #4]
 800393c:	f300 810e 	bgt.w	8003b5c <_svfprintf_r+0xf04>
 8003940:	3302      	adds	r3, #2
 8003942:	930e      	str	r3, [sp, #56]	; 0x38
 8003944:	f109 0910 	add.w	r9, r9, #16
 8003948:	e71c      	b.n	8003784 <_svfprintf_r+0xb2c>
 800394a:	f018 0f01 	tst.w	r8, #1
 800394e:	f47f ae08 	bne.w	8003562 <_svfprintf_r+0x90a>
 8003952:	e427      	b.n	80031a4 <_svfprintf_r+0x54c>
 8003954:	aa2c      	add	r2, sp, #176	; 0xb0
 8003956:	990a      	ldr	r1, [sp, #40]	; 0x28
 8003958:	9807      	ldr	r0, [sp, #28]
 800395a:	f002 fd75 	bl	8006448 <__ssprint_r>
 800395e:	2800      	cmp	r0, #0
 8003960:	f47f aa4e 	bne.w	8002e00 <_svfprintf_r+0x1a8>
 8003964:	9c2e      	ldr	r4, [sp, #184]	; 0xb8
 8003966:	e454      	b.n	8003212 <_svfprintf_r+0x5ba>
 8003968:	f418 7f00 	tst.w	r8, #512	; 0x200
 800396c:	f040 8315 	bne.w	8003f9a <_svfprintf_r+0x1342>
 8003970:	6814      	ldr	r4, [r2, #0]
 8003972:	930d      	str	r3, [sp, #52]	; 0x34
 8003974:	2500      	movs	r5, #0
 8003976:	f7ff bb14 	b.w	8002fa2 <_svfprintf_r+0x34a>
 800397a:	0598      	lsls	r0, r3, #22
 800397c:	f100 8317 	bmi.w	8003fae <_svfprintf_r+0x1356>
 8003980:	6814      	ldr	r4, [r2, #0]
 8003982:	910d      	str	r1, [sp, #52]	; 0x34
 8003984:	2201      	movs	r2, #1
 8003986:	2500      	movs	r5, #0
 8003988:	f7ff ba5f 	b.w	8002e4a <_svfprintf_r+0x1f2>
 800398c:	f418 7f00 	tst.w	r8, #512	; 0x200
 8003990:	f040 831b 	bne.w	8003fca <_svfprintf_r+0x1372>
 8003994:	6814      	ldr	r4, [r2, #0]
 8003996:	930d      	str	r3, [sp, #52]	; 0x34
 8003998:	2500      	movs	r5, #0
 800399a:	f7ff ba53 	b.w	8002e44 <_svfprintf_r+0x1ec>
 800399e:	0598      	lsls	r0, r3, #22
 80039a0:	f100 830b 	bmi.w	8003fba <_svfprintf_r+0x1362>
 80039a4:	680c      	ldr	r4, [r1, #0]
 80039a6:	920d      	str	r2, [sp, #52]	; 0x34
 80039a8:	17e5      	asrs	r5, r4, #31
 80039aa:	4620      	mov	r0, r4
 80039ac:	4629      	mov	r1, r5
 80039ae:	f7ff ba9a 	b.w	8002ee6 <_svfprintf_r+0x28e>
 80039b2:	9a09      	ldr	r2, [sp, #36]	; 0x24
 80039b4:	4610      	mov	r0, r2
 80039b6:	17d1      	asrs	r1, r2, #31
 80039b8:	e9c3 0100 	strd	r0, r1, [r3]
 80039bc:	465e      	mov	r6, fp
 80039be:	e43e      	b.n	800323e <_svfprintf_r+0x5e6>
 80039c0:	9c18      	ldr	r4, [sp, #96]	; 0x60
 80039c2:	4622      	mov	r2, r4
 80039c4:	4620      	mov	r0, r4
 80039c6:	9c17      	ldr	r4, [sp, #92]	; 0x5c
 80039c8:	4623      	mov	r3, r4
 80039ca:	4621      	mov	r1, r4
 80039cc:	f7fe fc1c 	bl	8002208 <__aeabi_dcmpun>
 80039d0:	2800      	cmp	r0, #0
 80039d2:	f040 85a1 	bne.w	8004518 <_svfprintf_r+0x18c0>
 80039d6:	2f61      	cmp	r7, #97	; 0x61
 80039d8:	f000 8406 	beq.w	80041e8 <_svfprintf_r+0x1590>
 80039dc:	2f41      	cmp	r7, #65	; 0x41
 80039de:	f000 82ff 	beq.w	8003fe0 <_svfprintf_r+0x1388>
 80039e2:	f027 0320 	bic.w	r3, r7, #32
 80039e6:	f448 7280 	orr.w	r2, r8, #256	; 0x100
 80039ea:	f1ba 3fff 	cmp.w	sl, #4294967295	; 0xffffffff
 80039ee:	9308      	str	r3, [sp, #32]
 80039f0:	9212      	str	r2, [sp, #72]	; 0x48
 80039f2:	9d17      	ldr	r5, [sp, #92]	; 0x5c
 80039f4:	f000 8520 	beq.w	8004438 <_svfprintf_r+0x17e0>
 80039f8:	2b47      	cmp	r3, #71	; 0x47
 80039fa:	f000 8517 	beq.w	800442c <_svfprintf_r+0x17d4>
 80039fe:	2d00      	cmp	r5, #0
 8003a00:	f2c0 83e9 	blt.w	80041d6 <_svfprintf_r+0x157e>
 8003a04:	e9cd 0010 	strd	r0, r0, [sp, #64]	; 0x40
 8003a08:	9b18      	ldr	r3, [sp, #96]	; 0x60
 8003a0a:	930c      	str	r3, [sp, #48]	; 0x30
 8003a0c:	2f66      	cmp	r7, #102	; 0x66
 8003a0e:	f000 84dc 	beq.w	80043ca <_svfprintf_r+0x1772>
 8003a12:	2f46      	cmp	r7, #70	; 0x46
 8003a14:	f000 8567 	beq.w	80044e6 <_svfprintf_r+0x188e>
 8003a18:	9b08      	ldr	r3, [sp, #32]
 8003a1a:	9a0c      	ldr	r2, [sp, #48]	; 0x30
 8003a1c:	2b45      	cmp	r3, #69	; 0x45
 8003a1e:	bf06      	itte	eq
 8003a20:	f10a 0301 	addeq.w	r3, sl, #1
 8003a24:	930e      	streq	r3, [sp, #56]	; 0x38
 8003a26:	f8cd a038 	strne.w	sl, [sp, #56]	; 0x38
 8003a2a:	a82a      	add	r0, sp, #168	; 0xa8
 8003a2c:	a927      	add	r1, sp, #156	; 0x9c
 8003a2e:	9c0e      	ldr	r4, [sp, #56]	; 0x38
 8003a30:	9004      	str	r0, [sp, #16]
 8003a32:	9103      	str	r1, [sp, #12]
 8003a34:	a826      	add	r0, sp, #152	; 0x98
 8003a36:	2102      	movs	r1, #2
 8003a38:	9002      	str	r0, [sp, #8]
 8003a3a:	462b      	mov	r3, r5
 8003a3c:	9401      	str	r4, [sp, #4]
 8003a3e:	9100      	str	r1, [sp, #0]
 8003a40:	9807      	ldr	r0, [sp, #28]
 8003a42:	f000 fe85 	bl	8004750 <_dtoa_r>
 8003a46:	2f67      	cmp	r7, #103	; 0x67
 8003a48:	4606      	mov	r6, r0
 8003a4a:	f040 859a 	bne.w	8004582 <_svfprintf_r+0x192a>
 8003a4e:	f018 0f01 	tst.w	r8, #1
 8003a52:	f040 84f5 	bne.w	8004440 <_svfprintf_r+0x17e8>
 8003a56:	9b2a      	ldr	r3, [sp, #168]	; 0xa8
 8003a58:	4640      	mov	r0, r8
 8003a5a:	1b9b      	subs	r3, r3, r6
 8003a5c:	f8dd 8048 	ldr.w	r8, [sp, #72]	; 0x48
 8003a60:	9314      	str	r3, [sp, #80]	; 0x50
 8003a62:	9b26      	ldr	r3, [sp, #152]	; 0x98
 8003a64:	9315      	str	r3, [sp, #84]	; 0x54
 8003a66:	9b08      	ldr	r3, [sp, #32]
 8003a68:	2b47      	cmp	r3, #71	; 0x47
 8003a6a:	f000 836e 	beq.w	800414a <_svfprintf_r+0x14f2>
 8003a6e:	9b08      	ldr	r3, [sp, #32]
 8003a70:	2b46      	cmp	r3, #70	; 0x46
 8003a72:	f000 8403 	beq.w	800427c <_svfprintf_r+0x1624>
 8003a76:	9908      	ldr	r1, [sp, #32]
 8003a78:	9b15      	ldr	r3, [sp, #84]	; 0x54
 8003a7a:	b2fa      	uxtb	r2, r7
 8003a7c:	2941      	cmp	r1, #65	; 0x41
 8003a7e:	bf08      	it	eq
 8003a80:	320f      	addeq	r2, #15
 8003a82:	f103 33ff 	add.w	r3, r3, #4294967295	; 0xffffffff
 8003a86:	bf06      	itte	eq
 8003a88:	b2d2      	uxtbeq	r2, r2
 8003a8a:	2101      	moveq	r1, #1
 8003a8c:	2100      	movne	r1, #0
 8003a8e:	2b00      	cmp	r3, #0
 8003a90:	9326      	str	r3, [sp, #152]	; 0x98
 8003a92:	bfb8      	it	lt
 8003a94:	9b15      	ldrlt	r3, [sp, #84]	; 0x54
 8003a96:	f88d 20a0 	strb.w	r2, [sp, #160]	; 0xa0
 8003a9a:	bfba      	itte	lt
 8003a9c:	f1c3 0301 	rsblt	r3, r3, #1
 8003aa0:	222d      	movlt	r2, #45	; 0x2d
 8003aa2:	222b      	movge	r2, #43	; 0x2b
 8003aa4:	2b09      	cmp	r3, #9
 8003aa6:	f88d 20a1 	strb.w	r2, [sp, #161]	; 0xa1
 8003aaa:	f300 84e5 	bgt.w	8004478 <_svfprintf_r+0x1820>
 8003aae:	2900      	cmp	r1, #0
 8003ab0:	f040 856f 	bne.w	8004592 <_svfprintf_r+0x193a>
 8003ab4:	2230      	movs	r2, #48	; 0x30
 8003ab6:	f88d 20a2 	strb.w	r2, [sp, #162]	; 0xa2
 8003aba:	f10d 02a3 	add.w	r2, sp, #163	; 0xa3
 8003abe:	3330      	adds	r3, #48	; 0x30
 8003ac0:	7013      	strb	r3, [r2, #0]
 8003ac2:	1c53      	adds	r3, r2, #1
 8003ac4:	aa28      	add	r2, sp, #160	; 0xa0
 8003ac6:	1a9b      	subs	r3, r3, r2
 8003ac8:	9a14      	ldr	r2, [sp, #80]	; 0x50
 8003aca:	931f      	str	r3, [sp, #124]	; 0x7c
 8003acc:	2a01      	cmp	r2, #1
 8003ace:	4413      	add	r3, r2
 8003ad0:	930c      	str	r3, [sp, #48]	; 0x30
 8003ad2:	f340 852d 	ble.w	8004530 <_svfprintf_r+0x18d8>
 8003ad6:	9b0c      	ldr	r3, [sp, #48]	; 0x30
 8003ad8:	9a1c      	ldr	r2, [sp, #112]	; 0x70
 8003ada:	4413      	add	r3, r2
 8003adc:	930c      	str	r3, [sp, #48]	; 0x30
 8003ade:	2300      	movs	r3, #0
 8003ae0:	9313      	str	r3, [sp, #76]	; 0x4c
 8003ae2:	e9cd 3315 	strd	r3, r3, [sp, #84]	; 0x54
 8003ae6:	9b0c      	ldr	r3, [sp, #48]	; 0x30
 8003ae8:	f420 6080 	bic.w	r0, r0, #1024	; 0x400
 8003aec:	ea23 73e3 	bic.w	r3, r3, r3, asr #31
 8003af0:	f440 7880 	orr.w	r8, r0, #256	; 0x100
 8003af4:	9308      	str	r3, [sp, #32]
 8003af6:	9b11      	ldr	r3, [sp, #68]	; 0x44
 8003af8:	2b00      	cmp	r3, #0
 8003afa:	f040 8339 	bne.w	8004170 <_svfprintf_r+0x1518>
 8003afe:	469a      	mov	sl, r3
 8003b00:	f89d 2093 	ldrb.w	r2, [sp, #147]	; 0x93
 8003b04:	f7ff b9ca 	b.w	8002e9c <_svfprintf_r+0x244>
 8003b08:	9a2d      	ldr	r2, [sp, #180]	; 0xb4
 8003b0a:	4913      	ldr	r1, [pc, #76]	; (8003b58 <_svfprintf_r+0xf00>)
 8003b0c:	f8c9 1000 	str.w	r1, [r9]
 8003b10:	3201      	adds	r2, #1
 8003b12:	3401      	adds	r4, #1
 8003b14:	2101      	movs	r1, #1
 8003b16:	2a07      	cmp	r2, #7
 8003b18:	e9cd 242d 	strd	r2, r4, [sp, #180]	; 0xb4
 8003b1c:	f8c9 1004 	str.w	r1, [r9, #4]
 8003b20:	f73f adae 	bgt.w	8003680 <_svfprintf_r+0xa28>
 8003b24:	f109 0908 	add.w	r9, r9, #8
 8003b28:	e5b6      	b.n	8003698 <_svfprintf_r+0xa40>
 8003b2a:	2140      	movs	r1, #64	; 0x40
 8003b2c:	9807      	ldr	r0, [sp, #28]
 8003b2e:	f7fe fc0f 	bl	8002350 <_malloc_r>
 8003b32:	9b0a      	ldr	r3, [sp, #40]	; 0x28
 8003b34:	6018      	str	r0, [r3, #0]
 8003b36:	6118      	str	r0, [r3, #16]
 8003b38:	2800      	cmp	r0, #0
 8003b3a:	f000 8565 	beq.w	8004608 <_svfprintf_r+0x19b0>
 8003b3e:	9a0a      	ldr	r2, [sp, #40]	; 0x28
 8003b40:	2340      	movs	r3, #64	; 0x40
 8003b42:	6153      	str	r3, [r2, #20]
 8003b44:	f7ff b89f 	b.w	8002c86 <_svfprintf_r+0x2e>
 8003b48:	4252      	negs	r2, r2
 8003b4a:	920b      	str	r2, [sp, #44]	; 0x2c
 8003b4c:	930d      	str	r3, [sp, #52]	; 0x34
 8003b4e:	f7ff ba55 	b.w	8002ffc <_svfprintf_r+0x3a4>
 8003b52:	bf00      	nop
 8003b54:	08007c28 	.word	0x08007c28
 8003b58:	08007bd0 	.word	0x08007bd0
 8003b5c:	aa2c      	add	r2, sp, #176	; 0xb0
 8003b5e:	990a      	ldr	r1, [sp, #40]	; 0x28
 8003b60:	9807      	ldr	r0, [sp, #28]
 8003b62:	f002 fc71 	bl	8006448 <__ssprint_r>
 8003b66:	2800      	cmp	r0, #0
 8003b68:	f47f a94a 	bne.w	8002e00 <_svfprintf_r+0x1a8>
 8003b6c:	e9dd 322d 	ldrd	r3, r2, [sp, #180]	; 0xb4
 8003b70:	3301      	adds	r3, #1
 8003b72:	920c      	str	r2, [sp, #48]	; 0x30
 8003b74:	930e      	str	r3, [sp, #56]	; 0x38
 8003b76:	f10d 09c4 	add.w	r9, sp, #196	; 0xc4
 8003b7a:	af2f      	add	r7, sp, #188	; 0xbc
 8003b7c:	e602      	b.n	8003784 <_svfprintf_r+0xb2c>
 8003b7e:	aa2c      	add	r2, sp, #176	; 0xb0
 8003b80:	990a      	ldr	r1, [sp, #40]	; 0x28
 8003b82:	9807      	ldr	r0, [sp, #28]
 8003b84:	f002 fc60 	bl	8006448 <__ssprint_r>
 8003b88:	2800      	cmp	r0, #0
 8003b8a:	f47f a939 	bne.w	8002e00 <_svfprintf_r+0x1a8>
 8003b8e:	9c2e      	ldr	r4, [sp, #184]	; 0xb8
 8003b90:	f10d 09bc 	add.w	r9, sp, #188	; 0xbc
 8003b94:	e4f5      	b.n	8003582 <_svfprintf_r+0x92a>
 8003b96:	4653      	mov	r3, sl
 8003b98:	2b06      	cmp	r3, #6
 8003b9a:	bf28      	it	cs
 8003b9c:	2306      	movcs	r3, #6
 8003b9e:	46b2      	mov	sl, r6
 8003ba0:	9613      	str	r6, [sp, #76]	; 0x4c
 8003ba2:	e9cd 6615 	strd	r6, r6, [sp, #84]	; 0x54
 8003ba6:	9610      	str	r6, [sp, #64]	; 0x40
 8003ba8:	4632      	mov	r2, r6
 8003baa:	9308      	str	r3, [sp, #32]
 8003bac:	e9cd 340c 	strd	r3, r4, [sp, #48]	; 0x30
 8003bb0:	4ea4      	ldr	r6, [pc, #656]	; (8003e44 <_svfprintf_r+0x11ec>)
 8003bb2:	f7ff b973 	b.w	8002e9c <_svfprintf_r+0x244>
 8003bb6:	aa2c      	add	r2, sp, #176	; 0xb0
 8003bb8:	990a      	ldr	r1, [sp, #40]	; 0x28
 8003bba:	9807      	ldr	r0, [sp, #28]
 8003bbc:	f002 fc44 	bl	8006448 <__ssprint_r>
 8003bc0:	2800      	cmp	r0, #0
 8003bc2:	f47f a91d 	bne.w	8002e00 <_svfprintf_r+0x1a8>
 8003bc6:	f89d 2093 	ldrb.w	r2, [sp, #147]	; 0x93
 8003bca:	9c2e      	ldr	r4, [sp, #184]	; 0xb8
 8003bcc:	f10d 09bc 	add.w	r9, sp, #188	; 0xbc
 8003bd0:	f7ff ba76 	b.w	80030c0 <_svfprintf_r+0x468>
 8003bd4:	460c      	mov	r4, r1
 8003bd6:	4631      	mov	r1, r6
 8003bd8:	464e      	mov	r6, r9
 8003bda:	4699      	mov	r9, r3
 8003bdc:	460b      	mov	r3, r1
 8003bde:	3201      	adds	r2, #1
 8003be0:	442c      	add	r4, r5
 8003be2:	2a07      	cmp	r2, #7
 8003be4:	e9cd 242d 	strd	r2, r4, [sp, #180]	; 0xb4
 8003be8:	e9c9 3500 	strd	r3, r5, [r9]
 8003bec:	f340 81d2 	ble.w	8003f94 <_svfprintf_r+0x133c>
 8003bf0:	aa2c      	add	r2, sp, #176	; 0xb0
 8003bf2:	990a      	ldr	r1, [sp, #40]	; 0x28
 8003bf4:	9807      	ldr	r0, [sp, #28]
 8003bf6:	f002 fc27 	bl	8006448 <__ssprint_r>
 8003bfa:	2800      	cmp	r0, #0
 8003bfc:	f47f a900 	bne.w	8002e00 <_svfprintf_r+0x1a8>
 8003c00:	9c2e      	ldr	r4, [sp, #184]	; 0xb8
 8003c02:	f10d 09bc 	add.w	r9, sp, #188	; 0xbc
 8003c06:	9b15      	ldr	r3, [sp, #84]	; 0x54
 8003c08:	f418 6f80 	tst.w	r8, #1024	; 0x400
 8003c0c:	4433      	add	r3, r6
 8003c0e:	469a      	mov	sl, r3
 8003c10:	f040 811c 	bne.w	8003e4c <_svfprintf_r+0x11f4>
 8003c14:	9b26      	ldr	r3, [sp, #152]	; 0x98
 8003c16:	9a14      	ldr	r2, [sp, #80]	; 0x50
 8003c18:	4293      	cmp	r3, r2
 8003c1a:	db49      	blt.n	8003cb0 <_svfprintf_r+0x1058>
 8003c1c:	f018 0f01 	tst.w	r8, #1
 8003c20:	d146      	bne.n	8003cb0 <_svfprintf_r+0x1058>
 8003c22:	9a14      	ldr	r2, [sp, #80]	; 0x50
 8003c24:	18b5      	adds	r5, r6, r2
 8003c26:	eba5 050a 	sub.w	r5, r5, sl
 8003c2a:	1ad3      	subs	r3, r2, r3
 8003c2c:	429d      	cmp	r5, r3
 8003c2e:	bfa8      	it	ge
 8003c30:	461d      	movge	r5, r3
 8003c32:	2d00      	cmp	r5, #0
 8003c34:	dd0d      	ble.n	8003c52 <_svfprintf_r+0xffa>
 8003c36:	9a2d      	ldr	r2, [sp, #180]	; 0xb4
 8003c38:	f8c9 a000 	str.w	sl, [r9]
 8003c3c:	3201      	adds	r2, #1
 8003c3e:	442c      	add	r4, r5
 8003c40:	2a07      	cmp	r2, #7
 8003c42:	942e      	str	r4, [sp, #184]	; 0xb8
 8003c44:	f8c9 5004 	str.w	r5, [r9, #4]
 8003c48:	922d      	str	r2, [sp, #180]	; 0xb4
 8003c4a:	f300 8336 	bgt.w	80042ba <_svfprintf_r+0x1662>
 8003c4e:	f109 0908 	add.w	r9, r9, #8
 8003c52:	2d00      	cmp	r5, #0
 8003c54:	bfac      	ite	ge
 8003c56:	1b5d      	subge	r5, r3, r5
 8003c58:	461d      	movlt	r5, r3
 8003c5a:	2d00      	cmp	r5, #0
 8003c5c:	f77f aaa2 	ble.w	80031a4 <_svfprintf_r+0x54c>
 8003c60:	2d10      	cmp	r5, #16
 8003c62:	9a2d      	ldr	r2, [sp, #180]	; 0xb4
 8003c64:	4b78      	ldr	r3, [pc, #480]	; (8003e48 <_svfprintf_r+0x11f0>)
 8003c66:	f340 80ac 	ble.w	8003dc2 <_svfprintf_r+0x116a>
 8003c6a:	4619      	mov	r1, r3
 8003c6c:	2610      	movs	r6, #16
 8003c6e:	4623      	mov	r3, r4
 8003c70:	9f07      	ldr	r7, [sp, #28]
 8003c72:	f8dd a028 	ldr.w	sl, [sp, #40]	; 0x28
 8003c76:	460c      	mov	r4, r1
 8003c78:	e005      	b.n	8003c86 <_svfprintf_r+0x102e>
 8003c7a:	f109 0908 	add.w	r9, r9, #8
 8003c7e:	3d10      	subs	r5, #16
 8003c80:	2d10      	cmp	r5, #16
 8003c82:	f340 809b 	ble.w	8003dbc <_svfprintf_r+0x1164>
 8003c86:	3201      	adds	r2, #1
 8003c88:	3310      	adds	r3, #16
 8003c8a:	2a07      	cmp	r2, #7
 8003c8c:	e9cd 232d 	strd	r2, r3, [sp, #180]	; 0xb4
 8003c90:	e9c9 4600 	strd	r4, r6, [r9]
 8003c94:	ddf1      	ble.n	8003c7a <_svfprintf_r+0x1022>
 8003c96:	aa2c      	add	r2, sp, #176	; 0xb0
 8003c98:	4651      	mov	r1, sl
 8003c9a:	4638      	mov	r0, r7
 8003c9c:	f002 fbd4 	bl	8006448 <__ssprint_r>
 8003ca0:	2800      	cmp	r0, #0
 8003ca2:	f47f a8ad 	bne.w	8002e00 <_svfprintf_r+0x1a8>
 8003ca6:	e9dd 232d 	ldrd	r2, r3, [sp, #180]	; 0xb4
 8003caa:	f10d 09bc 	add.w	r9, sp, #188	; 0xbc
 8003cae:	e7e6      	b.n	8003c7e <_svfprintf_r+0x1026>
 8003cb0:	9a2d      	ldr	r2, [sp, #180]	; 0xb4
 8003cb2:	991d      	ldr	r1, [sp, #116]	; 0x74
 8003cb4:	f8c9 1000 	str.w	r1, [r9]
 8003cb8:	991c      	ldr	r1, [sp, #112]	; 0x70
 8003cba:	f8c9 1004 	str.w	r1, [r9, #4]
 8003cbe:	3201      	adds	r2, #1
 8003cc0:	440c      	add	r4, r1
 8003cc2:	2a07      	cmp	r2, #7
 8003cc4:	942e      	str	r4, [sp, #184]	; 0xb8
 8003cc6:	922d      	str	r2, [sp, #180]	; 0xb4
 8003cc8:	f300 82af 	bgt.w	800422a <_svfprintf_r+0x15d2>
 8003ccc:	f109 0908 	add.w	r9, r9, #8
 8003cd0:	e7a7      	b.n	8003c22 <_svfprintf_r+0xfca>
 8003cd2:	2d00      	cmp	r5, #0
 8003cd4:	bf08      	it	eq
 8003cd6:	2c0a      	cmpeq	r4, #10
 8003cd8:	4698      	mov	r8, r3
 8003cda:	f4ff ad6a 	bcc.w	80037b2 <_svfprintf_r+0xb5a>
 8003cde:	f408 6380 	and.w	r3, r8, #1024	; 0x400
 8003ce2:	2200      	movs	r2, #0
 8003ce4:	f8cd 9030 	str.w	r9, [sp, #48]	; 0x30
 8003ce8:	9710      	str	r7, [sp, #64]	; 0x40
 8003cea:	f8cd 8038 	str.w	r8, [sp, #56]	; 0x38
 8003cee:	ae58      	add	r6, sp, #352	; 0x160
 8003cf0:	4691      	mov	r9, r2
 8003cf2:	f8dd 8080 	ldr.w	r8, [sp, #128]	; 0x80
 8003cf6:	461f      	mov	r7, r3
 8003cf8:	e00a      	b.n	8003d10 <_svfprintf_r+0x10b8>
 8003cfa:	2300      	movs	r3, #0
 8003cfc:	4620      	mov	r0, r4
 8003cfe:	4629      	mov	r1, r5
 8003d00:	220a      	movs	r2, #10
 8003d02:	f003 fdcb 	bl	800789c <__aeabi_uldivmod>
 8003d06:	4604      	mov	r4, r0
 8003d08:	460d      	mov	r5, r1
 8003d0a:	ea54 0305 	orrs.w	r3, r4, r5
 8003d0e:	d047      	beq.n	8003da0 <_svfprintf_r+0x1148>
 8003d10:	220a      	movs	r2, #10
 8003d12:	2300      	movs	r3, #0
 8003d14:	4620      	mov	r0, r4
 8003d16:	4629      	mov	r1, r5
 8003d18:	f003 fdc0 	bl	800789c <__aeabi_uldivmod>
 8003d1c:	3230      	adds	r2, #48	; 0x30
 8003d1e:	f806 2c01 	strb.w	r2, [r6, #-1]
 8003d22:	f109 0901 	add.w	r9, r9, #1
 8003d26:	3e01      	subs	r6, #1
 8003d28:	2f00      	cmp	r7, #0
 8003d2a:	d0e6      	beq.n	8003cfa <_svfprintf_r+0x10a2>
 8003d2c:	f898 3000 	ldrb.w	r3, [r8]
 8003d30:	4599      	cmp	r9, r3
 8003d32:	d1e2      	bne.n	8003cfa <_svfprintf_r+0x10a2>
 8003d34:	f1b9 0fff 	cmp.w	r9, #255	; 0xff
 8003d38:	d0df      	beq.n	8003cfa <_svfprintf_r+0x10a2>
 8003d3a:	2d00      	cmp	r5, #0
 8003d3c:	bf08      	it	eq
 8003d3e:	2c0a      	cmpeq	r4, #10
 8003d40:	d3db      	bcc.n	8003cfa <_svfprintf_r+0x10a2>
 8003d42:	9b21      	ldr	r3, [sp, #132]	; 0x84
 8003d44:	991e      	ldr	r1, [sp, #120]	; 0x78
 8003d46:	1af6      	subs	r6, r6, r3
 8003d48:	461a      	mov	r2, r3
 8003d4a:	4630      	mov	r0, r6
 8003d4c:	f002 fb4a 	bl	80063e4 <strncpy>
 8003d50:	f898 3001 	ldrb.w	r3, [r8, #1]
 8003d54:	2b00      	cmp	r3, #0
 8003d56:	f000 8387 	beq.w	8004468 <_svfprintf_r+0x1810>
 8003d5a:	f108 0801 	add.w	r8, r8, #1
 8003d5e:	f04f 0900 	mov.w	r9, #0
 8003d62:	e7ca      	b.n	8003cfa <_svfprintf_r+0x10a2>
 8003d64:	aa2c      	add	r2, sp, #176	; 0xb0
 8003d66:	990a      	ldr	r1, [sp, #40]	; 0x28
 8003d68:	9807      	ldr	r0, [sp, #28]
 8003d6a:	f002 fb6d 	bl	8006448 <__ssprint_r>
 8003d6e:	2800      	cmp	r0, #0
 8003d70:	f47f a846 	bne.w	8002e00 <_svfprintf_r+0x1a8>
 8003d74:	9b2e      	ldr	r3, [sp, #184]	; 0xb8
 8003d76:	930c      	str	r3, [sp, #48]	; 0x30
 8003d78:	9d2d      	ldr	r5, [sp, #180]	; 0xb4
 8003d7a:	af2f      	add	r7, sp, #188	; 0xbc
 8003d7c:	e4d0      	b.n	8003720 <_svfprintf_r+0xac8>
 8003d7e:	aa2c      	add	r2, sp, #176	; 0xb0
 8003d80:	990a      	ldr	r1, [sp, #40]	; 0x28
 8003d82:	9807      	ldr	r0, [sp, #28]
 8003d84:	f002 fb60 	bl	8006448 <__ssprint_r>
 8003d88:	2800      	cmp	r0, #0
 8003d8a:	f47f a839 	bne.w	8002e00 <_svfprintf_r+0x1a8>
 8003d8e:	9b2e      	ldr	r3, [sp, #184]	; 0xb8
 8003d90:	930c      	str	r3, [sp, #48]	; 0x30
 8003d92:	9d2d      	ldr	r5, [sp, #180]	; 0xb4
 8003d94:	af2f      	add	r7, sp, #188	; 0xbc
 8003d96:	e4d1      	b.n	800373c <_svfprintf_r+0xae4>
 8003d98:	2a01      	cmp	r2, #1
 8003d9a:	f47f a8be 	bne.w	8002f1a <_svfprintf_r+0x2c2>
 8003d9e:	e508      	b.n	80037b2 <_svfprintf_r+0xb5a>
 8003da0:	9b08      	ldr	r3, [sp, #32]
 8003da2:	f8cd 9050 	str.w	r9, [sp, #80]	; 0x50
 8003da6:	1b9b      	subs	r3, r3, r6
 8003da8:	f8dd 9030 	ldr.w	r9, [sp, #48]	; 0x30
 8003dac:	f8cd 8080 	str.w	r8, [sp, #128]	; 0x80
 8003db0:	9f10      	ldr	r7, [sp, #64]	; 0x40
 8003db2:	f8dd 8038 	ldr.w	r8, [sp, #56]	; 0x38
 8003db6:	930c      	str	r3, [sp, #48]	; 0x30
 8003db8:	f7ff b864 	b.w	8002e84 <_svfprintf_r+0x22c>
 8003dbc:	4621      	mov	r1, r4
 8003dbe:	461c      	mov	r4, r3
 8003dc0:	460b      	mov	r3, r1
 8003dc2:	3201      	adds	r2, #1
 8003dc4:	442c      	add	r4, r5
 8003dc6:	2a07      	cmp	r2, #7
 8003dc8:	e9cd 242d 	strd	r2, r4, [sp, #180]	; 0xb4
 8003dcc:	e9c9 3500 	strd	r3, r5, [r9]
 8003dd0:	f77f a9e6 	ble.w	80031a0 <_svfprintf_r+0x548>
 8003dd4:	e482      	b.n	80036dc <_svfprintf_r+0xa84>
 8003dd6:	aa2c      	add	r2, sp, #176	; 0xb0
 8003dd8:	990a      	ldr	r1, [sp, #40]	; 0x28
 8003dda:	9807      	ldr	r0, [sp, #28]
 8003ddc:	f002 fb34 	bl	8006448 <__ssprint_r>
 8003de0:	2800      	cmp	r0, #0
 8003de2:	f47f a80d 	bne.w	8002e00 <_svfprintf_r+0x1a8>
 8003de6:	9c2e      	ldr	r4, [sp, #184]	; 0xb8
 8003de8:	f10d 09bc 	add.w	r9, sp, #188	; 0xbc
 8003dec:	f7ff b98c 	b.w	8003108 <_svfprintf_r+0x4b0>
 8003df0:	aa2c      	add	r2, sp, #176	; 0xb0
 8003df2:	990a      	ldr	r1, [sp, #40]	; 0x28
 8003df4:	9807      	ldr	r0, [sp, #28]
 8003df6:	f002 fb27 	bl	8006448 <__ssprint_r>
 8003dfa:	2800      	cmp	r0, #0
 8003dfc:	f47f a800 	bne.w	8002e00 <_svfprintf_r+0x1a8>
 8003e00:	f10d 09bc 	add.w	r9, sp, #188	; 0xbc
 8003e04:	f7ff bba7 	b.w	8003556 <_svfprintf_r+0x8fe>
 8003e08:	920c      	str	r2, [sp, #48]	; 0x30
 8003e0a:	463a      	mov	r2, r7
 8003e0c:	461f      	mov	r7, r3
 8003e0e:	4613      	mov	r3, r2
 8003e10:	1c6a      	adds	r2, r5, #1
 8003e12:	920e      	str	r2, [sp, #56]	; 0x38
 8003e14:	f107 0208 	add.w	r2, r7, #8
 8003e18:	990c      	ldr	r1, [sp, #48]	; 0x30
 8003e1a:	e9c7 3a00 	strd	r3, sl, [r7]
 8003e1e:	9b0e      	ldr	r3, [sp, #56]	; 0x38
 8003e20:	932d      	str	r3, [sp, #180]	; 0xb4
 8003e22:	4451      	add	r1, sl
 8003e24:	2b07      	cmp	r3, #7
 8003e26:	910c      	str	r1, [sp, #48]	; 0x30
 8003e28:	912e      	str	r1, [sp, #184]	; 0xb8
 8003e2a:	f73f ae97 	bgt.w	8003b5c <_svfprintf_r+0xf04>
 8003e2e:	3301      	adds	r3, #1
 8003e30:	930e      	str	r3, [sp, #56]	; 0x38
 8003e32:	f102 0908 	add.w	r9, r2, #8
 8003e36:	4617      	mov	r7, r2
 8003e38:	e4a4      	b.n	8003784 <_svfprintf_r+0xb2c>
 8003e3a:	9a09      	ldr	r2, [sp, #36]	; 0x24
 8003e3c:	601a      	str	r2, [r3, #0]
 8003e3e:	465e      	mov	r6, fp
 8003e40:	f7ff b9fd 	b.w	800323e <_svfprintf_r+0x5e6>
 8003e44:	08007c10 	.word	0x08007c10
 8003e48:	08007c28 	.word	0x08007c28
 8003e4c:	9b14      	ldr	r3, [sp, #80]	; 0x50
 8003e4e:	f8cd b038 	str.w	fp, [sp, #56]	; 0x38
 8003e52:	18f3      	adds	r3, r6, r3
 8003e54:	930c      	str	r3, [sp, #48]	; 0x30
 8003e56:	9b16      	ldr	r3, [sp, #88]	; 0x58
 8003e58:	f8cd 8044 	str.w	r8, [sp, #68]	; 0x44
 8003e5c:	464a      	mov	r2, r9
 8003e5e:	9612      	str	r6, [sp, #72]	; 0x48
 8003e60:	4fbf      	ldr	r7, [pc, #764]	; (8004160 <_svfprintf_r+0x1508>)
 8003e62:	f8dd 9084 	ldr.w	r9, [sp, #132]	; 0x84
 8003e66:	f8dd 8080 	ldr.w	r8, [sp, #128]	; 0x80
 8003e6a:	f8dd b028 	ldr.w	fp, [sp, #40]	; 0x28
 8003e6e:	4656      	mov	r6, sl
 8003e70:	4621      	mov	r1, r4
 8003e72:	f8dd a01c 	ldr.w	sl, [sp, #28]
 8003e76:	2b00      	cmp	r3, #0
 8003e78:	d05e      	beq.n	8003f38 <_svfprintf_r+0x12e0>
 8003e7a:	9b13      	ldr	r3, [sp, #76]	; 0x4c
 8003e7c:	2b00      	cmp	r3, #0
 8003e7e:	d15f      	bne.n	8003f40 <_svfprintf_r+0x12e8>
 8003e80:	9b16      	ldr	r3, [sp, #88]	; 0x58
 8003e82:	3b01      	subs	r3, #1
 8003e84:	f108 38ff 	add.w	r8, r8, #4294967295	; 0xffffffff
 8003e88:	9316      	str	r3, [sp, #88]	; 0x58
 8003e8a:	9b2d      	ldr	r3, [sp, #180]	; 0xb4
 8003e8c:	981e      	ldr	r0, [sp, #120]	; 0x78
 8003e8e:	6010      	str	r0, [r2, #0]
 8003e90:	3301      	adds	r3, #1
 8003e92:	4449      	add	r1, r9
 8003e94:	2b07      	cmp	r3, #7
 8003e96:	912e      	str	r1, [sp, #184]	; 0xb8
 8003e98:	f8c2 9004 	str.w	r9, [r2, #4]
 8003e9c:	932d      	str	r3, [sp, #180]	; 0xb4
 8003e9e:	dc53      	bgt.n	8003f48 <_svfprintf_r+0x12f0>
 8003ea0:	3208      	adds	r2, #8
 8003ea2:	980c      	ldr	r0, [sp, #48]	; 0x30
 8003ea4:	f898 3000 	ldrb.w	r3, [r8]
 8003ea8:	1b85      	subs	r5, r0, r6
 8003eaa:	429d      	cmp	r5, r3
 8003eac:	bfa8      	it	ge
 8003eae:	461d      	movge	r5, r3
 8003eb0:	2d00      	cmp	r5, #0
 8003eb2:	dd0b      	ble.n	8003ecc <_svfprintf_r+0x1274>
 8003eb4:	9b2d      	ldr	r3, [sp, #180]	; 0xb4
 8003eb6:	6016      	str	r6, [r2, #0]
 8003eb8:	3301      	adds	r3, #1
 8003eba:	4429      	add	r1, r5
 8003ebc:	2b07      	cmp	r3, #7
 8003ebe:	912e      	str	r1, [sp, #184]	; 0xb8
 8003ec0:	6055      	str	r5, [r2, #4]
 8003ec2:	932d      	str	r3, [sp, #180]	; 0xb4
 8003ec4:	dc4b      	bgt.n	8003f5e <_svfprintf_r+0x1306>
 8003ec6:	f898 3000 	ldrb.w	r3, [r8]
 8003eca:	3208      	adds	r2, #8
 8003ecc:	2d00      	cmp	r5, #0
 8003ece:	bfac      	ite	ge
 8003ed0:	1b5d      	subge	r5, r3, r5
 8003ed2:	461d      	movlt	r5, r3
 8003ed4:	2d00      	cmp	r5, #0
 8003ed6:	dd2b      	ble.n	8003f30 <_svfprintf_r+0x12d8>
 8003ed8:	2d10      	cmp	r5, #16
 8003eda:	982d      	ldr	r0, [sp, #180]	; 0xb4
 8003edc:	dd1c      	ble.n	8003f18 <_svfprintf_r+0x12c0>
 8003ede:	2410      	movs	r4, #16
 8003ee0:	e004      	b.n	8003eec <_svfprintf_r+0x1294>
 8003ee2:	3d10      	subs	r5, #16
 8003ee4:	2d10      	cmp	r5, #16
 8003ee6:	f102 0208 	add.w	r2, r2, #8
 8003eea:	dd15      	ble.n	8003f18 <_svfprintf_r+0x12c0>
 8003eec:	3001      	adds	r0, #1
 8003eee:	3110      	adds	r1, #16
 8003ef0:	2807      	cmp	r0, #7
 8003ef2:	e9cd 012d 	strd	r0, r1, [sp, #180]	; 0xb4
 8003ef6:	e9c2 7400 	strd	r7, r4, [r2]
 8003efa:	ddf2      	ble.n	8003ee2 <_svfprintf_r+0x128a>
 8003efc:	aa2c      	add	r2, sp, #176	; 0xb0
 8003efe:	4659      	mov	r1, fp
 8003f00:	4650      	mov	r0, sl
 8003f02:	f002 faa1 	bl	8006448 <__ssprint_r>
 8003f06:	2800      	cmp	r0, #0
 8003f08:	f47e af7a 	bne.w	8002e00 <_svfprintf_r+0x1a8>
 8003f0c:	3d10      	subs	r5, #16
 8003f0e:	2d10      	cmp	r5, #16
 8003f10:	e9dd 012d 	ldrd	r0, r1, [sp, #180]	; 0xb4
 8003f14:	aa2f      	add	r2, sp, #188	; 0xbc
 8003f16:	dce9      	bgt.n	8003eec <_svfprintf_r+0x1294>
 8003f18:	3001      	adds	r0, #1
 8003f1a:	4429      	add	r1, r5
 8003f1c:	2807      	cmp	r0, #7
 8003f1e:	e9cd 012d 	strd	r0, r1, [sp, #180]	; 0xb4
 8003f22:	e9c2 7500 	strd	r7, r5, [r2]
 8003f26:	f73e af63 	bgt.w	8002df0 <_svfprintf_r+0x198>
 8003f2a:	f898 3000 	ldrb.w	r3, [r8]
 8003f2e:	3208      	adds	r2, #8
 8003f30:	441e      	add	r6, r3
 8003f32:	9b16      	ldr	r3, [sp, #88]	; 0x58
 8003f34:	2b00      	cmp	r3, #0
 8003f36:	d1a0      	bne.n	8003e7a <_svfprintf_r+0x1222>
 8003f38:	9b13      	ldr	r3, [sp, #76]	; 0x4c
 8003f3a:	2b00      	cmp	r3, #0
 8003f3c:	f000 80f5 	beq.w	800412a <_svfprintf_r+0x14d2>
 8003f40:	9b13      	ldr	r3, [sp, #76]	; 0x4c
 8003f42:	3b01      	subs	r3, #1
 8003f44:	9313      	str	r3, [sp, #76]	; 0x4c
 8003f46:	e7a0      	b.n	8003e8a <_svfprintf_r+0x1232>
 8003f48:	aa2c      	add	r2, sp, #176	; 0xb0
 8003f4a:	4659      	mov	r1, fp
 8003f4c:	4650      	mov	r0, sl
 8003f4e:	f002 fa7b 	bl	8006448 <__ssprint_r>
 8003f52:	2800      	cmp	r0, #0
 8003f54:	f47e af54 	bne.w	8002e00 <_svfprintf_r+0x1a8>
 8003f58:	992e      	ldr	r1, [sp, #184]	; 0xb8
 8003f5a:	aa2f      	add	r2, sp, #188	; 0xbc
 8003f5c:	e7a1      	b.n	8003ea2 <_svfprintf_r+0x124a>
 8003f5e:	aa2c      	add	r2, sp, #176	; 0xb0
 8003f60:	4659      	mov	r1, fp
 8003f62:	4650      	mov	r0, sl
 8003f64:	f002 fa70 	bl	8006448 <__ssprint_r>
 8003f68:	2800      	cmp	r0, #0
 8003f6a:	f47e af49 	bne.w	8002e00 <_svfprintf_r+0x1a8>
 8003f6e:	f898 3000 	ldrb.w	r3, [r8]
 8003f72:	992e      	ldr	r1, [sp, #184]	; 0xb8
 8003f74:	aa2f      	add	r2, sp, #188	; 0xbc
 8003f76:	e7a9      	b.n	8003ecc <_svfprintf_r+0x1274>
 8003f78:	4630      	mov	r0, r6
 8003f7a:	f7fe fdc1 	bl	8002b00 <strlen>
 8003f7e:	46aa      	mov	sl, r5
 8003f80:	4603      	mov	r3, r0
 8003f82:	900c      	str	r0, [sp, #48]	; 0x30
 8003f84:	f7ff b9a4 	b.w	80032d0 <_svfprintf_r+0x678>
 8003f88:	f898 3000 	ldrb.w	r3, [r8]
 8003f8c:	992e      	ldr	r1, [sp, #184]	; 0xb8
 8003f8e:	aa2f      	add	r2, sp, #188	; 0xbc
 8003f90:	441e      	add	r6, r3
 8003f92:	e7ce      	b.n	8003f32 <_svfprintf_r+0x12da>
 8003f94:	f109 0908 	add.w	r9, r9, #8
 8003f98:	e635      	b.n	8003c06 <_svfprintf_r+0xfae>
 8003f9a:	7814      	ldrb	r4, [r2, #0]
 8003f9c:	930d      	str	r3, [sp, #52]	; 0x34
 8003f9e:	2500      	movs	r5, #0
 8003fa0:	f7fe bfff 	b.w	8002fa2 <_svfprintf_r+0x34a>
 8003fa4:	9a09      	ldr	r2, [sp, #36]	; 0x24
 8003fa6:	801a      	strh	r2, [r3, #0]
 8003fa8:	465e      	mov	r6, fp
 8003faa:	f7ff b948 	b.w	800323e <_svfprintf_r+0x5e6>
 8003fae:	7814      	ldrb	r4, [r2, #0]
 8003fb0:	910d      	str	r1, [sp, #52]	; 0x34
 8003fb2:	2500      	movs	r5, #0
 8003fb4:	2201      	movs	r2, #1
 8003fb6:	f7fe bf48 	b.w	8002e4a <_svfprintf_r+0x1f2>
 8003fba:	f991 4000 	ldrsb.w	r4, [r1]
 8003fbe:	920d      	str	r2, [sp, #52]	; 0x34
 8003fc0:	17e5      	asrs	r5, r4, #31
 8003fc2:	4620      	mov	r0, r4
 8003fc4:	4629      	mov	r1, r5
 8003fc6:	f7fe bf8e 	b.w	8002ee6 <_svfprintf_r+0x28e>
 8003fca:	7814      	ldrb	r4, [r2, #0]
 8003fcc:	930d      	str	r3, [sp, #52]	; 0x34
 8003fce:	2500      	movs	r5, #0
 8003fd0:	f7fe bf38 	b.w	8002e44 <_svfprintf_r+0x1ec>
 8003fd4:	f018 0f01 	tst.w	r8, #1
 8003fd8:	f43f a8e4 	beq.w	80031a4 <_svfprintf_r+0x54c>
 8003fdc:	f7ff bb61 	b.w	80036a2 <_svfprintf_r+0xa4a>
 8003fe0:	2330      	movs	r3, #48	; 0x30
 8003fe2:	f88d 3094 	strb.w	r3, [sp, #148]	; 0x94
 8003fe6:	2358      	movs	r3, #88	; 0x58
 8003fe8:	f1ba 0f63 	cmp.w	sl, #99	; 0x63
 8003fec:	f88d 3095 	strb.w	r3, [sp, #149]	; 0x95
 8003ff0:	f048 0402 	orr.w	r4, r8, #2
 8003ff4:	f300 81ad 	bgt.w	8004352 <_svfprintf_r+0x16fa>
 8003ff8:	f448 7381 	orr.w	r3, r8, #258	; 0x102
 8003ffc:	9312      	str	r3, [sp, #72]	; 0x48
 8003ffe:	f027 0320 	bic.w	r3, r7, #32
 8004002:	9308      	str	r3, [sp, #32]
 8004004:	9d17      	ldr	r5, [sp, #92]	; 0x5c
 8004006:	2300      	movs	r3, #0
 8004008:	46a0      	mov	r8, r4
 800400a:	9310      	str	r3, [sp, #64]	; 0x40
 800400c:	ae3f      	add	r6, sp, #252	; 0xfc
 800400e:	2d00      	cmp	r5, #0
 8004010:	f2c0 80e2 	blt.w	80041d8 <_svfprintf_r+0x1580>
 8004014:	9b18      	ldr	r3, [sp, #96]	; 0x60
 8004016:	930c      	str	r3, [sp, #48]	; 0x30
 8004018:	9d17      	ldr	r5, [sp, #92]	; 0x5c
 800401a:	2300      	movs	r3, #0
 800401c:	9311      	str	r3, [sp, #68]	; 0x44
 800401e:	2f61      	cmp	r7, #97	; 0x61
 8004020:	f000 815a 	beq.w	80042d8 <_svfprintf_r+0x1680>
 8004024:	2f41      	cmp	r7, #65	; 0x41
 8004026:	f47f acf1 	bne.w	8003a0c <_svfprintf_r+0xdb4>
 800402a:	aa26      	add	r2, sp, #152	; 0x98
 800402c:	980c      	ldr	r0, [sp, #48]	; 0x30
 800402e:	4629      	mov	r1, r5
 8004030:	f002 f9a6 	bl	8006380 <frexp>
 8004034:	2200      	movs	r2, #0
 8004036:	f04f 537f 	mov.w	r3, #1069547520	; 0x3fc00000
 800403a:	f7fd fe4b 	bl	8001cd4 <__aeabi_dmul>
 800403e:	e9dd 2319 	ldrd	r2, r3, [sp, #100]	; 0x64
 8004042:	e9cd 010e 	strd	r0, r1, [sp, #56]	; 0x38
 8004046:	f7fe f8ad 	bl	80021a4 <__aeabi_dcmpeq>
 800404a:	2800      	cmp	r0, #0
 800404c:	f040 8243 	bne.w	80044d6 <_svfprintf_r+0x187e>
 8004050:	4b44      	ldr	r3, [pc, #272]	; (8004164 <_svfprintf_r+0x150c>)
 8004052:	930c      	str	r3, [sp, #48]	; 0x30
 8004054:	e9cd 7a15 	strd	r7, sl, [sp, #84]	; 0x54
 8004058:	f10a 34ff 	add.w	r4, sl, #4294967295	; 0xffffffff
 800405c:	e9cd 9b13 	strd	r9, fp, [sp, #76]	; 0x4c
 8004060:	9623      	str	r6, [sp, #140]	; 0x8c
 8004062:	46b1      	mov	r9, r6
 8004064:	f8cd 8088 	str.w	r8, [sp, #136]	; 0x88
 8004068:	f8dd a030 	ldr.w	sl, [sp, #48]	; 0x30
 800406c:	e9dd 670e 	ldrd	r6, r7, [sp, #56]	; 0x38
 8004070:	e003      	b.n	800407a <_svfprintf_r+0x1422>
 8004072:	f7fe f897 	bl	80021a4 <__aeabi_dcmpeq>
 8004076:	bb10      	cbnz	r0, 80040be <_svfprintf_r+0x1466>
 8004078:	46a9      	mov	r9, r5
 800407a:	2200      	movs	r2, #0
 800407c:	4b3a      	ldr	r3, [pc, #232]	; (8004168 <_svfprintf_r+0x1510>)
 800407e:	4630      	mov	r0, r6
 8004080:	4639      	mov	r1, r7
 8004082:	f7fd fe27 	bl	8001cd4 <__aeabi_dmul>
 8004086:	460f      	mov	r7, r1
 8004088:	4606      	mov	r6, r0
 800408a:	f7fe f8d3 	bl	8002234 <__aeabi_d2iz>
 800408e:	4680      	mov	r8, r0
 8004090:	f7fd fdb6 	bl	8001c00 <__aeabi_i2d>
 8004094:	4602      	mov	r2, r0
 8004096:	460b      	mov	r3, r1
 8004098:	4630      	mov	r0, r6
 800409a:	4639      	mov	r1, r7
 800409c:	f7fd fc62 	bl	8001964 <__aeabi_dsub>
 80040a0:	464d      	mov	r5, r9
 80040a2:	f81a c008 	ldrb.w	ip, [sl, r8]
 80040a6:	f805 cb01 	strb.w	ip, [r5], #1
 80040aa:	f1b4 3fff 	cmp.w	r4, #4294967295	; 0xffffffff
 80040ae:	46a3      	mov	fp, r4
 80040b0:	4606      	mov	r6, r0
 80040b2:	460f      	mov	r7, r1
 80040b4:	e9dd 2319 	ldrd	r2, r3, [sp, #100]	; 0x64
 80040b8:	f104 34ff 	add.w	r4, r4, #4294967295	; 0xffffffff
 80040bc:	d1d9      	bne.n	8004072 <_svfprintf_r+0x141a>
 80040be:	4630      	mov	r0, r6
 80040c0:	4639      	mov	r1, r7
 80040c2:	2200      	movs	r2, #0
 80040c4:	4b29      	ldr	r3, [pc, #164]	; (800416c <_svfprintf_r+0x1514>)
 80040c6:	9f15      	ldr	r7, [sp, #84]	; 0x54
 80040c8:	f8dd a058 	ldr.w	sl, [sp, #88]	; 0x58
 80040cc:	f8cd 9054 	str.w	r9, [sp, #84]	; 0x54
 80040d0:	4644      	mov	r4, r8
 80040d2:	f8dd 904c 	ldr.w	r9, [sp, #76]	; 0x4c
 80040d6:	f8dd 8088 	ldr.w	r8, [sp, #136]	; 0x88
 80040da:	f8cd b04c 	str.w	fp, [sp, #76]	; 0x4c
 80040de:	9e23      	ldr	r6, [sp, #140]	; 0x8c
 80040e0:	f8dd b050 	ldr.w	fp, [sp, #80]	; 0x50
 80040e4:	e9cd 010e 	strd	r0, r1, [sp, #56]	; 0x38
 80040e8:	f7fe f884 	bl	80021f4 <__aeabi_dcmpgt>
 80040ec:	2800      	cmp	r0, #0
 80040ee:	f040 80a9 	bne.w	8004244 <_svfprintf_r+0x15ec>
 80040f2:	e9dd 010e 	ldrd	r0, r1, [sp, #56]	; 0x38
 80040f6:	2200      	movs	r2, #0
 80040f8:	4b1c      	ldr	r3, [pc, #112]	; (800416c <_svfprintf_r+0x1514>)
 80040fa:	f7fe f853 	bl	80021a4 <__aeabi_dcmpeq>
 80040fe:	b118      	cbz	r0, 8004108 <_svfprintf_r+0x14b0>
 8004100:	4623      	mov	r3, r4
 8004102:	07db      	lsls	r3, r3, #31
 8004104:	f100 809e 	bmi.w	8004244 <_svfprintf_r+0x15ec>
 8004108:	9b13      	ldr	r3, [sp, #76]	; 0x4c
 800410a:	2b00      	cmp	r3, #0
 800410c:	db07      	blt.n	800411e <_svfprintf_r+0x14c6>
 800410e:	9b13      	ldr	r3, [sp, #76]	; 0x4c
 8004110:	3301      	adds	r3, #1
 8004112:	442b      	add	r3, r5
 8004114:	2230      	movs	r2, #48	; 0x30
 8004116:	f805 2b01 	strb.w	r2, [r5], #1
 800411a:	42ab      	cmp	r3, r5
 800411c:	d1fb      	bne.n	8004116 <_svfprintf_r+0x14be>
 800411e:	1bab      	subs	r3, r5, r6
 8004120:	4640      	mov	r0, r8
 8004122:	9314      	str	r3, [sp, #80]	; 0x50
 8004124:	f8dd 8048 	ldr.w	r8, [sp, #72]	; 0x48
 8004128:	e49b      	b.n	8003a62 <_svfprintf_r+0xe0a>
 800412a:	46b2      	mov	sl, r6
 800412c:	9b14      	ldr	r3, [sp, #80]	; 0x50
 800412e:	9e12      	ldr	r6, [sp, #72]	; 0x48
 8004130:	f8cd 8080 	str.w	r8, [sp, #128]	; 0x80
 8004134:	18f3      	adds	r3, r6, r3
 8004136:	459a      	cmp	sl, r3
 8004138:	4691      	mov	r9, r2
 800413a:	f8dd b038 	ldr.w	fp, [sp, #56]	; 0x38
 800413e:	f8dd 8044 	ldr.w	r8, [sp, #68]	; 0x44
 8004142:	460c      	mov	r4, r1
 8004144:	bf28      	it	cs
 8004146:	469a      	movcs	sl, r3
 8004148:	e564      	b.n	8003c14 <_svfprintf_r+0xfbc>
 800414a:	9b15      	ldr	r3, [sp, #84]	; 0x54
 800414c:	1cda      	adds	r2, r3, #3
 800414e:	db01      	blt.n	8004154 <_svfprintf_r+0x14fc>
 8004150:	4553      	cmp	r3, sl
 8004152:	dd14      	ble.n	800417e <_svfprintf_r+0x1526>
 8004154:	3f02      	subs	r7, #2
 8004156:	f027 0320 	bic.w	r3, r7, #32
 800415a:	9308      	str	r3, [sp, #32]
 800415c:	e48b      	b.n	8003a76 <_svfprintf_r+0xe1e>
 800415e:	bf00      	nop
 8004160:	08007c28 	.word	0x08007c28
 8004164:	08007bfc 	.word	0x08007bfc
 8004168:	40300000 	.word	0x40300000
 800416c:	3fe00000 	.word	0x3fe00000
 8004170:	222d      	movs	r2, #45	; 0x2d
 8004172:	f88d 2093 	strb.w	r2, [sp, #147]	; 0x93
 8004176:	f04f 0a00 	mov.w	sl, #0
 800417a:	f7fe be92 	b.w	8002ea2 <_svfprintf_r+0x24a>
 800417e:	9b15      	ldr	r3, [sp, #84]	; 0x54
 8004180:	9914      	ldr	r1, [sp, #80]	; 0x50
 8004182:	428b      	cmp	r3, r1
 8004184:	f2c0 808f 	blt.w	80042a6 <_svfprintf_r+0x164e>
 8004188:	07c2      	lsls	r2, r0, #31
 800418a:	f140 81a9 	bpl.w	80044e0 <_svfprintf_r+0x1888>
 800418e:	9a1c      	ldr	r2, [sp, #112]	; 0x70
 8004190:	4413      	add	r3, r2
 8004192:	930c      	str	r3, [sp, #48]	; 0x30
 8004194:	0547      	lsls	r7, r0, #21
 8004196:	d503      	bpl.n	80041a0 <_svfprintf_r+0x1548>
 8004198:	9b15      	ldr	r3, [sp, #84]	; 0x54
 800419a:	2b00      	cmp	r3, #0
 800419c:	f300 80ec 	bgt.w	8004378 <_svfprintf_r+0x1720>
 80041a0:	9b0c      	ldr	r3, [sp, #48]	; 0x30
 80041a2:	ea23 73e3 	bic.w	r3, r3, r3, asr #31
 80041a6:	9308      	str	r3, [sp, #32]
 80041a8:	2767      	movs	r7, #103	; 0x67
 80041aa:	2300      	movs	r3, #0
 80041ac:	9313      	str	r3, [sp, #76]	; 0x4c
 80041ae:	9316      	str	r3, [sp, #88]	; 0x58
 80041b0:	e4a1      	b.n	8003af6 <_svfprintf_r+0xe9e>
 80041b2:	222d      	movs	r2, #45	; 0x2d
 80041b4:	f88d 2093 	strb.w	r2, [sp, #147]	; 0x93
 80041b8:	f7ff b918 	b.w	80033ec <_svfprintf_r+0x794>
 80041bc:	aa2c      	add	r2, sp, #176	; 0xb0
 80041be:	990a      	ldr	r1, [sp, #40]	; 0x28
 80041c0:	9807      	ldr	r0, [sp, #28]
 80041c2:	f002 f941 	bl	8006448 <__ssprint_r>
 80041c6:	2800      	cmp	r0, #0
 80041c8:	f47e ae1a 	bne.w	8002e00 <_svfprintf_r+0x1a8>
 80041cc:	9c2e      	ldr	r4, [sp, #184]	; 0xb8
 80041ce:	f10d 09bc 	add.w	r9, sp, #188	; 0xbc
 80041d2:	f7ff bb34 	b.w	800383e <_svfprintf_r+0xbe6>
 80041d6:	9010      	str	r0, [sp, #64]	; 0x40
 80041d8:	9b18      	ldr	r3, [sp, #96]	; 0x60
 80041da:	930c      	str	r3, [sp, #48]	; 0x30
 80041dc:	9b17      	ldr	r3, [sp, #92]	; 0x5c
 80041de:	f103 4500 	add.w	r5, r3, #2147483648	; 0x80000000
 80041e2:	232d      	movs	r3, #45	; 0x2d
 80041e4:	9311      	str	r3, [sp, #68]	; 0x44
 80041e6:	e71a      	b.n	800401e <_svfprintf_r+0x13c6>
 80041e8:	2330      	movs	r3, #48	; 0x30
 80041ea:	f88d 3094 	strb.w	r3, [sp, #148]	; 0x94
 80041ee:	2378      	movs	r3, #120	; 0x78
 80041f0:	e6fa      	b.n	8003fe8 <_svfprintf_r+0x1390>
 80041f2:	f8cd a020 	str.w	sl, [sp, #32]
 80041f6:	f8cd a030 	str.w	sl, [sp, #48]	; 0x30
 80041fa:	940d      	str	r4, [sp, #52]	; 0x34
 80041fc:	4682      	mov	sl, r0
 80041fe:	9013      	str	r0, [sp, #76]	; 0x4c
 8004200:	e9cd 0015 	strd	r0, r0, [sp, #84]	; 0x54
 8004204:	f89d 2093 	ldrb.w	r2, [sp, #147]	; 0x93
 8004208:	f7fe be48 	b.w	8002e9c <_svfprintf_r+0x244>
 800420c:	aa2c      	add	r2, sp, #176	; 0xb0
 800420e:	990a      	ldr	r1, [sp, #40]	; 0x28
 8004210:	9807      	ldr	r0, [sp, #28]
 8004212:	f002 f919 	bl	8006448 <__ssprint_r>
 8004216:	2800      	cmp	r0, #0
 8004218:	f47e adf2 	bne.w	8002e00 <_svfprintf_r+0x1a8>
 800421c:	9b26      	ldr	r3, [sp, #152]	; 0x98
 800421e:	e9dd 242d 	ldrd	r2, r4, [sp, #180]	; 0xb4
 8004222:	f10d 09bc 	add.w	r9, sp, #188	; 0xbc
 8004226:	f7ff ba4c 	b.w	80036c2 <_svfprintf_r+0xa6a>
 800422a:	aa2c      	add	r2, sp, #176	; 0xb0
 800422c:	990a      	ldr	r1, [sp, #40]	; 0x28
 800422e:	9807      	ldr	r0, [sp, #28]
 8004230:	f002 f90a 	bl	8006448 <__ssprint_r>
 8004234:	2800      	cmp	r0, #0
 8004236:	f47e ade3 	bne.w	8002e00 <_svfprintf_r+0x1a8>
 800423a:	9b26      	ldr	r3, [sp, #152]	; 0x98
 800423c:	9c2e      	ldr	r4, [sp, #184]	; 0xb8
 800423e:	f10d 09bc 	add.w	r9, sp, #188	; 0xbc
 8004242:	e4ee      	b.n	8003c22 <_svfprintf_r+0xfca>
 8004244:	9b15      	ldr	r3, [sp, #84]	; 0x54
 8004246:	932a      	str	r3, [sp, #168]	; 0xa8
 8004248:	9b0c      	ldr	r3, [sp, #48]	; 0x30
 800424a:	f815 2c01 	ldrb.w	r2, [r5, #-1]
 800424e:	7bd9      	ldrb	r1, [r3, #15]
 8004250:	4291      	cmp	r1, r2
 8004252:	462b      	mov	r3, r5
 8004254:	d109      	bne.n	800426a <_svfprintf_r+0x1612>
 8004256:	2030      	movs	r0, #48	; 0x30
 8004258:	f803 0c01 	strb.w	r0, [r3, #-1]
 800425c:	9b2a      	ldr	r3, [sp, #168]	; 0xa8
 800425e:	1e5a      	subs	r2, r3, #1
 8004260:	922a      	str	r2, [sp, #168]	; 0xa8
 8004262:	f813 2c01 	ldrb.w	r2, [r3, #-1]
 8004266:	4291      	cmp	r1, r2
 8004268:	d0f6      	beq.n	8004258 <_svfprintf_r+0x1600>
 800426a:	2a39      	cmp	r2, #57	; 0x39
 800426c:	bf0b      	itete	eq
 800426e:	9a0c      	ldreq	r2, [sp, #48]	; 0x30
 8004270:	3201      	addne	r2, #1
 8004272:	7a92      	ldrbeq	r2, [r2, #10]
 8004274:	b2d2      	uxtbne	r2, r2
 8004276:	f803 2c01 	strb.w	r2, [r3, #-1]
 800427a:	e750      	b.n	800411e <_svfprintf_r+0x14c6>
 800427c:	9b15      	ldr	r3, [sp, #84]	; 0x54
 800427e:	2b00      	cmp	r3, #0
 8004280:	f340 815b 	ble.w	800453a <_svfprintf_r+0x18e2>
 8004284:	9b15      	ldr	r3, [sp, #84]	; 0x54
 8004286:	f1ba 0f00 	cmp.w	sl, #0
 800428a:	f040 80ef 	bne.w	800446c <_svfprintf_r+0x1814>
 800428e:	07c4      	lsls	r4, r0, #31
 8004290:	f100 80ec 	bmi.w	800446c <_svfprintf_r+0x1814>
 8004294:	930c      	str	r3, [sp, #48]	; 0x30
 8004296:	2766      	movs	r7, #102	; 0x66
 8004298:	0543      	lsls	r3, r0, #21
 800429a:	d46e      	bmi.n	800437a <_svfprintf_r+0x1722>
 800429c:	9b0c      	ldr	r3, [sp, #48]	; 0x30
 800429e:	ea23 73e3 	bic.w	r3, r3, r3, asr #31
 80042a2:	9308      	str	r3, [sp, #32]
 80042a4:	e781      	b.n	80041aa <_svfprintf_r+0x1552>
 80042a6:	9b14      	ldr	r3, [sp, #80]	; 0x50
 80042a8:	9a1c      	ldr	r2, [sp, #112]	; 0x70
 80042aa:	4413      	add	r3, r2
 80042ac:	930c      	str	r3, [sp, #48]	; 0x30
 80042ae:	9b15      	ldr	r3, [sp, #84]	; 0x54
 80042b0:	2b00      	cmp	r3, #0
 80042b2:	f340 8151 	ble.w	8004558 <_svfprintf_r+0x1900>
 80042b6:	2767      	movs	r7, #103	; 0x67
 80042b8:	e7ee      	b.n	8004298 <_svfprintf_r+0x1640>
 80042ba:	aa2c      	add	r2, sp, #176	; 0xb0
 80042bc:	990a      	ldr	r1, [sp, #40]	; 0x28
 80042be:	9807      	ldr	r0, [sp, #28]
 80042c0:	f002 f8c2 	bl	8006448 <__ssprint_r>
 80042c4:	2800      	cmp	r0, #0
 80042c6:	f47e ad9b 	bne.w	8002e00 <_svfprintf_r+0x1a8>
 80042ca:	9b26      	ldr	r3, [sp, #152]	; 0x98
 80042cc:	9a14      	ldr	r2, [sp, #80]	; 0x50
 80042ce:	9c2e      	ldr	r4, [sp, #184]	; 0xb8
 80042d0:	1ad3      	subs	r3, r2, r3
 80042d2:	f10d 09bc 	add.w	r9, sp, #188	; 0xbc
 80042d6:	e4bc      	b.n	8003c52 <_svfprintf_r+0xffa>
 80042d8:	aa26      	add	r2, sp, #152	; 0x98
 80042da:	980c      	ldr	r0, [sp, #48]	; 0x30
 80042dc:	4629      	mov	r1, r5
 80042de:	f002 f84f 	bl	8006380 <frexp>
 80042e2:	2200      	movs	r2, #0
 80042e4:	f04f 537f 	mov.w	r3, #1069547520	; 0x3fc00000
 80042e8:	f7fd fcf4 	bl	8001cd4 <__aeabi_dmul>
 80042ec:	e9dd 2319 	ldrd	r2, r3, [sp, #100]	; 0x64
 80042f0:	e9cd 010e 	strd	r0, r1, [sp, #56]	; 0x38
 80042f4:	f7fd ff56 	bl	80021a4 <__aeabi_dcmpeq>
 80042f8:	b108      	cbz	r0, 80042fe <_svfprintf_r+0x16a6>
 80042fa:	2301      	movs	r3, #1
 80042fc:	9326      	str	r3, [sp, #152]	; 0x98
 80042fe:	4bb3      	ldr	r3, [pc, #716]	; (80045cc <_svfprintf_r+0x1974>)
 8004300:	930c      	str	r3, [sp, #48]	; 0x30
 8004302:	e6a7      	b.n	8004054 <_svfprintf_r+0x13fc>
 8004304:	425d      	negs	r5, r3
 8004306:	3310      	adds	r3, #16
 8004308:	4bb1      	ldr	r3, [pc, #708]	; (80045d0 <_svfprintf_r+0x1978>)
 800430a:	f280 80a0 	bge.w	800444e <_svfprintf_r+0x17f6>
 800430e:	4619      	mov	r1, r3
 8004310:	2710      	movs	r7, #16
 8004312:	4623      	mov	r3, r4
 8004314:	f8dd a01c 	ldr.w	sl, [sp, #28]
 8004318:	460c      	mov	r4, r1
 800431a:	e005      	b.n	8004328 <_svfprintf_r+0x16d0>
 800431c:	f109 0908 	add.w	r9, r9, #8
 8004320:	3d10      	subs	r5, #16
 8004322:	2d10      	cmp	r5, #16
 8004324:	f340 8090 	ble.w	8004448 <_svfprintf_r+0x17f0>
 8004328:	3201      	adds	r2, #1
 800432a:	3310      	adds	r3, #16
 800432c:	2a07      	cmp	r2, #7
 800432e:	e9cd 232d 	strd	r2, r3, [sp, #180]	; 0xb4
 8004332:	e9c9 4700 	strd	r4, r7, [r9]
 8004336:	ddf1      	ble.n	800431c <_svfprintf_r+0x16c4>
 8004338:	aa2c      	add	r2, sp, #176	; 0xb0
 800433a:	990a      	ldr	r1, [sp, #40]	; 0x28
 800433c:	4650      	mov	r0, sl
 800433e:	f002 f883 	bl	8006448 <__ssprint_r>
 8004342:	2800      	cmp	r0, #0
 8004344:	f47e ad5c 	bne.w	8002e00 <_svfprintf_r+0x1a8>
 8004348:	e9dd 232d 	ldrd	r2, r3, [sp, #180]	; 0xb4
 800434c:	f10d 09bc 	add.w	r9, sp, #188	; 0xbc
 8004350:	e7e6      	b.n	8004320 <_svfprintf_r+0x16c8>
 8004352:	f10a 0101 	add.w	r1, sl, #1
 8004356:	9807      	ldr	r0, [sp, #28]
 8004358:	f7fd fffa 	bl	8002350 <_malloc_r>
 800435c:	4606      	mov	r6, r0
 800435e:	2800      	cmp	r0, #0
 8004360:	f000 815a 	beq.w	8004618 <_svfprintf_r+0x19c0>
 8004364:	f448 7381 	orr.w	r3, r8, #258	; 0x102
 8004368:	9312      	str	r3, [sp, #72]	; 0x48
 800436a:	f027 0320 	bic.w	r3, r7, #32
 800436e:	9308      	str	r3, [sp, #32]
 8004370:	46a0      	mov	r8, r4
 8004372:	9d17      	ldr	r5, [sp, #92]	; 0x5c
 8004374:	9010      	str	r0, [sp, #64]	; 0x40
 8004376:	e64a      	b.n	800400e <_svfprintf_r+0x13b6>
 8004378:	2767      	movs	r7, #103	; 0x67
 800437a:	9820      	ldr	r0, [sp, #128]	; 0x80
 800437c:	2200      	movs	r2, #0
 800437e:	9213      	str	r2, [sp, #76]	; 0x4c
 8004380:	9216      	str	r2, [sp, #88]	; 0x58
 8004382:	7803      	ldrb	r3, [r0, #0]
 8004384:	9a15      	ldr	r2, [sp, #84]	; 0x54
 8004386:	2bff      	cmp	r3, #255	; 0xff
 8004388:	d00c      	beq.n	80043a4 <_svfprintf_r+0x174c>
 800438a:	4293      	cmp	r3, r2
 800438c:	da0a      	bge.n	80043a4 <_svfprintf_r+0x174c>
 800438e:	7841      	ldrb	r1, [r0, #1]
 8004390:	1ad2      	subs	r2, r2, r3
 8004392:	b1b1      	cbz	r1, 80043c2 <_svfprintf_r+0x176a>
 8004394:	9b16      	ldr	r3, [sp, #88]	; 0x58
 8004396:	3301      	adds	r3, #1
 8004398:	9316      	str	r3, [sp, #88]	; 0x58
 800439a:	460b      	mov	r3, r1
 800439c:	2bff      	cmp	r3, #255	; 0xff
 800439e:	f100 0001 	add.w	r0, r0, #1
 80043a2:	d1f2      	bne.n	800438a <_svfprintf_r+0x1732>
 80043a4:	9215      	str	r2, [sp, #84]	; 0x54
 80043a6:	9b16      	ldr	r3, [sp, #88]	; 0x58
 80043a8:	9a13      	ldr	r2, [sp, #76]	; 0x4c
 80043aa:	990c      	ldr	r1, [sp, #48]	; 0x30
 80043ac:	9020      	str	r0, [sp, #128]	; 0x80
 80043ae:	4413      	add	r3, r2
 80043b0:	9a21      	ldr	r2, [sp, #132]	; 0x84
 80043b2:	fb02 1303 	mla	r3, r2, r3, r1
 80043b6:	930c      	str	r3, [sp, #48]	; 0x30
 80043b8:	ea23 73e3 	bic.w	r3, r3, r3, asr #31
 80043bc:	9308      	str	r3, [sp, #32]
 80043be:	f7ff bb9a 	b.w	8003af6 <_svfprintf_r+0xe9e>
 80043c2:	9913      	ldr	r1, [sp, #76]	; 0x4c
 80043c4:	3101      	adds	r1, #1
 80043c6:	9113      	str	r1, [sp, #76]	; 0x4c
 80043c8:	e7dd      	b.n	8004386 <_svfprintf_r+0x172e>
 80043ca:	a82a      	add	r0, sp, #168	; 0xa8
 80043cc:	a927      	add	r1, sp, #156	; 0x9c
 80043ce:	9004      	str	r0, [sp, #16]
 80043d0:	9103      	str	r1, [sp, #12]
 80043d2:	a826      	add	r0, sp, #152	; 0x98
 80043d4:	2103      	movs	r1, #3
 80043d6:	9002      	str	r0, [sp, #8]
 80043d8:	9a0c      	ldr	r2, [sp, #48]	; 0x30
 80043da:	f8cd a004 	str.w	sl, [sp, #4]
 80043de:	462b      	mov	r3, r5
 80043e0:	9100      	str	r1, [sp, #0]
 80043e2:	9807      	ldr	r0, [sp, #28]
 80043e4:	f000 f9b4 	bl	8004750 <_dtoa_r>
 80043e8:	f8cd a038 	str.w	sl, [sp, #56]	; 0x38
 80043ec:	4606      	mov	r6, r0
 80043ee:	eb00 040a 	add.w	r4, r0, sl
 80043f2:	7833      	ldrb	r3, [r6, #0]
 80043f4:	2b30      	cmp	r3, #48	; 0x30
 80043f6:	f000 80d0 	beq.w	800459a <_svfprintf_r+0x1942>
 80043fa:	9b26      	ldr	r3, [sp, #152]	; 0x98
 80043fc:	441c      	add	r4, r3
 80043fe:	9a19      	ldr	r2, [sp, #100]	; 0x64
 8004400:	980c      	ldr	r0, [sp, #48]	; 0x30
 8004402:	9b1a      	ldr	r3, [sp, #104]	; 0x68
 8004404:	4629      	mov	r1, r5
 8004406:	f7fd fecd 	bl	80021a4 <__aeabi_dcmpeq>
 800440a:	b110      	cbz	r0, 8004412 <_svfprintf_r+0x17ba>
 800440c:	4623      	mov	r3, r4
 800440e:	f7ff bb23 	b.w	8003a58 <_svfprintf_r+0xe00>
 8004412:	9b2a      	ldr	r3, [sp, #168]	; 0xa8
 8004414:	42a3      	cmp	r3, r4
 8004416:	f4bf ab1f 	bcs.w	8003a58 <_svfprintf_r+0xe00>
 800441a:	2130      	movs	r1, #48	; 0x30
 800441c:	1c5a      	adds	r2, r3, #1
 800441e:	922a      	str	r2, [sp, #168]	; 0xa8
 8004420:	7019      	strb	r1, [r3, #0]
 8004422:	9b2a      	ldr	r3, [sp, #168]	; 0xa8
 8004424:	429c      	cmp	r4, r3
 8004426:	d8f9      	bhi.n	800441c <_svfprintf_r+0x17c4>
 8004428:	f7ff bb16 	b.w	8003a58 <_svfprintf_r+0xe00>
 800442c:	f1ba 0f00 	cmp.w	sl, #0
 8004430:	f000 808d 	beq.w	800454e <_svfprintf_r+0x18f6>
 8004434:	9010      	str	r0, [sp, #64]	; 0x40
 8004436:	e5ea      	b.n	800400e <_svfprintf_r+0x13b6>
 8004438:	9010      	str	r0, [sp, #64]	; 0x40
 800443a:	f04f 0a06 	mov.w	sl, #6
 800443e:	e5e6      	b.n	800400e <_svfprintf_r+0x13b6>
 8004440:	9b0e      	ldr	r3, [sp, #56]	; 0x38
 8004442:	4433      	add	r3, r6
 8004444:	461c      	mov	r4, r3
 8004446:	e7da      	b.n	80043fe <_svfprintf_r+0x17a6>
 8004448:	4621      	mov	r1, r4
 800444a:	461c      	mov	r4, r3
 800444c:	460b      	mov	r3, r1
 800444e:	3201      	adds	r2, #1
 8004450:	442c      	add	r4, r5
 8004452:	2a07      	cmp	r2, #7
 8004454:	e9cd 242d 	strd	r2, r4, [sp, #180]	; 0xb4
 8004458:	e9c9 3500 	strd	r3, r5, [r9]
 800445c:	f300 80c2 	bgt.w	80045e4 <_svfprintf_r+0x198c>
 8004460:	f109 0908 	add.w	r9, r9, #8
 8004464:	f7ff b930 	b.w	80036c8 <_svfprintf_r+0xa70>
 8004468:	4699      	mov	r9, r3
 800446a:	e446      	b.n	8003cfa <_svfprintf_r+0x10a2>
 800446c:	9a1c      	ldr	r2, [sp, #112]	; 0x70
 800446e:	4413      	add	r3, r2
 8004470:	4453      	add	r3, sl
 8004472:	930c      	str	r3, [sp, #48]	; 0x30
 8004474:	2766      	movs	r7, #102	; 0x66
 8004476:	e70f      	b.n	8004298 <_svfprintf_r+0x1640>
 8004478:	f10d 0caf 	add.w	ip, sp, #175	; 0xaf
 800447c:	4664      	mov	r4, ip
 800447e:	4d55      	ldr	r5, [pc, #340]	; (80045d4 <_svfprintf_r+0x197c>)
 8004480:	e000      	b.n	8004484 <_svfprintf_r+0x182c>
 8004482:	4614      	mov	r4, r2
 8004484:	fba5 1203 	umull	r1, r2, r5, r3
 8004488:	08d2      	lsrs	r2, r2, #3
 800448a:	eb02 0182 	add.w	r1, r2, r2, lsl #2
 800448e:	eba3 0341 	sub.w	r3, r3, r1, lsl #1
 8004492:	f103 0130 	add.w	r1, r3, #48	; 0x30
 8004496:	4613      	mov	r3, r2
 8004498:	2b09      	cmp	r3, #9
 800449a:	f804 1c01 	strb.w	r1, [r4, #-1]
 800449e:	f104 32ff 	add.w	r2, r4, #4294967295	; 0xffffffff
 80044a2:	dcee      	bgt.n	8004482 <_svfprintf_r+0x182a>
 80044a4:	3330      	adds	r3, #48	; 0x30
 80044a6:	3c02      	subs	r4, #2
 80044a8:	b2db      	uxtb	r3, r3
 80044aa:	45a4      	cmp	ip, r4
 80044ac:	f802 3c01 	strb.w	r3, [r2, #-1]
 80044b0:	f240 80a6 	bls.w	8004600 <_svfprintf_r+0x19a8>
 80044b4:	f10d 04a2 	add.w	r4, sp, #162	; 0xa2
 80044b8:	4611      	mov	r1, r2
 80044ba:	e001      	b.n	80044c0 <_svfprintf_r+0x1868>
 80044bc:	f811 3b01 	ldrb.w	r3, [r1], #1
 80044c0:	f804 3b01 	strb.w	r3, [r4], #1
 80044c4:	458c      	cmp	ip, r1
 80044c6:	d1f9      	bne.n	80044bc <_svfprintf_r+0x1864>
 80044c8:	ab2c      	add	r3, sp, #176	; 0xb0
 80044ca:	1a9b      	subs	r3, r3, r2
 80044cc:	f10d 02a2 	add.w	r2, sp, #162	; 0xa2
 80044d0:	4413      	add	r3, r2
 80044d2:	f7ff baf7 	b.w	8003ac4 <_svfprintf_r+0xe6c>
 80044d6:	2301      	movs	r3, #1
 80044d8:	9326      	str	r3, [sp, #152]	; 0x98
 80044da:	4b3f      	ldr	r3, [pc, #252]	; (80045d8 <_svfprintf_r+0x1980>)
 80044dc:	930c      	str	r3, [sp, #48]	; 0x30
 80044de:	e5b9      	b.n	8004054 <_svfprintf_r+0x13fc>
 80044e0:	9b15      	ldr	r3, [sp, #84]	; 0x54
 80044e2:	930c      	str	r3, [sp, #48]	; 0x30
 80044e4:	e656      	b.n	8004194 <_svfprintf_r+0x153c>
 80044e6:	a82a      	add	r0, sp, #168	; 0xa8
 80044e8:	a927      	add	r1, sp, #156	; 0x9c
 80044ea:	9004      	str	r0, [sp, #16]
 80044ec:	9103      	str	r1, [sp, #12]
 80044ee:	a826      	add	r0, sp, #152	; 0x98
 80044f0:	2103      	movs	r1, #3
 80044f2:	9002      	str	r0, [sp, #8]
 80044f4:	9a0c      	ldr	r2, [sp, #48]	; 0x30
 80044f6:	f8cd a004 	str.w	sl, [sp, #4]
 80044fa:	462b      	mov	r3, r5
 80044fc:	9100      	str	r1, [sp, #0]
 80044fe:	9807      	ldr	r0, [sp, #28]
 8004500:	f000 f926 	bl	8004750 <_dtoa_r>
 8004504:	f8cd a038 	str.w	sl, [sp, #56]	; 0x38
 8004508:	4606      	mov	r6, r0
 800450a:	9b0e      	ldr	r3, [sp, #56]	; 0x38
 800450c:	2f46      	cmp	r7, #70	; 0x46
 800450e:	eb06 0403 	add.w	r4, r6, r3
 8004512:	f43f af6e 	beq.w	80043f2 <_svfprintf_r+0x179a>
 8004516:	e772      	b.n	80043fe <_svfprintf_r+0x17a6>
 8004518:	9b17      	ldr	r3, [sp, #92]	; 0x5c
 800451a:	4e30      	ldr	r6, [pc, #192]	; (80045dc <_svfprintf_r+0x1984>)
 800451c:	2b00      	cmp	r3, #0
 800451e:	bfb6      	itet	lt
 8004520:	222d      	movlt	r2, #45	; 0x2d
 8004522:	f89d 2093 	ldrbge.w	r2, [sp, #147]	; 0x93
 8004526:	f88d 2093 	strblt.w	r2, [sp, #147]	; 0x93
 800452a:	4b2d      	ldr	r3, [pc, #180]	; (80045e0 <_svfprintf_r+0x1988>)
 800452c:	f7fe bf60 	b.w	80033f0 <_svfprintf_r+0x798>
 8004530:	07c5      	lsls	r5, r0, #31
 8004532:	f57f aad4 	bpl.w	8003ade <_svfprintf_r+0xe86>
 8004536:	f7ff bace 	b.w	8003ad6 <_svfprintf_r+0xe7e>
 800453a:	f1ba 0f00 	cmp.w	sl, #0
 800453e:	d117      	bne.n	8004570 <_svfprintf_r+0x1918>
 8004540:	07c1      	lsls	r1, r0, #31
 8004542:	d415      	bmi.n	8004570 <_svfprintf_r+0x1918>
 8004544:	2301      	movs	r3, #1
 8004546:	9308      	str	r3, [sp, #32]
 8004548:	930c      	str	r3, [sp, #48]	; 0x30
 800454a:	2766      	movs	r7, #102	; 0x66
 800454c:	e62d      	b.n	80041aa <_svfprintf_r+0x1552>
 800454e:	f8cd a040 	str.w	sl, [sp, #64]	; 0x40
 8004552:	f04f 0a01 	mov.w	sl, #1
 8004556:	e55a      	b.n	800400e <_svfprintf_r+0x13b6>
 8004558:	9a0c      	ldr	r2, [sp, #48]	; 0x30
 800455a:	f1c3 0301 	rsb	r3, r3, #1
 800455e:	441a      	add	r2, r3
 8004560:	ea22 73e2 	bic.w	r3, r2, r2, asr #31
 8004564:	920c      	str	r2, [sp, #48]	; 0x30
 8004566:	9308      	str	r3, [sp, #32]
 8004568:	2767      	movs	r7, #103	; 0x67
 800456a:	e61e      	b.n	80041aa <_svfprintf_r+0x1552>
 800456c:	464a      	mov	r2, r9
 800456e:	e453      	b.n	8003e18 <_svfprintf_r+0x11c0>
 8004570:	9b1c      	ldr	r3, [sp, #112]	; 0x70
 8004572:	3301      	adds	r3, #1
 8004574:	4453      	add	r3, sl
 8004576:	930c      	str	r3, [sp, #48]	; 0x30
 8004578:	ea23 73e3 	bic.w	r3, r3, r3, asr #31
 800457c:	9308      	str	r3, [sp, #32]
 800457e:	2766      	movs	r7, #102	; 0x66
 8004580:	e613      	b.n	80041aa <_svfprintf_r+0x1552>
 8004582:	2f47      	cmp	r7, #71	; 0x47
 8004584:	f47f af5c 	bne.w	8004440 <_svfprintf_r+0x17e8>
 8004588:	f018 0f01 	tst.w	r8, #1
 800458c:	f43f aa63 	beq.w	8003a56 <_svfprintf_r+0xdfe>
 8004590:	e7bb      	b.n	800450a <_svfprintf_r+0x18b2>
 8004592:	f10d 02a2 	add.w	r2, sp, #162	; 0xa2
 8004596:	f7ff ba92 	b.w	8003abe <_svfprintf_r+0xe66>
 800459a:	9a19      	ldr	r2, [sp, #100]	; 0x64
 800459c:	980c      	ldr	r0, [sp, #48]	; 0x30
 800459e:	9b1a      	ldr	r3, [sp, #104]	; 0x68
 80045a0:	4629      	mov	r1, r5
 80045a2:	f7fd fdff 	bl	80021a4 <__aeabi_dcmpeq>
 80045a6:	2800      	cmp	r0, #0
 80045a8:	f47f af27 	bne.w	80043fa <_svfprintf_r+0x17a2>
 80045ac:	9b0e      	ldr	r3, [sp, #56]	; 0x38
 80045ae:	f1c3 0301 	rsb	r3, r3, #1
 80045b2:	9326      	str	r3, [sp, #152]	; 0x98
 80045b4:	e722      	b.n	80043fc <_svfprintf_r+0x17a4>
 80045b6:	990d      	ldr	r1, [sp, #52]	; 0x34
 80045b8:	f89b 7001 	ldrb.w	r7, [fp, #1]
 80045bc:	680b      	ldr	r3, [r1, #0]
 80045be:	ea43 7ae3 	orr.w	sl, r3, r3, asr #31
 80045c2:	1d0b      	adds	r3, r1, #4
 80045c4:	4693      	mov	fp, r2
 80045c6:	930d      	str	r3, [sp, #52]	; 0x34
 80045c8:	f7fe bba0 	b.w	8002d0c <_svfprintf_r+0xb4>
 80045cc:	08007be8 	.word	0x08007be8
 80045d0:	08007c28 	.word	0x08007c28
 80045d4:	cccccccd 	.word	0xcccccccd
 80045d8:	08007bfc 	.word	0x08007bfc
 80045dc:	08007be4 	.word	0x08007be4
 80045e0:	08007be0 	.word	0x08007be0
 80045e4:	aa2c      	add	r2, sp, #176	; 0xb0
 80045e6:	990a      	ldr	r1, [sp, #40]	; 0x28
 80045e8:	9807      	ldr	r0, [sp, #28]
 80045ea:	f001 ff2d 	bl	8006448 <__ssprint_r>
 80045ee:	2800      	cmp	r0, #0
 80045f0:	f47e ac06 	bne.w	8002e00 <_svfprintf_r+0x1a8>
 80045f4:	e9dd 242d 	ldrd	r2, r4, [sp, #180]	; 0xb4
 80045f8:	f10d 09bc 	add.w	r9, sp, #188	; 0xbc
 80045fc:	f7ff b864 	b.w	80036c8 <_svfprintf_r+0xa70>
 8004600:	f10d 03a2 	add.w	r3, sp, #162	; 0xa2
 8004604:	f7ff ba5e 	b.w	8003ac4 <_svfprintf_r+0xe6c>
 8004608:	9a07      	ldr	r2, [sp, #28]
 800460a:	230c      	movs	r3, #12
 800460c:	6013      	str	r3, [r2, #0]
 800460e:	f04f 33ff 	mov.w	r3, #4294967295	; 0xffffffff
 8004612:	9309      	str	r3, [sp, #36]	; 0x24
 8004614:	f7fe bc03 	b.w	8002e1e <_svfprintf_r+0x1c6>
 8004618:	9a0a      	ldr	r2, [sp, #40]	; 0x28
 800461a:	8993      	ldrh	r3, [r2, #12]
 800461c:	f043 0340 	orr.w	r3, r3, #64	; 0x40
 8004620:	8193      	strh	r3, [r2, #12]
 8004622:	f7fe bbf5 	b.w	8002e10 <_svfprintf_r+0x1b8>
 8004626:	bf00      	nop

08004628 <quorem>:
 8004628:	e92d 4ff0 	stmdb	sp!, {r4, r5, r6, r7, r8, r9, sl, fp, lr}
 800462c:	6903      	ldr	r3, [r0, #16]
 800462e:	690f      	ldr	r7, [r1, #16]
 8004630:	42bb      	cmp	r3, r7
 8004632:	b083      	sub	sp, #12
 8004634:	f2c0 8086 	blt.w	8004744 <quorem+0x11c>
 8004638:	3f01      	subs	r7, #1
 800463a:	f101 0914 	add.w	r9, r1, #20
 800463e:	f100 0a14 	add.w	sl, r0, #20
 8004642:	f859 2027 	ldr.w	r2, [r9, r7, lsl #2]
 8004646:	f85a 3027 	ldr.w	r3, [sl, r7, lsl #2]
 800464a:	00bc      	lsls	r4, r7, #2
 800464c:	3201      	adds	r2, #1
 800464e:	fbb3 f8f2 	udiv	r8, r3, r2
 8004652:	eb0a 0304 	add.w	r3, sl, r4
 8004656:	9400      	str	r4, [sp, #0]
 8004658:	eb09 0b04 	add.w	fp, r9, r4
 800465c:	9301      	str	r3, [sp, #4]
 800465e:	f1b8 0f00 	cmp.w	r8, #0
 8004662:	d038      	beq.n	80046d6 <quorem+0xae>
 8004664:	2500      	movs	r5, #0
 8004666:	462e      	mov	r6, r5
 8004668:	46ce      	mov	lr, r9
 800466a:	46d4      	mov	ip, sl
 800466c:	f85e 4b04 	ldr.w	r4, [lr], #4
 8004670:	f8dc 3000 	ldr.w	r3, [ip]
 8004674:	b2a2      	uxth	r2, r4
 8004676:	fb08 5502 	mla	r5, r8, r2, r5
 800467a:	0c22      	lsrs	r2, r4, #16
 800467c:	0c2c      	lsrs	r4, r5, #16
 800467e:	fb08 4202 	mla	r2, r8, r2, r4
 8004682:	b2ad      	uxth	r5, r5
 8004684:	1b75      	subs	r5, r6, r5
 8004686:	b296      	uxth	r6, r2
 8004688:	ebc6 4613 	rsb	r6, r6, r3, lsr #16
 800468c:	fa15 f383 	uxtah	r3, r5, r3
 8004690:	eb06 4623 	add.w	r6, r6, r3, asr #16
 8004694:	b29b      	uxth	r3, r3
 8004696:	ea43 4306 	orr.w	r3, r3, r6, lsl #16
 800469a:	45f3      	cmp	fp, lr
 800469c:	ea4f 4512 	mov.w	r5, r2, lsr #16
 80046a0:	f84c 3b04 	str.w	r3, [ip], #4
 80046a4:	ea4f 4626 	mov.w	r6, r6, asr #16
 80046a8:	d2e0      	bcs.n	800466c <quorem+0x44>
 80046aa:	9b00      	ldr	r3, [sp, #0]
 80046ac:	f85a 3003 	ldr.w	r3, [sl, r3]
 80046b0:	b98b      	cbnz	r3, 80046d6 <quorem+0xae>
 80046b2:	9a01      	ldr	r2, [sp, #4]
 80046b4:	1f13      	subs	r3, r2, #4
 80046b6:	459a      	cmp	sl, r3
 80046b8:	d20c      	bcs.n	80046d4 <quorem+0xac>
 80046ba:	f852 3c04 	ldr.w	r3, [r2, #-4]
 80046be:	b94b      	cbnz	r3, 80046d4 <quorem+0xac>
 80046c0:	f1a2 0308 	sub.w	r3, r2, #8
 80046c4:	e002      	b.n	80046cc <quorem+0xa4>
 80046c6:	681a      	ldr	r2, [r3, #0]
 80046c8:	3b04      	subs	r3, #4
 80046ca:	b91a      	cbnz	r2, 80046d4 <quorem+0xac>
 80046cc:	459a      	cmp	sl, r3
 80046ce:	f107 37ff 	add.w	r7, r7, #4294967295	; 0xffffffff
 80046d2:	d3f8      	bcc.n	80046c6 <quorem+0x9e>
 80046d4:	6107      	str	r7, [r0, #16]
 80046d6:	4604      	mov	r4, r0
 80046d8:	f001 fbf6 	bl	8005ec8 <__mcmp>
 80046dc:	2800      	cmp	r0, #0
 80046de:	db2d      	blt.n	800473c <quorem+0x114>
 80046e0:	f108 0801 	add.w	r8, r8, #1
 80046e4:	4655      	mov	r5, sl
 80046e6:	2300      	movs	r3, #0
 80046e8:	f859 1b04 	ldr.w	r1, [r9], #4
 80046ec:	6828      	ldr	r0, [r5, #0]
 80046ee:	b28a      	uxth	r2, r1
 80046f0:	1a9a      	subs	r2, r3, r2
 80046f2:	0c0b      	lsrs	r3, r1, #16
 80046f4:	fa12 f280 	uxtah	r2, r2, r0
 80046f8:	ebc3 4310 	rsb	r3, r3, r0, lsr #16
 80046fc:	eb03 4322 	add.w	r3, r3, r2, asr #16
 8004700:	b292      	uxth	r2, r2
 8004702:	ea42 4203 	orr.w	r2, r2, r3, lsl #16
 8004706:	45cb      	cmp	fp, r9
 8004708:	f845 2b04 	str.w	r2, [r5], #4
 800470c:	ea4f 4323 	mov.w	r3, r3, asr #16
 8004710:	d2ea      	bcs.n	80046e8 <quorem+0xc0>
 8004712:	f85a 2027 	ldr.w	r2, [sl, r7, lsl #2]
 8004716:	eb0a 0387 	add.w	r3, sl, r7, lsl #2
 800471a:	b97a      	cbnz	r2, 800473c <quorem+0x114>
 800471c:	1f1a      	subs	r2, r3, #4
 800471e:	4592      	cmp	sl, r2
 8004720:	d20b      	bcs.n	800473a <quorem+0x112>
 8004722:	f853 2c04 	ldr.w	r2, [r3, #-4]
 8004726:	b942      	cbnz	r2, 800473a <quorem+0x112>
 8004728:	3b08      	subs	r3, #8
 800472a:	e002      	b.n	8004732 <quorem+0x10a>
 800472c:	681a      	ldr	r2, [r3, #0]
 800472e:	3b04      	subs	r3, #4
 8004730:	b91a      	cbnz	r2, 800473a <quorem+0x112>
 8004732:	459a      	cmp	sl, r3
 8004734:	f107 37ff 	add.w	r7, r7, #4294967295	; 0xffffffff
 8004738:	d3f8      	bcc.n	800472c <quorem+0x104>
 800473a:	6127      	str	r7, [r4, #16]
 800473c:	4640      	mov	r0, r8
 800473e:	b003      	add	sp, #12
 8004740:	e8bd 8ff0 	ldmia.w	sp!, {r4, r5, r6, r7, r8, r9, sl, fp, pc}
 8004744:	2000      	movs	r0, #0
 8004746:	b003      	add	sp, #12
 8004748:	e8bd 8ff0 	ldmia.w	sp!, {r4, r5, r6, r7, r8, r9, sl, fp, pc}
 800474c:	0000      	movs	r0, r0
	...

08004750 <_dtoa_r>:
 8004750:	e92d 4ff0 	stmdb	sp!, {r4, r5, r6, r7, r8, r9, sl, fp, lr}
 8004754:	6c01      	ldr	r1, [r0, #64]	; 0x40
 8004756:	b097      	sub	sp, #92	; 0x5c
 8004758:	4614      	mov	r4, r2
 800475a:	461d      	mov	r5, r3
 800475c:	4683      	mov	fp, r0
 800475e:	e9cd 4502 	strd	r4, r5, [sp, #8]
 8004762:	b149      	cbz	r1, 8004778 <_dtoa_r+0x28>
 8004764:	6c42      	ldr	r2, [r0, #68]	; 0x44
 8004766:	604a      	str	r2, [r1, #4]
 8004768:	2301      	movs	r3, #1
 800476a:	4093      	lsls	r3, r2
 800476c:	608b      	str	r3, [r1, #8]
 800476e:	f001 f96f 	bl	8005a50 <_Bfree>
 8004772:	2300      	movs	r3, #0
 8004774:	f8cb 3040 	str.w	r3, [fp, #64]	; 0x40
 8004778:	1e2e      	subs	r6, r5, #0
 800477a:	9a23      	ldr	r2, [sp, #140]	; 0x8c
 800477c:	bfb4      	ite	lt
 800477e:	2301      	movlt	r3, #1
 8004780:	2300      	movge	r3, #0
 8004782:	6013      	str	r3, [r2, #0]
 8004784:	4b78      	ldr	r3, [pc, #480]	; (8004968 <_dtoa_r+0x218>)
 8004786:	bfbc      	itt	lt
 8004788:	f026 4600 	biclt.w	r6, r6, #2147483648	; 0x80000000
 800478c:	9603      	strlt	r6, [sp, #12]
 800478e:	43b3      	bics	r3, r6
 8004790:	f000 80a8 	beq.w	80048e4 <_dtoa_r+0x194>
 8004794:	e9dd 8902 	ldrd	r8, r9, [sp, #8]
 8004798:	2200      	movs	r2, #0
 800479a:	4640      	mov	r0, r8
 800479c:	4649      	mov	r1, r9
 800479e:	2300      	movs	r3, #0
 80047a0:	f7fd fd00 	bl	80021a4 <__aeabi_dcmpeq>
 80047a4:	4605      	mov	r5, r0
 80047a6:	b178      	cbz	r0, 80047c8 <_dtoa_r+0x78>
 80047a8:	9a22      	ldr	r2, [sp, #136]	; 0x88
 80047aa:	2301      	movs	r3, #1
 80047ac:	6013      	str	r3, [r2, #0]
 80047ae:	9b24      	ldr	r3, [sp, #144]	; 0x90
 80047b0:	2b00      	cmp	r3, #0
 80047b2:	f000 80c4 	beq.w	800493e <_dtoa_r+0x1ee>
 80047b6:	4b6d      	ldr	r3, [pc, #436]	; (800496c <_dtoa_r+0x21c>)
 80047b8:	9a24      	ldr	r2, [sp, #144]	; 0x90
 80047ba:	6013      	str	r3, [r2, #0]
 80047bc:	3b01      	subs	r3, #1
 80047be:	9304      	str	r3, [sp, #16]
 80047c0:	9804      	ldr	r0, [sp, #16]
 80047c2:	b017      	add	sp, #92	; 0x5c
 80047c4:	e8bd 8ff0 	ldmia.w	sp!, {r4, r5, r6, r7, r8, r9, sl, fp, pc}
 80047c8:	aa14      	add	r2, sp, #80	; 0x50
 80047ca:	ab15      	add	r3, sp, #84	; 0x54
 80047cc:	e9cd 3200 	strd	r3, r2, [sp]
 80047d0:	4658      	mov	r0, fp
 80047d2:	4642      	mov	r2, r8
 80047d4:	464b      	mov	r3, r9
 80047d6:	f001 fc8b 	bl	80060f0 <__d2b>
 80047da:	0d34      	lsrs	r4, r6, #20
 80047dc:	4682      	mov	sl, r0
 80047de:	f040 80a3 	bne.w	8004928 <_dtoa_r+0x1d8>
 80047e2:	e9dd 5414 	ldrd	r5, r4, [sp, #80]	; 0x50
 80047e6:	442c      	add	r4, r5
 80047e8:	f204 4332 	addw	r3, r4, #1074	; 0x432
 80047ec:	2b20      	cmp	r3, #32
 80047ee:	f340 8417 	ble.w	8005020 <_dtoa_r+0x8d0>
 80047f2:	f1c3 0340 	rsb	r3, r3, #64	; 0x40
 80047f6:	409e      	lsls	r6, r3
 80047f8:	9b02      	ldr	r3, [sp, #8]
 80047fa:	f204 4012 	addw	r0, r4, #1042	; 0x412
 80047fe:	fa23 f000 	lsr.w	r0, r3, r0
 8004802:	4330      	orrs	r0, r6
 8004804:	f7fd f9ec 	bl	8001be0 <__aeabi_ui2d>
 8004808:	2301      	movs	r3, #1
 800480a:	4680      	mov	r8, r0
 800480c:	3c01      	subs	r4, #1
 800480e:	f1a1 79f8 	sub.w	r9, r1, #32505856	; 0x1f00000
 8004812:	9312      	str	r3, [sp, #72]	; 0x48
 8004814:	2200      	movs	r2, #0
 8004816:	4b56      	ldr	r3, [pc, #344]	; (8004970 <_dtoa_r+0x220>)
 8004818:	4640      	mov	r0, r8
 800481a:	4649      	mov	r1, r9
 800481c:	f7fd f8a2 	bl	8001964 <__aeabi_dsub>
 8004820:	a34b      	add	r3, pc, #300	; (adr r3, 8004950 <_dtoa_r+0x200>)
 8004822:	e9d3 2300 	ldrd	r2, r3, [r3]
 8004826:	f7fd fa55 	bl	8001cd4 <__aeabi_dmul>
 800482a:	a34b      	add	r3, pc, #300	; (adr r3, 8004958 <_dtoa_r+0x208>)
 800482c:	e9d3 2300 	ldrd	r2, r3, [r3]
 8004830:	f7fd f89a 	bl	8001968 <__adddf3>
 8004834:	4606      	mov	r6, r0
 8004836:	4620      	mov	r0, r4
 8004838:	460f      	mov	r7, r1
 800483a:	f7fd f9e1 	bl	8001c00 <__aeabi_i2d>
 800483e:	a348      	add	r3, pc, #288	; (adr r3, 8004960 <_dtoa_r+0x210>)
 8004840:	e9d3 2300 	ldrd	r2, r3, [r3]
 8004844:	f7fd fa46 	bl	8001cd4 <__aeabi_dmul>
 8004848:	4602      	mov	r2, r0
 800484a:	460b      	mov	r3, r1
 800484c:	4630      	mov	r0, r6
 800484e:	4639      	mov	r1, r7
 8004850:	f7fd f88a 	bl	8001968 <__adddf3>
 8004854:	4606      	mov	r6, r0
 8004856:	460f      	mov	r7, r1
 8004858:	f7fd fcec 	bl	8002234 <__aeabi_d2iz>
 800485c:	2200      	movs	r2, #0
 800485e:	9005      	str	r0, [sp, #20]
 8004860:	2300      	movs	r3, #0
 8004862:	4630      	mov	r0, r6
 8004864:	4639      	mov	r1, r7
 8004866:	f7fd fca7 	bl	80021b8 <__aeabi_dcmplt>
 800486a:	2800      	cmp	r0, #0
 800486c:	f040 826e 	bne.w	8004d4c <_dtoa_r+0x5fc>
 8004870:	9e05      	ldr	r6, [sp, #20]
 8004872:	2e16      	cmp	r6, #22
 8004874:	f200 825f 	bhi.w	8004d36 <_dtoa_r+0x5e6>
 8004878:	4b3e      	ldr	r3, [pc, #248]	; (8004974 <_dtoa_r+0x224>)
 800487a:	eb03 03c6 	add.w	r3, r3, r6, lsl #3
 800487e:	e9d3 0100 	ldrd	r0, r1, [r3]
 8004882:	e9dd 2302 	ldrd	r2, r3, [sp, #8]
 8004886:	f7fd fcb5 	bl	80021f4 <__aeabi_dcmpgt>
 800488a:	2800      	cmp	r0, #0
 800488c:	f000 83c4 	beq.w	8005018 <_dtoa_r+0x8c8>
 8004890:	1e73      	subs	r3, r6, #1
 8004892:	9305      	str	r3, [sp, #20]
 8004894:	2300      	movs	r3, #0
 8004896:	930a      	str	r3, [sp, #40]	; 0x28
 8004898:	1b2c      	subs	r4, r5, r4
 800489a:	9b05      	ldr	r3, [sp, #20]
 800489c:	f1b4 0801 	subs.w	r8, r4, #1
 80048a0:	bf46      	itte	mi
 80048a2:	f1c4 0901 	rsbmi	r9, r4, #1
 80048a6:	f04f 0800 	movmi.w	r8, #0
 80048aa:	f04f 0900 	movpl.w	r9, #0
 80048ae:	2b00      	cmp	r3, #0
 80048b0:	f2c0 8244 	blt.w	8004d3c <_dtoa_r+0x5ec>
 80048b4:	4498      	add	r8, r3
 80048b6:	9309      	str	r3, [sp, #36]	; 0x24
 80048b8:	2300      	movs	r3, #0
 80048ba:	9308      	str	r3, [sp, #32]
 80048bc:	9b20      	ldr	r3, [sp, #128]	; 0x80
 80048be:	2b09      	cmp	r3, #9
 80048c0:	d860      	bhi.n	8004984 <_dtoa_r+0x234>
 80048c2:	2b05      	cmp	r3, #5
 80048c4:	f340 83aa 	ble.w	800501c <_dtoa_r+0x8cc>
 80048c8:	3b04      	subs	r3, #4
 80048ca:	9320      	str	r3, [sp, #128]	; 0x80
 80048cc:	2500      	movs	r5, #0
 80048ce:	9b20      	ldr	r3, [sp, #128]	; 0x80
 80048d0:	3b02      	subs	r3, #2
 80048d2:	2b03      	cmp	r3, #3
 80048d4:	f200 848d 	bhi.w	80051f2 <_dtoa_r+0xaa2>
 80048d8:	e8df f013 	tbh	[pc, r3, lsl #1]
 80048dc:	03a903c9 	.word	0x03a903c9
 80048e0:	04ea03d3 	.word	0x04ea03d3
 80048e4:	9a22      	ldr	r2, [sp, #136]	; 0x88
 80048e6:	f242 730f 	movw	r3, #9999	; 0x270f
 80048ea:	6013      	str	r3, [r2, #0]
 80048ec:	9b02      	ldr	r3, [sp, #8]
 80048ee:	b97b      	cbnz	r3, 8004910 <_dtoa_r+0x1c0>
 80048f0:	f3c6 0613 	ubfx	r6, r6, #0, #20
 80048f4:	b966      	cbnz	r6, 8004910 <_dtoa_r+0x1c0>
 80048f6:	9b24      	ldr	r3, [sp, #144]	; 0x90
 80048f8:	2b00      	cmp	r3, #0
 80048fa:	f000 8612 	beq.w	8005522 <_dtoa_r+0xdd2>
 80048fe:	4b1e      	ldr	r3, [pc, #120]	; (8004978 <_dtoa_r+0x228>)
 8004900:	9304      	str	r3, [sp, #16]
 8004902:	3308      	adds	r3, #8
 8004904:	9a24      	ldr	r2, [sp, #144]	; 0x90
 8004906:	9804      	ldr	r0, [sp, #16]
 8004908:	6013      	str	r3, [r2, #0]
 800490a:	b017      	add	sp, #92	; 0x5c
 800490c:	e8bd 8ff0 	ldmia.w	sp!, {r4, r5, r6, r7, r8, r9, sl, fp, pc}
 8004910:	9b24      	ldr	r3, [sp, #144]	; 0x90
 8004912:	b92b      	cbnz	r3, 8004920 <_dtoa_r+0x1d0>
 8004914:	4b19      	ldr	r3, [pc, #100]	; (800497c <_dtoa_r+0x22c>)
 8004916:	9304      	str	r3, [sp, #16]
 8004918:	9804      	ldr	r0, [sp, #16]
 800491a:	b017      	add	sp, #92	; 0x5c
 800491c:	e8bd 8ff0 	ldmia.w	sp!, {r4, r5, r6, r7, r8, r9, sl, fp, pc}
 8004920:	4b16      	ldr	r3, [pc, #88]	; (800497c <_dtoa_r+0x22c>)
 8004922:	9304      	str	r3, [sp, #16]
 8004924:	3303      	adds	r3, #3
 8004926:	e7ed      	b.n	8004904 <_dtoa_r+0x1b4>
 8004928:	f3c9 0313 	ubfx	r3, r9, #0, #20
 800492c:	f043 597f 	orr.w	r9, r3, #1069547520	; 0x3fc00000
 8004930:	9512      	str	r5, [sp, #72]	; 0x48
 8004932:	f2a4 34ff 	subw	r4, r4, #1023	; 0x3ff
 8004936:	f449 1940 	orr.w	r9, r9, #3145728	; 0x300000
 800493a:	9d14      	ldr	r5, [sp, #80]	; 0x50
 800493c:	e76a      	b.n	8004814 <_dtoa_r+0xc4>
 800493e:	4b10      	ldr	r3, [pc, #64]	; (8004980 <_dtoa_r+0x230>)
 8004940:	9304      	str	r3, [sp, #16]
 8004942:	9804      	ldr	r0, [sp, #16]
 8004944:	b017      	add	sp, #92	; 0x5c
 8004946:	e8bd 8ff0 	ldmia.w	sp!, {r4, r5, r6, r7, r8, r9, sl, fp, pc}
 800494a:	bf00      	nop
 800494c:	f3af 8000 	nop.w
 8004950:	636f4361 	.word	0x636f4361
 8004954:	3fd287a7 	.word	0x3fd287a7
 8004958:	8b60c8b3 	.word	0x8b60c8b3
 800495c:	3fc68a28 	.word	0x3fc68a28
 8004960:	509f79fb 	.word	0x509f79fb
 8004964:	3fd34413 	.word	0x3fd34413
 8004968:	7ff00000 	.word	0x7ff00000
 800496c:	08007bd1 	.word	0x08007bd1
 8004970:	3ff80000 	.word	0x3ff80000
 8004974:	08007c70 	.word	0x08007c70
 8004978:	08007c38 	.word	0x08007c38
 800497c:	08007c44 	.word	0x08007c44
 8004980:	08007bd0 	.word	0x08007bd0
 8004984:	f04f 34ff 	mov.w	r4, #4294967295	; 0xffffffff
 8004988:	2501      	movs	r5, #1
 800498a:	e9cd 4506 	strd	r4, r5, [sp, #24]
 800498e:	2300      	movs	r3, #0
 8004990:	9320      	str	r3, [sp, #128]	; 0x80
 8004992:	9321      	str	r3, [sp, #132]	; 0x84
 8004994:	2100      	movs	r1, #0
 8004996:	f8cb 1044 	str.w	r1, [fp, #68]	; 0x44
 800499a:	940b      	str	r4, [sp, #44]	; 0x2c
 800499c:	4658      	mov	r0, fp
 800499e:	f001 f831 	bl	8005a04 <_Balloc>
 80049a2:	2c0e      	cmp	r4, #14
 80049a4:	9004      	str	r0, [sp, #16]
 80049a6:	f8cb 0040 	str.w	r0, [fp, #64]	; 0x40
 80049aa:	f200 80f9 	bhi.w	8004ba0 <_dtoa_r+0x450>
 80049ae:	2d00      	cmp	r5, #0
 80049b0:	f000 80f6 	beq.w	8004ba0 <_dtoa_r+0x450>
 80049b4:	e9dd 3402 	ldrd	r3, r4, [sp, #8]
 80049b8:	9905      	ldr	r1, [sp, #20]
 80049ba:	461d      	mov	r5, r3
 80049bc:	4626      	mov	r6, r4
 80049be:	2900      	cmp	r1, #0
 80049c0:	e9cd 560c 	strd	r5, r6, [sp, #48]	; 0x30
 80049c4:	f340 83d3 	ble.w	800516e <_dtoa_r+0xa1e>
 80049c8:	4b9a      	ldr	r3, [pc, #616]	; (8004c34 <_dtoa_r+0x4e4>)
 80049ca:	f001 020f 	and.w	r2, r1, #15
 80049ce:	eb03 03c2 	add.w	r3, r3, r2, lsl #3
 80049d2:	e9d3 2300 	ldrd	r2, r3, [r3]
 80049d6:	110c      	asrs	r4, r1, #4
 80049d8:	e9cd 2302 	strd	r2, r3, [sp, #8]
 80049dc:	06e3      	lsls	r3, r4, #27
 80049de:	f140 8488 	bpl.w	80052f2 <_dtoa_r+0xba2>
 80049e2:	4b95      	ldr	r3, [pc, #596]	; (8004c38 <_dtoa_r+0x4e8>)
 80049e4:	4631      	mov	r1, r6
 80049e6:	4628      	mov	r0, r5
 80049e8:	e9d3 2308 	ldrd	r2, r3, [r3, #32]
 80049ec:	f7fd fa9c 	bl	8001f28 <__aeabi_ddiv>
 80049f0:	e9cd 010e 	strd	r0, r1, [sp, #56]	; 0x38
 80049f4:	f004 040f 	and.w	r4, r4, #15
 80049f8:	2603      	movs	r6, #3
 80049fa:	b17c      	cbz	r4, 8004a1c <_dtoa_r+0x2cc>
 80049fc:	e9dd 0102 	ldrd	r0, r1, [sp, #8]
 8004a00:	4d8d      	ldr	r5, [pc, #564]	; (8004c38 <_dtoa_r+0x4e8>)
 8004a02:	07e7      	lsls	r7, r4, #31
 8004a04:	d504      	bpl.n	8004a10 <_dtoa_r+0x2c0>
 8004a06:	e9d5 2300 	ldrd	r2, r3, [r5]
 8004a0a:	3601      	adds	r6, #1
 8004a0c:	f7fd f962 	bl	8001cd4 <__aeabi_dmul>
 8004a10:	1064      	asrs	r4, r4, #1
 8004a12:	f105 0508 	add.w	r5, r5, #8
 8004a16:	d1f4      	bne.n	8004a02 <_dtoa_r+0x2b2>
 8004a18:	e9cd 0102 	strd	r0, r1, [sp, #8]
 8004a1c:	e9dd 2302 	ldrd	r2, r3, [sp, #8]
 8004a20:	e9dd 010e 	ldrd	r0, r1, [sp, #56]	; 0x38
 8004a24:	f7fd fa80 	bl	8001f28 <__aeabi_ddiv>
 8004a28:	e9cd 0102 	strd	r0, r1, [sp, #8]
 8004a2c:	9b0a      	ldr	r3, [sp, #40]	; 0x28
 8004a2e:	b143      	cbz	r3, 8004a42 <_dtoa_r+0x2f2>
 8004a30:	2200      	movs	r2, #0
 8004a32:	4b82      	ldr	r3, [pc, #520]	; (8004c3c <_dtoa_r+0x4ec>)
 8004a34:	e9dd 0102 	ldrd	r0, r1, [sp, #8]
 8004a38:	f7fd fbbe 	bl	80021b8 <__aeabi_dcmplt>
 8004a3c:	2800      	cmp	r0, #0
 8004a3e:	f040 84eb 	bne.w	8005418 <_dtoa_r+0xcc8>
 8004a42:	4630      	mov	r0, r6
 8004a44:	f7fd f8dc 	bl	8001c00 <__aeabi_i2d>
 8004a48:	e9dd 2302 	ldrd	r2, r3, [sp, #8]
 8004a4c:	f7fd f942 	bl	8001cd4 <__aeabi_dmul>
 8004a50:	4b7b      	ldr	r3, [pc, #492]	; (8004c40 <_dtoa_r+0x4f0>)
 8004a52:	2200      	movs	r2, #0
 8004a54:	f7fc ff88 	bl	8001968 <__adddf3>
 8004a58:	9b06      	ldr	r3, [sp, #24]
 8004a5a:	4606      	mov	r6, r0
 8004a5c:	f1a1 7750 	sub.w	r7, r1, #54525952	; 0x3400000
 8004a60:	2b00      	cmp	r3, #0
 8004a62:	f000 840a 	beq.w	800527a <_dtoa_r+0xb2a>
 8004a66:	9b05      	ldr	r3, [sp, #20]
 8004a68:	9313      	str	r3, [sp, #76]	; 0x4c
 8004a6a:	9b06      	ldr	r3, [sp, #24]
 8004a6c:	930e      	str	r3, [sp, #56]	; 0x38
 8004a6e:	e9dd 0102 	ldrd	r0, r1, [sp, #8]
 8004a72:	f7fd fbdf 	bl	8002234 <__aeabi_d2iz>
 8004a76:	9a0e      	ldr	r2, [sp, #56]	; 0x38
 8004a78:	4b6e      	ldr	r3, [pc, #440]	; (8004c34 <_dtoa_r+0x4e4>)
 8004a7a:	eb03 03c2 	add.w	r3, r3, r2, lsl #3
 8004a7e:	e953 3402 	ldrd	r3, r4, [r3, #-8]
 8004a82:	f100 0530 	add.w	r5, r0, #48	; 0x30
 8004a86:	e9cd 3410 	strd	r3, r4, [sp, #64]	; 0x40
 8004a8a:	f7fd f8b9 	bl	8001c00 <__aeabi_i2d>
 8004a8e:	4602      	mov	r2, r0
 8004a90:	460b      	mov	r3, r1
 8004a92:	e9dd 0102 	ldrd	r0, r1, [sp, #8]
 8004a96:	e9cd 6702 	strd	r6, r7, [sp, #8]
 8004a9a:	f7fc ff63 	bl	8001964 <__aeabi_dsub>
 8004a9e:	9b04      	ldr	r3, [sp, #16]
 8004aa0:	4606      	mov	r6, r0
 8004aa2:	9807      	ldr	r0, [sp, #28]
 8004aa4:	1c5c      	adds	r4, r3, #1
 8004aa6:	b2ed      	uxtb	r5, r5
 8004aa8:	460f      	mov	r7, r1
 8004aaa:	e9dd 2310 	ldrd	r2, r3, [sp, #64]	; 0x40
 8004aae:	2800      	cmp	r0, #0
 8004ab0:	f000 8445 	beq.w	800533e <_dtoa_r+0xbee>
 8004ab4:	2000      	movs	r0, #0
 8004ab6:	4963      	ldr	r1, [pc, #396]	; (8004c44 <_dtoa_r+0x4f4>)
 8004ab8:	f7fd fa36 	bl	8001f28 <__aeabi_ddiv>
 8004abc:	e9dd 2302 	ldrd	r2, r3, [sp, #8]
 8004ac0:	f7fc ff50 	bl	8001964 <__aeabi_dsub>
 8004ac4:	9a04      	ldr	r2, [sp, #16]
 8004ac6:	463b      	mov	r3, r7
 8004ac8:	7015      	strb	r5, [r2, #0]
 8004aca:	4632      	mov	r2, r6
 8004acc:	e9cd 0102 	strd	r0, r1, [sp, #8]
 8004ad0:	f7fd fb90 	bl	80021f4 <__aeabi_dcmpgt>
 8004ad4:	2800      	cmp	r0, #0
 8004ad6:	f040 84ef 	bne.w	80054b8 <_dtoa_r+0xd68>
 8004ada:	4632      	mov	r2, r6
 8004adc:	463b      	mov	r3, r7
 8004ade:	2000      	movs	r0, #0
 8004ae0:	4956      	ldr	r1, [pc, #344]	; (8004c3c <_dtoa_r+0x4ec>)
 8004ae2:	f7fc ff3f 	bl	8001964 <__aeabi_dsub>
 8004ae6:	4602      	mov	r2, r0
 8004ae8:	460b      	mov	r3, r1
 8004aea:	e9dd 0102 	ldrd	r0, r1, [sp, #8]
 8004aee:	f7fd fb81 	bl	80021f4 <__aeabi_dcmpgt>
 8004af2:	2800      	cmp	r0, #0
 8004af4:	f040 84e5 	bne.w	80054c2 <_dtoa_r+0xd72>
 8004af8:	990e      	ldr	r1, [sp, #56]	; 0x38
 8004afa:	2901      	cmp	r1, #1
 8004afc:	d04c      	beq.n	8004b98 <_dtoa_r+0x448>
 8004afe:	9a04      	ldr	r2, [sp, #16]
 8004b00:	f8cd 9038 	str.w	r9, [sp, #56]	; 0x38
 8004b04:	4411      	add	r1, r2
 8004b06:	f8cd 8040 	str.w	r8, [sp, #64]	; 0x40
 8004b0a:	e9dd 8902 	ldrd	r8, r9, [sp, #8]
 8004b0e:	f8cd a008 	str.w	sl, [sp, #8]
 8004b12:	468a      	mov	sl, r1
 8004b14:	e00c      	b.n	8004b30 <_dtoa_r+0x3e0>
 8004b16:	2000      	movs	r0, #0
 8004b18:	4948      	ldr	r1, [pc, #288]	; (8004c3c <_dtoa_r+0x4ec>)
 8004b1a:	f7fc ff23 	bl	8001964 <__aeabi_dsub>
 8004b1e:	4642      	mov	r2, r8
 8004b20:	464b      	mov	r3, r9
 8004b22:	f7fd fb49 	bl	80021b8 <__aeabi_dcmplt>
 8004b26:	2800      	cmp	r0, #0
 8004b28:	f040 84c9 	bne.w	80054be <_dtoa_r+0xd6e>
 8004b2c:	4554      	cmp	r4, sl
 8004b2e:	d02d      	beq.n	8004b8c <_dtoa_r+0x43c>
 8004b30:	4640      	mov	r0, r8
 8004b32:	4649      	mov	r1, r9
 8004b34:	2200      	movs	r2, #0
 8004b36:	4b44      	ldr	r3, [pc, #272]	; (8004c48 <_dtoa_r+0x4f8>)
 8004b38:	f7fd f8cc 	bl	8001cd4 <__aeabi_dmul>
 8004b3c:	2200      	movs	r2, #0
 8004b3e:	4b42      	ldr	r3, [pc, #264]	; (8004c48 <_dtoa_r+0x4f8>)
 8004b40:	4680      	mov	r8, r0
 8004b42:	4689      	mov	r9, r1
 8004b44:	4630      	mov	r0, r6
 8004b46:	4639      	mov	r1, r7
 8004b48:	f7fd f8c4 	bl	8001cd4 <__aeabi_dmul>
 8004b4c:	460f      	mov	r7, r1
 8004b4e:	4606      	mov	r6, r0
 8004b50:	f7fd fb70 	bl	8002234 <__aeabi_d2iz>
 8004b54:	4605      	mov	r5, r0
 8004b56:	f7fd f853 	bl	8001c00 <__aeabi_i2d>
 8004b5a:	4602      	mov	r2, r0
 8004b5c:	460b      	mov	r3, r1
 8004b5e:	4630      	mov	r0, r6
 8004b60:	4639      	mov	r1, r7
 8004b62:	f7fc feff 	bl	8001964 <__aeabi_dsub>
 8004b66:	3530      	adds	r5, #48	; 0x30
 8004b68:	b2ed      	uxtb	r5, r5
 8004b6a:	4642      	mov	r2, r8
 8004b6c:	464b      	mov	r3, r9
 8004b6e:	f804 5b01 	strb.w	r5, [r4], #1
 8004b72:	4606      	mov	r6, r0
 8004b74:	460f      	mov	r7, r1
 8004b76:	f7fd fb1f 	bl	80021b8 <__aeabi_dcmplt>
 8004b7a:	4632      	mov	r2, r6
 8004b7c:	463b      	mov	r3, r7
 8004b7e:	2800      	cmp	r0, #0
 8004b80:	d0c9      	beq.n	8004b16 <_dtoa_r+0x3c6>
 8004b82:	9b13      	ldr	r3, [sp, #76]	; 0x4c
 8004b84:	f8dd a008 	ldr.w	sl, [sp, #8]
 8004b88:	9305      	str	r3, [sp, #20]
 8004b8a:	e219      	b.n	8004fc0 <_dtoa_r+0x870>
 8004b8c:	f8dd 9038 	ldr.w	r9, [sp, #56]	; 0x38
 8004b90:	f8dd 8040 	ldr.w	r8, [sp, #64]	; 0x40
 8004b94:	f8dd a008 	ldr.w	sl, [sp, #8]
 8004b98:	e9dd 340c 	ldrd	r3, r4, [sp, #48]	; 0x30
 8004b9c:	e9cd 3402 	strd	r3, r4, [sp, #8]
 8004ba0:	9b15      	ldr	r3, [sp, #84]	; 0x54
 8004ba2:	2b00      	cmp	r3, #0
 8004ba4:	f2c0 80ad 	blt.w	8004d02 <_dtoa_r+0x5b2>
 8004ba8:	9a05      	ldr	r2, [sp, #20]
 8004baa:	2a0e      	cmp	r2, #14
 8004bac:	f300 80a9 	bgt.w	8004d02 <_dtoa_r+0x5b2>
 8004bb0:	4b20      	ldr	r3, [pc, #128]	; (8004c34 <_dtoa_r+0x4e4>)
 8004bb2:	eb03 03c2 	add.w	r3, r3, r2, lsl #3
 8004bb6:	e9d3 8900 	ldrd	r8, r9, [r3]
 8004bba:	9b21      	ldr	r3, [sp, #132]	; 0x84
 8004bbc:	2b00      	cmp	r3, #0
 8004bbe:	f2c0 82b3 	blt.w	8005128 <_dtoa_r+0x9d8>
 8004bc2:	e9dd 6702 	ldrd	r6, r7, [sp, #8]
 8004bc6:	4642      	mov	r2, r8
 8004bc8:	464b      	mov	r3, r9
 8004bca:	4630      	mov	r0, r6
 8004bcc:	4639      	mov	r1, r7
 8004bce:	f7fd f9ab 	bl	8001f28 <__aeabi_ddiv>
 8004bd2:	f7fd fb2f 	bl	8002234 <__aeabi_d2iz>
 8004bd6:	4605      	mov	r5, r0
 8004bd8:	f7fd f812 	bl	8001c00 <__aeabi_i2d>
 8004bdc:	4642      	mov	r2, r8
 8004bde:	464b      	mov	r3, r9
 8004be0:	f7fd f878 	bl	8001cd4 <__aeabi_dmul>
 8004be4:	4602      	mov	r2, r0
 8004be6:	460b      	mov	r3, r1
 8004be8:	4630      	mov	r0, r6
 8004bea:	4639      	mov	r1, r7
 8004bec:	f7fc feba 	bl	8001964 <__aeabi_dsub>
 8004bf0:	9a04      	ldr	r2, [sp, #16]
 8004bf2:	f105 0330 	add.w	r3, r5, #48	; 0x30
 8004bf6:	7013      	strb	r3, [r2, #0]
 8004bf8:	9b06      	ldr	r3, [sp, #24]
 8004bfa:	2b01      	cmp	r3, #1
 8004bfc:	4606      	mov	r6, r0
 8004bfe:	460f      	mov	r7, r1
 8004c00:	f102 0401 	add.w	r4, r2, #1
 8004c04:	d053      	beq.n	8004cae <_dtoa_r+0x55e>
 8004c06:	2200      	movs	r2, #0
 8004c08:	4b0f      	ldr	r3, [pc, #60]	; (8004c48 <_dtoa_r+0x4f8>)
 8004c0a:	f7fd f863 	bl	8001cd4 <__aeabi_dmul>
 8004c0e:	2200      	movs	r2, #0
 8004c10:	2300      	movs	r3, #0
 8004c12:	4606      	mov	r6, r0
 8004c14:	460f      	mov	r7, r1
 8004c16:	f7fd fac5 	bl	80021a4 <__aeabi_dcmpeq>
 8004c1a:	2800      	cmp	r0, #0
 8004c1c:	f040 81d0 	bne.w	8004fc0 <_dtoa_r+0x870>
 8004c20:	f8cd a008 	str.w	sl, [sp, #8]
 8004c24:	f8dd a018 	ldr.w	sl, [sp, #24]
 8004c28:	f8cd b018 	str.w	fp, [sp, #24]
 8004c2c:	f8dd b010 	ldr.w	fp, [sp, #16]
 8004c30:	e017      	b.n	8004c62 <_dtoa_r+0x512>
 8004c32:	bf00      	nop
 8004c34:	08007c70 	.word	0x08007c70
 8004c38:	08007c48 	.word	0x08007c48
 8004c3c:	3ff00000 	.word	0x3ff00000
 8004c40:	401c0000 	.word	0x401c0000
 8004c44:	3fe00000 	.word	0x3fe00000
 8004c48:	40240000 	.word	0x40240000
 8004c4c:	f7fd f842 	bl	8001cd4 <__aeabi_dmul>
 8004c50:	2200      	movs	r2, #0
 8004c52:	2300      	movs	r3, #0
 8004c54:	4606      	mov	r6, r0
 8004c56:	460f      	mov	r7, r1
 8004c58:	f7fd faa4 	bl	80021a4 <__aeabi_dcmpeq>
 8004c5c:	2800      	cmp	r0, #0
 8004c5e:	f040 8331 	bne.w	80052c4 <_dtoa_r+0xb74>
 8004c62:	4642      	mov	r2, r8
 8004c64:	464b      	mov	r3, r9
 8004c66:	4630      	mov	r0, r6
 8004c68:	4639      	mov	r1, r7
 8004c6a:	f7fd f95d 	bl	8001f28 <__aeabi_ddiv>
 8004c6e:	f7fd fae1 	bl	8002234 <__aeabi_d2iz>
 8004c72:	4605      	mov	r5, r0
 8004c74:	f7fc ffc4 	bl	8001c00 <__aeabi_i2d>
 8004c78:	4642      	mov	r2, r8
 8004c7a:	464b      	mov	r3, r9
 8004c7c:	f7fd f82a 	bl	8001cd4 <__aeabi_dmul>
 8004c80:	4602      	mov	r2, r0
 8004c82:	460b      	mov	r3, r1
 8004c84:	4630      	mov	r0, r6
 8004c86:	4639      	mov	r1, r7
 8004c88:	f7fc fe6c 	bl	8001964 <__aeabi_dsub>
 8004c8c:	f105 0c30 	add.w	ip, r5, #48	; 0x30
 8004c90:	f804 cb01 	strb.w	ip, [r4], #1
 8004c94:	eba4 0c0b 	sub.w	ip, r4, fp
 8004c98:	45e2      	cmp	sl, ip
 8004c9a:	4606      	mov	r6, r0
 8004c9c:	460f      	mov	r7, r1
 8004c9e:	f04f 0200 	mov.w	r2, #0
 8004ca2:	4bb8      	ldr	r3, [pc, #736]	; (8004f84 <_dtoa_r+0x834>)
 8004ca4:	d1d2      	bne.n	8004c4c <_dtoa_r+0x4fc>
 8004ca6:	f8dd a008 	ldr.w	sl, [sp, #8]
 8004caa:	f8dd b018 	ldr.w	fp, [sp, #24]
 8004cae:	4632      	mov	r2, r6
 8004cb0:	463b      	mov	r3, r7
 8004cb2:	4630      	mov	r0, r6
 8004cb4:	4639      	mov	r1, r7
 8004cb6:	f7fc fe57 	bl	8001968 <__adddf3>
 8004cba:	4642      	mov	r2, r8
 8004cbc:	464b      	mov	r3, r9
 8004cbe:	4606      	mov	r6, r0
 8004cc0:	460f      	mov	r7, r1
 8004cc2:	f7fd fa97 	bl	80021f4 <__aeabi_dcmpgt>
 8004cc6:	b958      	cbnz	r0, 8004ce0 <_dtoa_r+0x590>
 8004cc8:	4642      	mov	r2, r8
 8004cca:	464b      	mov	r3, r9
 8004ccc:	4630      	mov	r0, r6
 8004cce:	4639      	mov	r1, r7
 8004cd0:	f7fd fa68 	bl	80021a4 <__aeabi_dcmpeq>
 8004cd4:	2800      	cmp	r0, #0
 8004cd6:	f000 8173 	beq.w	8004fc0 <_dtoa_r+0x870>
 8004cda:	07eb      	lsls	r3, r5, #31
 8004cdc:	f140 8170 	bpl.w	8004fc0 <_dtoa_r+0x870>
 8004ce0:	f814 5c01 	ldrb.w	r5, [r4, #-1]
 8004ce4:	9a04      	ldr	r2, [sp, #16]
 8004ce6:	e005      	b.n	8004cf4 <_dtoa_r+0x5a4>
 8004ce8:	429a      	cmp	r2, r3
 8004cea:	f000 831e 	beq.w	800532a <_dtoa_r+0xbda>
 8004cee:	f813 5c01 	ldrb.w	r5, [r3, #-1]
 8004cf2:	461c      	mov	r4, r3
 8004cf4:	2d39      	cmp	r5, #57	; 0x39
 8004cf6:	f104 33ff 	add.w	r3, r4, #4294967295	; 0xffffffff
 8004cfa:	d0f5      	beq.n	8004ce8 <_dtoa_r+0x598>
 8004cfc:	3501      	adds	r5, #1
 8004cfe:	701d      	strb	r5, [r3, #0]
 8004d00:	e15e      	b.n	8004fc0 <_dtoa_r+0x870>
 8004d02:	9a07      	ldr	r2, [sp, #28]
 8004d04:	b392      	cbz	r2, 8004d6c <_dtoa_r+0x61c>
 8004d06:	9a20      	ldr	r2, [sp, #128]	; 0x80
 8004d08:	2a01      	cmp	r2, #1
 8004d0a:	f340 8202 	ble.w	8005112 <_dtoa_r+0x9c2>
 8004d0e:	9b06      	ldr	r3, [sp, #24]
 8004d10:	1e5f      	subs	r7, r3, #1
 8004d12:	9b08      	ldr	r3, [sp, #32]
 8004d14:	42bb      	cmp	r3, r7
 8004d16:	f2c0 82da 	blt.w	80052ce <_dtoa_r+0xb7e>
 8004d1a:	1bdf      	subs	r7, r3, r7
 8004d1c:	9b06      	ldr	r3, [sp, #24]
 8004d1e:	2b00      	cmp	r3, #0
 8004d20:	f2c0 82f9 	blt.w	8005316 <_dtoa_r+0xbc6>
 8004d24:	464c      	mov	r4, r9
 8004d26:	4498      	add	r8, r3
 8004d28:	4499      	add	r9, r3
 8004d2a:	2101      	movs	r1, #1
 8004d2c:	4658      	mov	r0, fp
 8004d2e:	f000 ff75 	bl	8005c1c <__i2b>
 8004d32:	4605      	mov	r5, r0
 8004d34:	e01d      	b.n	8004d72 <_dtoa_r+0x622>
 8004d36:	2301      	movs	r3, #1
 8004d38:	930a      	str	r3, [sp, #40]	; 0x28
 8004d3a:	e5ad      	b.n	8004898 <_dtoa_r+0x148>
 8004d3c:	9b05      	ldr	r3, [sp, #20]
 8004d3e:	eba9 0903 	sub.w	r9, r9, r3
 8004d42:	425b      	negs	r3, r3
 8004d44:	9308      	str	r3, [sp, #32]
 8004d46:	2300      	movs	r3, #0
 8004d48:	9309      	str	r3, [sp, #36]	; 0x24
 8004d4a:	e5b7      	b.n	80048bc <_dtoa_r+0x16c>
 8004d4c:	f8dd 8014 	ldr.w	r8, [sp, #20]
 8004d50:	4640      	mov	r0, r8
 8004d52:	f7fc ff55 	bl	8001c00 <__aeabi_i2d>
 8004d56:	4632      	mov	r2, r6
 8004d58:	463b      	mov	r3, r7
 8004d5a:	f7fd fa23 	bl	80021a4 <__aeabi_dcmpeq>
 8004d5e:	2800      	cmp	r0, #0
 8004d60:	f47f ad86 	bne.w	8004870 <_dtoa_r+0x120>
 8004d64:	f108 33ff 	add.w	r3, r8, #4294967295	; 0xffffffff
 8004d68:	9305      	str	r3, [sp, #20]
 8004d6a:	e581      	b.n	8004870 <_dtoa_r+0x120>
 8004d6c:	9f08      	ldr	r7, [sp, #32]
 8004d6e:	9d07      	ldr	r5, [sp, #28]
 8004d70:	464c      	mov	r4, r9
 8004d72:	2c00      	cmp	r4, #0
 8004d74:	dd0b      	ble.n	8004d8e <_dtoa_r+0x63e>
 8004d76:	f1b8 0f00 	cmp.w	r8, #0
 8004d7a:	dd08      	ble.n	8004d8e <_dtoa_r+0x63e>
 8004d7c:	4544      	cmp	r4, r8
 8004d7e:	4623      	mov	r3, r4
 8004d80:	bfa8      	it	ge
 8004d82:	4643      	movge	r3, r8
 8004d84:	eba9 0903 	sub.w	r9, r9, r3
 8004d88:	1ae4      	subs	r4, r4, r3
 8004d8a:	eba8 0803 	sub.w	r8, r8, r3
 8004d8e:	9b08      	ldr	r3, [sp, #32]
 8004d90:	b16b      	cbz	r3, 8004dae <_dtoa_r+0x65e>
 8004d92:	9a07      	ldr	r2, [sp, #28]
 8004d94:	2a00      	cmp	r2, #0
 8004d96:	f000 828e 	beq.w	80052b6 <_dtoa_r+0xb66>
 8004d9a:	1bde      	subs	r6, r3, r7
 8004d9c:	2f00      	cmp	r7, #0
 8004d9e:	f040 818e 	bne.w	80050be <_dtoa_r+0x96e>
 8004da2:	4651      	mov	r1, sl
 8004da4:	4632      	mov	r2, r6
 8004da6:	4658      	mov	r0, fp
 8004da8:	f000 ffe8 	bl	8005d7c <__pow5mult>
 8004dac:	4682      	mov	sl, r0
 8004dae:	2101      	movs	r1, #1
 8004db0:	4658      	mov	r0, fp
 8004db2:	f000 ff33 	bl	8005c1c <__i2b>
 8004db6:	9a09      	ldr	r2, [sp, #36]	; 0x24
 8004db8:	4606      	mov	r6, r0
 8004dba:	2a00      	cmp	r2, #0
 8004dbc:	f040 8118 	bne.w	8004ff0 <_dtoa_r+0x8a0>
 8004dc0:	9b20      	ldr	r3, [sp, #128]	; 0x80
 8004dc2:	2b01      	cmp	r3, #1
 8004dc4:	f340 8160 	ble.w	8005088 <_dtoa_r+0x938>
 8004dc8:	2001      	movs	r0, #1
 8004dca:	4440      	add	r0, r8
 8004dcc:	f010 001f 	ands.w	r0, r0, #31
 8004dd0:	f000 8109 	beq.w	8004fe6 <_dtoa_r+0x896>
 8004dd4:	f1c0 0320 	rsb	r3, r0, #32
 8004dd8:	2b04      	cmp	r3, #4
 8004dda:	f340 83a6 	ble.w	800552a <_dtoa_r+0xdda>
 8004dde:	f1c0 001c 	rsb	r0, r0, #28
 8004de2:	4481      	add	r9, r0
 8004de4:	4404      	add	r4, r0
 8004de6:	4480      	add	r8, r0
 8004de8:	f1b9 0f00 	cmp.w	r9, #0
 8004dec:	dd05      	ble.n	8004dfa <_dtoa_r+0x6aa>
 8004dee:	4651      	mov	r1, sl
 8004df0:	464a      	mov	r2, r9
 8004df2:	4658      	mov	r0, fp
 8004df4:	f001 f812 	bl	8005e1c <__lshift>
 8004df8:	4682      	mov	sl, r0
 8004dfa:	f1b8 0f00 	cmp.w	r8, #0
 8004dfe:	dd05      	ble.n	8004e0c <_dtoa_r+0x6bc>
 8004e00:	4631      	mov	r1, r6
 8004e02:	4642      	mov	r2, r8
 8004e04:	4658      	mov	r0, fp
 8004e06:	f001 f809 	bl	8005e1c <__lshift>
 8004e0a:	4606      	mov	r6, r0
 8004e0c:	9b0a      	ldr	r3, [sp, #40]	; 0x28
 8004e0e:	2b00      	cmp	r3, #0
 8004e10:	d173      	bne.n	8004efa <_dtoa_r+0x7aa>
 8004e12:	9b06      	ldr	r3, [sp, #24]
 8004e14:	2b00      	cmp	r3, #0
 8004e16:	f340 8209 	ble.w	800522c <_dtoa_r+0xadc>
 8004e1a:	9b07      	ldr	r3, [sp, #28]
 8004e1c:	2b00      	cmp	r3, #0
 8004e1e:	f000 8085 	beq.w	8004f2c <_dtoa_r+0x7dc>
 8004e22:	2c00      	cmp	r4, #0
 8004e24:	f300 8160 	bgt.w	80050e8 <_dtoa_r+0x998>
 8004e28:	9b09      	ldr	r3, [sp, #36]	; 0x24
 8004e2a:	2b00      	cmp	r3, #0
 8004e2c:	f040 81c8 	bne.w	80051c0 <_dtoa_r+0xa70>
 8004e30:	46a8      	mov	r8, r5
 8004e32:	9a02      	ldr	r2, [sp, #8]
 8004e34:	9f04      	ldr	r7, [sp, #16]
 8004e36:	f002 0201 	and.w	r2, r2, #1
 8004e3a:	9209      	str	r2, [sp, #36]	; 0x24
 8004e3c:	9a06      	ldr	r2, [sp, #24]
 8004e3e:	1e7b      	subs	r3, r7, #1
 8004e40:	441a      	add	r2, r3
 8004e42:	9207      	str	r2, [sp, #28]
 8004e44:	4631      	mov	r1, r6
 8004e46:	4650      	mov	r0, sl
 8004e48:	f7ff fbee 	bl	8004628 <quorem>
 8004e4c:	4629      	mov	r1, r5
 8004e4e:	4681      	mov	r9, r0
 8004e50:	9008      	str	r0, [sp, #32]
 8004e52:	4650      	mov	r0, sl
 8004e54:	f001 f838 	bl	8005ec8 <__mcmp>
 8004e58:	4631      	mov	r1, r6
 8004e5a:	9002      	str	r0, [sp, #8]
 8004e5c:	4642      	mov	r2, r8
 8004e5e:	4658      	mov	r0, fp
 8004e60:	f001 f84e 	bl	8005f00 <__mdiff>
 8004e64:	68c3      	ldr	r3, [r0, #12]
 8004e66:	4604      	mov	r4, r0
 8004e68:	f109 0930 	add.w	r9, r9, #48	; 0x30
 8004e6c:	4601      	mov	r1, r0
 8004e6e:	2b00      	cmp	r3, #0
 8004e70:	f040 81d7 	bne.w	8005222 <_dtoa_r+0xad2>
 8004e74:	4650      	mov	r0, sl
 8004e76:	f001 f827 	bl	8005ec8 <__mcmp>
 8004e7a:	4621      	mov	r1, r4
 8004e7c:	9006      	str	r0, [sp, #24]
 8004e7e:	4658      	mov	r0, fp
 8004e80:	f000 fde6 	bl	8005a50 <_Bfree>
 8004e84:	9b06      	ldr	r3, [sp, #24]
 8004e86:	b933      	cbnz	r3, 8004e96 <_dtoa_r+0x746>
 8004e88:	9a20      	ldr	r2, [sp, #128]	; 0x80
 8004e8a:	b922      	cbnz	r2, 8004e96 <_dtoa_r+0x746>
 8004e8c:	9b09      	ldr	r3, [sp, #36]	; 0x24
 8004e8e:	2b00      	cmp	r3, #0
 8004e90:	f000 831b 	beq.w	80054ca <_dtoa_r+0xd7a>
 8004e94:	9b20      	ldr	r3, [sp, #128]	; 0x80
 8004e96:	9a02      	ldr	r2, [sp, #8]
 8004e98:	2a00      	cmp	r2, #0
 8004e9a:	f2c0 8220 	blt.w	80052de <_dtoa_r+0xb8e>
 8004e9e:	d105      	bne.n	8004eac <_dtoa_r+0x75c>
 8004ea0:	9a20      	ldr	r2, [sp, #128]	; 0x80
 8004ea2:	b91a      	cbnz	r2, 8004eac <_dtoa_r+0x75c>
 8004ea4:	9a09      	ldr	r2, [sp, #36]	; 0x24
 8004ea6:	2a00      	cmp	r2, #0
 8004ea8:	f000 8219 	beq.w	80052de <_dtoa_r+0xb8e>
 8004eac:	2b00      	cmp	r3, #0
 8004eae:	f107 0401 	add.w	r4, r7, #1
 8004eb2:	f300 8225 	bgt.w	8005300 <_dtoa_r+0xbb0>
 8004eb6:	9b07      	ldr	r3, [sp, #28]
 8004eb8:	f887 9000 	strb.w	r9, [r7]
 8004ebc:	42bb      	cmp	r3, r7
 8004ebe:	f000 822e 	beq.w	800531e <_dtoa_r+0xbce>
 8004ec2:	4651      	mov	r1, sl
 8004ec4:	2300      	movs	r3, #0
 8004ec6:	220a      	movs	r2, #10
 8004ec8:	4658      	mov	r0, fp
 8004eca:	f000 fdcb 	bl	8005a64 <__multadd>
 8004ece:	4545      	cmp	r5, r8
 8004ed0:	4682      	mov	sl, r0
 8004ed2:	4629      	mov	r1, r5
 8004ed4:	f04f 0300 	mov.w	r3, #0
 8004ed8:	f04f 020a 	mov.w	r2, #10
 8004edc:	4658      	mov	r0, fp
 8004ede:	f000 819a 	beq.w	8005216 <_dtoa_r+0xac6>
 8004ee2:	f000 fdbf 	bl	8005a64 <__multadd>
 8004ee6:	4641      	mov	r1, r8
 8004ee8:	4605      	mov	r5, r0
 8004eea:	2300      	movs	r3, #0
 8004eec:	220a      	movs	r2, #10
 8004eee:	4658      	mov	r0, fp
 8004ef0:	f000 fdb8 	bl	8005a64 <__multadd>
 8004ef4:	4627      	mov	r7, r4
 8004ef6:	4680      	mov	r8, r0
 8004ef8:	e7a4      	b.n	8004e44 <_dtoa_r+0x6f4>
 8004efa:	4631      	mov	r1, r6
 8004efc:	4650      	mov	r0, sl
 8004efe:	f000 ffe3 	bl	8005ec8 <__mcmp>
 8004f02:	2800      	cmp	r0, #0
 8004f04:	da85      	bge.n	8004e12 <_dtoa_r+0x6c2>
 8004f06:	9f05      	ldr	r7, [sp, #20]
 8004f08:	4651      	mov	r1, sl
 8004f0a:	2300      	movs	r3, #0
 8004f0c:	220a      	movs	r2, #10
 8004f0e:	4658      	mov	r0, fp
 8004f10:	3f01      	subs	r7, #1
 8004f12:	9705      	str	r7, [sp, #20]
 8004f14:	f000 fda6 	bl	8005a64 <__multadd>
 8004f18:	9b07      	ldr	r3, [sp, #28]
 8004f1a:	4682      	mov	sl, r0
 8004f1c:	2b00      	cmp	r3, #0
 8004f1e:	f040 82e4 	bne.w	80054ea <_dtoa_r+0xd9a>
 8004f22:	9b0b      	ldr	r3, [sp, #44]	; 0x2c
 8004f24:	2b00      	cmp	r3, #0
 8004f26:	f340 82ec 	ble.w	8005502 <_dtoa_r+0xdb2>
 8004f2a:	9306      	str	r3, [sp, #24]
 8004f2c:	f8dd 8010 	ldr.w	r8, [sp, #16]
 8004f30:	9f06      	ldr	r7, [sp, #24]
 8004f32:	4644      	mov	r4, r8
 8004f34:	e002      	b.n	8004f3c <_dtoa_r+0x7ec>
 8004f36:	f000 fd95 	bl	8005a64 <__multadd>
 8004f3a:	4682      	mov	sl, r0
 8004f3c:	4631      	mov	r1, r6
 8004f3e:	4650      	mov	r0, sl
 8004f40:	f7ff fb72 	bl	8004628 <quorem>
 8004f44:	f100 0930 	add.w	r9, r0, #48	; 0x30
 8004f48:	f804 9b01 	strb.w	r9, [r4], #1
 8004f4c:	eba4 0308 	sub.w	r3, r4, r8
 8004f50:	429f      	cmp	r7, r3
 8004f52:	f04f 020a 	mov.w	r2, #10
 8004f56:	f04f 0300 	mov.w	r3, #0
 8004f5a:	4651      	mov	r1, sl
 8004f5c:	4658      	mov	r0, fp
 8004f5e:	dcea      	bgt.n	8004f36 <_dtoa_r+0x7e6>
 8004f60:	2300      	movs	r3, #0
 8004f62:	9302      	str	r3, [sp, #8]
 8004f64:	4651      	mov	r1, sl
 8004f66:	2201      	movs	r2, #1
 8004f68:	4658      	mov	r0, fp
 8004f6a:	f000 ff57 	bl	8005e1c <__lshift>
 8004f6e:	4631      	mov	r1, r6
 8004f70:	4682      	mov	sl, r0
 8004f72:	f000 ffa9 	bl	8005ec8 <__mcmp>
 8004f76:	2800      	cmp	r0, #0
 8004f78:	f814 2c01 	ldrb.w	r2, [r4, #-1]
 8004f7c:	f340 80bb 	ble.w	80050f6 <_dtoa_r+0x9a6>
 8004f80:	9904      	ldr	r1, [sp, #16]
 8004f82:	e007      	b.n	8004f94 <_dtoa_r+0x844>
 8004f84:	40240000 	.word	0x40240000
 8004f88:	4299      	cmp	r1, r3
 8004f8a:	f000 815c 	beq.w	8005246 <_dtoa_r+0xaf6>
 8004f8e:	f813 2c01 	ldrb.w	r2, [r3, #-1]
 8004f92:	461c      	mov	r4, r3
 8004f94:	2a39      	cmp	r2, #57	; 0x39
 8004f96:	f104 33ff 	add.w	r3, r4, #4294967295	; 0xffffffff
 8004f9a:	d0f5      	beq.n	8004f88 <_dtoa_r+0x838>
 8004f9c:	3201      	adds	r2, #1
 8004f9e:	701a      	strb	r2, [r3, #0]
 8004fa0:	4631      	mov	r1, r6
 8004fa2:	4658      	mov	r0, fp
 8004fa4:	f000 fd54 	bl	8005a50 <_Bfree>
 8004fa8:	b155      	cbz	r5, 8004fc0 <_dtoa_r+0x870>
 8004faa:	9902      	ldr	r1, [sp, #8]
 8004fac:	b121      	cbz	r1, 8004fb8 <_dtoa_r+0x868>
 8004fae:	42a9      	cmp	r1, r5
 8004fb0:	d002      	beq.n	8004fb8 <_dtoa_r+0x868>
 8004fb2:	4658      	mov	r0, fp
 8004fb4:	f000 fd4c 	bl	8005a50 <_Bfree>
 8004fb8:	4629      	mov	r1, r5
 8004fba:	4658      	mov	r0, fp
 8004fbc:	f000 fd48 	bl	8005a50 <_Bfree>
 8004fc0:	4651      	mov	r1, sl
 8004fc2:	4658      	mov	r0, fp
 8004fc4:	f000 fd44 	bl	8005a50 <_Bfree>
 8004fc8:	2200      	movs	r2, #0
 8004fca:	9b05      	ldr	r3, [sp, #20]
 8004fcc:	7022      	strb	r2, [r4, #0]
 8004fce:	9a22      	ldr	r2, [sp, #136]	; 0x88
 8004fd0:	3301      	adds	r3, #1
 8004fd2:	6013      	str	r3, [r2, #0]
 8004fd4:	9b24      	ldr	r3, [sp, #144]	; 0x90
 8004fd6:	2b00      	cmp	r3, #0
 8004fd8:	f43f abf2 	beq.w	80047c0 <_dtoa_r+0x70>
 8004fdc:	9804      	ldr	r0, [sp, #16]
 8004fde:	601c      	str	r4, [r3, #0]
 8004fe0:	b017      	add	sp, #92	; 0x5c
 8004fe2:	e8bd 8ff0 	ldmia.w	sp!, {r4, r5, r6, r7, r8, r9, sl, fp, pc}
 8004fe6:	201c      	movs	r0, #28
 8004fe8:	4481      	add	r9, r0
 8004fea:	4404      	add	r4, r0
 8004fec:	4480      	add	r8, r0
 8004fee:	e6fb      	b.n	8004de8 <_dtoa_r+0x698>
 8004ff0:	4601      	mov	r1, r0
 8004ff2:	4658      	mov	r0, fp
 8004ff4:	f000 fec2 	bl	8005d7c <__pow5mult>
 8004ff8:	9b20      	ldr	r3, [sp, #128]	; 0x80
 8004ffa:	2b01      	cmp	r3, #1
 8004ffc:	4606      	mov	r6, r0
 8004ffe:	f340 80f3 	ble.w	80051e8 <_dtoa_r+0xa98>
 8005002:	2300      	movs	r3, #0
 8005004:	9309      	str	r3, [sp, #36]	; 0x24
 8005006:	6933      	ldr	r3, [r6, #16]
 8005008:	eb06 0383 	add.w	r3, r6, r3, lsl #2
 800500c:	6918      	ldr	r0, [r3, #16]
 800500e:	f000 fdb5 	bl	8005b7c <__hi0bits>
 8005012:	f1c0 0020 	rsb	r0, r0, #32
 8005016:	e6d8      	b.n	8004dca <_dtoa_r+0x67a>
 8005018:	900a      	str	r0, [sp, #40]	; 0x28
 800501a:	e43d      	b.n	8004898 <_dtoa_r+0x148>
 800501c:	2501      	movs	r5, #1
 800501e:	e456      	b.n	80048ce <_dtoa_r+0x17e>
 8005020:	f1c3 0620 	rsb	r6, r3, #32
 8005024:	9b02      	ldr	r3, [sp, #8]
 8005026:	fa03 f006 	lsl.w	r0, r3, r6
 800502a:	f7ff bbeb 	b.w	8004804 <_dtoa_r+0xb4>
 800502e:	2300      	movs	r3, #0
 8005030:	9307      	str	r3, [sp, #28]
 8005032:	9b05      	ldr	r3, [sp, #20]
 8005034:	9a21      	ldr	r2, [sp, #132]	; 0x84
 8005036:	4413      	add	r3, r2
 8005038:	930b      	str	r3, [sp, #44]	; 0x2c
 800503a:	3301      	adds	r3, #1
 800503c:	2b01      	cmp	r3, #1
 800503e:	461e      	mov	r6, r3
 8005040:	9306      	str	r3, [sp, #24]
 8005042:	bfb8      	it	lt
 8005044:	2601      	movlt	r6, #1
 8005046:	2100      	movs	r1, #0
 8005048:	2e17      	cmp	r6, #23
 800504a:	f8cb 1044 	str.w	r1, [fp, #68]	; 0x44
 800504e:	9c06      	ldr	r4, [sp, #24]
 8005050:	f77f aca4 	ble.w	800499c <_dtoa_r+0x24c>
 8005054:	2201      	movs	r2, #1
 8005056:	2304      	movs	r3, #4
 8005058:	005b      	lsls	r3, r3, #1
 800505a:	f103 0014 	add.w	r0, r3, #20
 800505e:	42b0      	cmp	r0, r6
 8005060:	4611      	mov	r1, r2
 8005062:	f102 0201 	add.w	r2, r2, #1
 8005066:	d9f7      	bls.n	8005058 <_dtoa_r+0x908>
 8005068:	f8cb 1044 	str.w	r1, [fp, #68]	; 0x44
 800506c:	e496      	b.n	800499c <_dtoa_r+0x24c>
 800506e:	2300      	movs	r3, #0
 8005070:	9307      	str	r3, [sp, #28]
 8005072:	9b21      	ldr	r3, [sp, #132]	; 0x84
 8005074:	2b00      	cmp	r3, #0
 8005076:	f340 80ed 	ble.w	8005254 <_dtoa_r+0xb04>
 800507a:	930b      	str	r3, [sp, #44]	; 0x2c
 800507c:	9306      	str	r3, [sp, #24]
 800507e:	461e      	mov	r6, r3
 8005080:	e7e1      	b.n	8005046 <_dtoa_r+0x8f6>
 8005082:	2301      	movs	r3, #1
 8005084:	9307      	str	r3, [sp, #28]
 8005086:	e7f4      	b.n	8005072 <_dtoa_r+0x922>
 8005088:	9b02      	ldr	r3, [sp, #8]
 800508a:	2b00      	cmp	r3, #0
 800508c:	f47f ae9c 	bne.w	8004dc8 <_dtoa_r+0x678>
 8005090:	e9dd 1202 	ldrd	r1, r2, [sp, #8]
 8005094:	f3c2 0313 	ubfx	r3, r2, #0, #20
 8005098:	2b00      	cmp	r3, #0
 800509a:	f040 8199 	bne.w	80053d0 <_dtoa_r+0xc80>
 800509e:	f022 4300 	bic.w	r3, r2, #2147483648	; 0x80000000
 80050a2:	0d1b      	lsrs	r3, r3, #20
 80050a4:	051b      	lsls	r3, r3, #20
 80050a6:	b123      	cbz	r3, 80050b2 <_dtoa_r+0x962>
 80050a8:	f109 0901 	add.w	r9, r9, #1
 80050ac:	f108 0801 	add.w	r8, r8, #1
 80050b0:	2301      	movs	r3, #1
 80050b2:	9a09      	ldr	r2, [sp, #36]	; 0x24
 80050b4:	9309      	str	r3, [sp, #36]	; 0x24
 80050b6:	2a00      	cmp	r2, #0
 80050b8:	f43f ae86 	beq.w	8004dc8 <_dtoa_r+0x678>
 80050bc:	e7a3      	b.n	8005006 <_dtoa_r+0x8b6>
 80050be:	463a      	mov	r2, r7
 80050c0:	4629      	mov	r1, r5
 80050c2:	4658      	mov	r0, fp
 80050c4:	f000 fe5a 	bl	8005d7c <__pow5mult>
 80050c8:	4652      	mov	r2, sl
 80050ca:	4601      	mov	r1, r0
 80050cc:	4605      	mov	r5, r0
 80050ce:	4658      	mov	r0, fp
 80050d0:	f000 fdae 	bl	8005c30 <__multiply>
 80050d4:	4651      	mov	r1, sl
 80050d6:	4607      	mov	r7, r0
 80050d8:	4658      	mov	r0, fp
 80050da:	f000 fcb9 	bl	8005a50 <_Bfree>
 80050de:	46ba      	mov	sl, r7
 80050e0:	2e00      	cmp	r6, #0
 80050e2:	f43f ae64 	beq.w	8004dae <_dtoa_r+0x65e>
 80050e6:	e65c      	b.n	8004da2 <_dtoa_r+0x652>
 80050e8:	4629      	mov	r1, r5
 80050ea:	4622      	mov	r2, r4
 80050ec:	4658      	mov	r0, fp
 80050ee:	f000 fe95 	bl	8005e1c <__lshift>
 80050f2:	4605      	mov	r5, r0
 80050f4:	e698      	b.n	8004e28 <_dtoa_r+0x6d8>
 80050f6:	d107      	bne.n	8005108 <_dtoa_r+0x9b8>
 80050f8:	f019 0f01 	tst.w	r9, #1
 80050fc:	f47f af40 	bne.w	8004f80 <_dtoa_r+0x830>
 8005100:	e002      	b.n	8005108 <_dtoa_r+0x9b8>
 8005102:	f814 2c02 	ldrb.w	r2, [r4, #-2]
 8005106:	461c      	mov	r4, r3
 8005108:	2a30      	cmp	r2, #48	; 0x30
 800510a:	f104 33ff 	add.w	r3, r4, #4294967295	; 0xffffffff
 800510e:	d0f8      	beq.n	8005102 <_dtoa_r+0x9b2>
 8005110:	e746      	b.n	8004fa0 <_dtoa_r+0x850>
 8005112:	9a12      	ldr	r2, [sp, #72]	; 0x48
 8005114:	2a00      	cmp	r2, #0
 8005116:	f000 8153 	beq.w	80053c0 <_dtoa_r+0xc70>
 800511a:	f203 4333 	addw	r3, r3, #1075	; 0x433
 800511e:	464c      	mov	r4, r9
 8005120:	4498      	add	r8, r3
 8005122:	4499      	add	r9, r3
 8005124:	9f08      	ldr	r7, [sp, #32]
 8005126:	e600      	b.n	8004d2a <_dtoa_r+0x5da>
 8005128:	9b06      	ldr	r3, [sp, #24]
 800512a:	2b00      	cmp	r3, #0
 800512c:	f73f ad49 	bgt.w	8004bc2 <_dtoa_r+0x472>
 8005130:	f040 80bb 	bne.w	80052aa <_dtoa_r+0xb5a>
 8005134:	2200      	movs	r2, #0
 8005136:	4bb2      	ldr	r3, [pc, #712]	; (8005400 <_dtoa_r+0xcb0>)
 8005138:	4640      	mov	r0, r8
 800513a:	4649      	mov	r1, r9
 800513c:	f7fc fdca 	bl	8001cd4 <__aeabi_dmul>
 8005140:	e9dd 2302 	ldrd	r2, r3, [sp, #8]
 8005144:	f7fd f84c 	bl	80021e0 <__aeabi_dcmpge>
 8005148:	9e06      	ldr	r6, [sp, #24]
 800514a:	4635      	mov	r5, r6
 800514c:	2800      	cmp	r0, #0
 800514e:	d175      	bne.n	800523c <_dtoa_r+0xaec>
 8005150:	9a05      	ldr	r2, [sp, #20]
 8005152:	3201      	adds	r2, #1
 8005154:	9205      	str	r2, [sp, #20]
 8005156:	9a04      	ldr	r2, [sp, #16]
 8005158:	2331      	movs	r3, #49	; 0x31
 800515a:	7013      	strb	r3, [r2, #0]
 800515c:	1c54      	adds	r4, r2, #1
 800515e:	4631      	mov	r1, r6
 8005160:	4658      	mov	r0, fp
 8005162:	f000 fc75 	bl	8005a50 <_Bfree>
 8005166:	2d00      	cmp	r5, #0
 8005168:	f47f af26 	bne.w	8004fb8 <_dtoa_r+0x868>
 800516c:	e728      	b.n	8004fc0 <_dtoa_r+0x870>
 800516e:	f000 813f 	beq.w	80053f0 <_dtoa_r+0xca0>
 8005172:	9b05      	ldr	r3, [sp, #20]
 8005174:	425c      	negs	r4, r3
 8005176:	4ba3      	ldr	r3, [pc, #652]	; (8005404 <_dtoa_r+0xcb4>)
 8005178:	f004 020f 	and.w	r2, r4, #15
 800517c:	eb03 03c2 	add.w	r3, r3, r2, lsl #3
 8005180:	e9d3 2300 	ldrd	r2, r3, [r3]
 8005184:	e9dd 010c 	ldrd	r0, r1, [sp, #48]	; 0x30
 8005188:	f7fc fda4 	bl	8001cd4 <__aeabi_dmul>
 800518c:	1124      	asrs	r4, r4, #4
 800518e:	e9cd 0102 	strd	r0, r1, [sp, #8]
 8005192:	f000 81bb 	beq.w	800550c <_dtoa_r+0xdbc>
 8005196:	4d9c      	ldr	r5, [pc, #624]	; (8005408 <_dtoa_r+0xcb8>)
 8005198:	2300      	movs	r3, #0
 800519a:	2602      	movs	r6, #2
 800519c:	07e2      	lsls	r2, r4, #31
 800519e:	d505      	bpl.n	80051ac <_dtoa_r+0xa5c>
 80051a0:	e9d5 2300 	ldrd	r2, r3, [r5]
 80051a4:	f7fc fd96 	bl	8001cd4 <__aeabi_dmul>
 80051a8:	3601      	adds	r6, #1
 80051aa:	2301      	movs	r3, #1
 80051ac:	1064      	asrs	r4, r4, #1
 80051ae:	f105 0508 	add.w	r5, r5, #8
 80051b2:	d1f3      	bne.n	800519c <_dtoa_r+0xa4c>
 80051b4:	2b00      	cmp	r3, #0
 80051b6:	f43f ac39 	beq.w	8004a2c <_dtoa_r+0x2dc>
 80051ba:	e9cd 0102 	strd	r0, r1, [sp, #8]
 80051be:	e435      	b.n	8004a2c <_dtoa_r+0x2dc>
 80051c0:	6869      	ldr	r1, [r5, #4]
 80051c2:	4658      	mov	r0, fp
 80051c4:	f000 fc1e 	bl	8005a04 <_Balloc>
 80051c8:	692b      	ldr	r3, [r5, #16]
 80051ca:	3302      	adds	r3, #2
 80051cc:	009a      	lsls	r2, r3, #2
 80051ce:	4604      	mov	r4, r0
 80051d0:	f105 010c 	add.w	r1, r5, #12
 80051d4:	300c      	adds	r0, #12
 80051d6:	f000 fb7b 	bl	80058d0 <memcpy>
 80051da:	4621      	mov	r1, r4
 80051dc:	2201      	movs	r2, #1
 80051de:	4658      	mov	r0, fp
 80051e0:	f000 fe1c 	bl	8005e1c <__lshift>
 80051e4:	4680      	mov	r8, r0
 80051e6:	e624      	b.n	8004e32 <_dtoa_r+0x6e2>
 80051e8:	9b02      	ldr	r3, [sp, #8]
 80051ea:	2b00      	cmp	r3, #0
 80051ec:	f43f af50 	beq.w	8005090 <_dtoa_r+0x940>
 80051f0:	e707      	b.n	8005002 <_dtoa_r+0x8b2>
 80051f2:	2400      	movs	r4, #0
 80051f4:	f8cb 4044 	str.w	r4, [fp, #68]	; 0x44
 80051f8:	4621      	mov	r1, r4
 80051fa:	4658      	mov	r0, fp
 80051fc:	f000 fc02 	bl	8005a04 <_Balloc>
 8005200:	f04f 33ff 	mov.w	r3, #4294967295	; 0xffffffff
 8005204:	930b      	str	r3, [sp, #44]	; 0x2c
 8005206:	9306      	str	r3, [sp, #24]
 8005208:	2301      	movs	r3, #1
 800520a:	9004      	str	r0, [sp, #16]
 800520c:	9421      	str	r4, [sp, #132]	; 0x84
 800520e:	f8cb 0040 	str.w	r0, [fp, #64]	; 0x40
 8005212:	9307      	str	r3, [sp, #28]
 8005214:	e4c4      	b.n	8004ba0 <_dtoa_r+0x450>
 8005216:	f000 fc25 	bl	8005a64 <__multadd>
 800521a:	4627      	mov	r7, r4
 800521c:	4605      	mov	r5, r0
 800521e:	4680      	mov	r8, r0
 8005220:	e610      	b.n	8004e44 <_dtoa_r+0x6f4>
 8005222:	4658      	mov	r0, fp
 8005224:	f000 fc14 	bl	8005a50 <_Bfree>
 8005228:	2301      	movs	r3, #1
 800522a:	e634      	b.n	8004e96 <_dtoa_r+0x746>
 800522c:	9b20      	ldr	r3, [sp, #128]	; 0x80
 800522e:	2b02      	cmp	r3, #2
 8005230:	f77f adf3 	ble.w	8004e1a <_dtoa_r+0x6ca>
 8005234:	9b06      	ldr	r3, [sp, #24]
 8005236:	2b00      	cmp	r3, #0
 8005238:	f000 80cc 	beq.w	80053d4 <_dtoa_r+0xc84>
 800523c:	9b21      	ldr	r3, [sp, #132]	; 0x84
 800523e:	9c04      	ldr	r4, [sp, #16]
 8005240:	43db      	mvns	r3, r3
 8005242:	9305      	str	r3, [sp, #20]
 8005244:	e78b      	b.n	800515e <_dtoa_r+0xa0e>
 8005246:	9a05      	ldr	r2, [sp, #20]
 8005248:	3201      	adds	r2, #1
 800524a:	9205      	str	r2, [sp, #20]
 800524c:	9a04      	ldr	r2, [sp, #16]
 800524e:	2331      	movs	r3, #49	; 0x31
 8005250:	7013      	strb	r3, [r2, #0]
 8005252:	e6a5      	b.n	8004fa0 <_dtoa_r+0x850>
 8005254:	2401      	movs	r4, #1
 8005256:	9421      	str	r4, [sp, #132]	; 0x84
 8005258:	9406      	str	r4, [sp, #24]
 800525a:	f7ff bb9b 	b.w	8004994 <_dtoa_r+0x244>
 800525e:	4630      	mov	r0, r6
 8005260:	f7fc fcce 	bl	8001c00 <__aeabi_i2d>
 8005264:	e9dd 2302 	ldrd	r2, r3, [sp, #8]
 8005268:	f7fc fd34 	bl	8001cd4 <__aeabi_dmul>
 800526c:	2200      	movs	r2, #0
 800526e:	4b67      	ldr	r3, [pc, #412]	; (800540c <_dtoa_r+0xcbc>)
 8005270:	f7fc fb7a 	bl	8001968 <__adddf3>
 8005274:	4606      	mov	r6, r0
 8005276:	f1a1 7750 	sub.w	r7, r1, #54525952	; 0x3400000
 800527a:	e9dd 0102 	ldrd	r0, r1, [sp, #8]
 800527e:	2200      	movs	r2, #0
 8005280:	4b5f      	ldr	r3, [pc, #380]	; (8005400 <_dtoa_r+0xcb0>)
 8005282:	f7fc fb6f 	bl	8001964 <__aeabi_dsub>
 8005286:	4632      	mov	r2, r6
 8005288:	463b      	mov	r3, r7
 800528a:	e9cd 0102 	strd	r0, r1, [sp, #8]
 800528e:	f7fc ffb1 	bl	80021f4 <__aeabi_dcmpgt>
 8005292:	2800      	cmp	r0, #0
 8005294:	d146      	bne.n	8005324 <_dtoa_r+0xbd4>
 8005296:	4632      	mov	r2, r6
 8005298:	f107 4300 	add.w	r3, r7, #2147483648	; 0x80000000
 800529c:	e9dd 0102 	ldrd	r0, r1, [sp, #8]
 80052a0:	f7fc ff8a 	bl	80021b8 <__aeabi_dcmplt>
 80052a4:	2800      	cmp	r0, #0
 80052a6:	f43f ac77 	beq.w	8004b98 <_dtoa_r+0x448>
 80052aa:	2600      	movs	r6, #0
 80052ac:	4635      	mov	r5, r6
 80052ae:	e7c5      	b.n	800523c <_dtoa_r+0xaec>
 80052b0:	2301      	movs	r3, #1
 80052b2:	9307      	str	r3, [sp, #28]
 80052b4:	e6bd      	b.n	8005032 <_dtoa_r+0x8e2>
 80052b6:	4651      	mov	r1, sl
 80052b8:	9a08      	ldr	r2, [sp, #32]
 80052ba:	4658      	mov	r0, fp
 80052bc:	f000 fd5e 	bl	8005d7c <__pow5mult>
 80052c0:	4682      	mov	sl, r0
 80052c2:	e574      	b.n	8004dae <_dtoa_r+0x65e>
 80052c4:	f8dd a008 	ldr.w	sl, [sp, #8]
 80052c8:	f8dd b018 	ldr.w	fp, [sp, #24]
 80052cc:	e678      	b.n	8004fc0 <_dtoa_r+0x870>
 80052ce:	9b08      	ldr	r3, [sp, #32]
 80052d0:	9a09      	ldr	r2, [sp, #36]	; 0x24
 80052d2:	1afb      	subs	r3, r7, r3
 80052d4:	441a      	add	r2, r3
 80052d6:	e9cd 7208 	strd	r7, r2, [sp, #32]
 80052da:	2700      	movs	r7, #0
 80052dc:	e51e      	b.n	8004d1c <_dtoa_r+0x5cc>
 80052de:	2b00      	cmp	r3, #0
 80052e0:	f107 0401 	add.w	r4, r7, #1
 80052e4:	f300 80bc 	bgt.w	8005460 <_dtoa_r+0xd10>
 80052e8:	9502      	str	r5, [sp, #8]
 80052ea:	f887 9000 	strb.w	r9, [r7]
 80052ee:	4645      	mov	r5, r8
 80052f0:	e656      	b.n	8004fa0 <_dtoa_r+0x850>
 80052f2:	e9dd 230c 	ldrd	r2, r3, [sp, #48]	; 0x30
 80052f6:	2602      	movs	r6, #2
 80052f8:	e9cd 230e 	strd	r2, r3, [sp, #56]	; 0x38
 80052fc:	f7ff bb7d 	b.w	80049fa <_dtoa_r+0x2aa>
 8005300:	f1b9 0f39 	cmp.w	r9, #57	; 0x39
 8005304:	f000 80be 	beq.w	8005484 <_dtoa_r+0xd34>
 8005308:	f109 0901 	add.w	r9, r9, #1
 800530c:	9502      	str	r5, [sp, #8]
 800530e:	f887 9000 	strb.w	r9, [r7]
 8005312:	4645      	mov	r5, r8
 8005314:	e644      	b.n	8004fa0 <_dtoa_r+0x850>
 8005316:	9b06      	ldr	r3, [sp, #24]
 8005318:	eba9 0403 	sub.w	r4, r9, r3
 800531c:	e505      	b.n	8004d2a <_dtoa_r+0x5da>
 800531e:	9502      	str	r5, [sp, #8]
 8005320:	4645      	mov	r5, r8
 8005322:	e61f      	b.n	8004f64 <_dtoa_r+0x814>
 8005324:	2600      	movs	r6, #0
 8005326:	4635      	mov	r5, r6
 8005328:	e712      	b.n	8005150 <_dtoa_r+0xa00>
 800532a:	9a04      	ldr	r2, [sp, #16]
 800532c:	2330      	movs	r3, #48	; 0x30
 800532e:	7013      	strb	r3, [r2, #0]
 8005330:	9b05      	ldr	r3, [sp, #20]
 8005332:	f814 5c01 	ldrb.w	r5, [r4, #-1]
 8005336:	3301      	adds	r3, #1
 8005338:	9305      	str	r3, [sp, #20]
 800533a:	4613      	mov	r3, r2
 800533c:	e4de      	b.n	8004cfc <_dtoa_r+0x5ac>
 800533e:	e9dd 0102 	ldrd	r0, r1, [sp, #8]
 8005342:	f7fc fcc7 	bl	8001cd4 <__aeabi_dmul>
 8005346:	9b04      	ldr	r3, [sp, #16]
 8005348:	701d      	strb	r5, [r3, #0]
 800534a:	9b0e      	ldr	r3, [sp, #56]	; 0x38
 800534c:	2b01      	cmp	r3, #1
 800534e:	e9cd 0102 	strd	r0, r1, [sp, #8]
 8005352:	d023      	beq.n	800539c <_dtoa_r+0xc4c>
 8005354:	9b0e      	ldr	r3, [sp, #56]	; 0x38
 8005356:	9a04      	ldr	r2, [sp, #16]
 8005358:	f8cd 9038 	str.w	r9, [sp, #56]	; 0x38
 800535c:	4413      	add	r3, r2
 800535e:	46c1      	mov	r9, r8
 8005360:	4698      	mov	r8, r3
 8005362:	2200      	movs	r2, #0
 8005364:	4b2a      	ldr	r3, [pc, #168]	; (8005410 <_dtoa_r+0xcc0>)
 8005366:	4630      	mov	r0, r6
 8005368:	4639      	mov	r1, r7
 800536a:	f7fc fcb3 	bl	8001cd4 <__aeabi_dmul>
 800536e:	460f      	mov	r7, r1
 8005370:	4606      	mov	r6, r0
 8005372:	f7fc ff5f 	bl	8002234 <__aeabi_d2iz>
 8005376:	4605      	mov	r5, r0
 8005378:	f7fc fc42 	bl	8001c00 <__aeabi_i2d>
 800537c:	3530      	adds	r5, #48	; 0x30
 800537e:	4602      	mov	r2, r0
 8005380:	460b      	mov	r3, r1
 8005382:	4630      	mov	r0, r6
 8005384:	4639      	mov	r1, r7
 8005386:	f7fc faed 	bl	8001964 <__aeabi_dsub>
 800538a:	f804 5b01 	strb.w	r5, [r4], #1
 800538e:	4544      	cmp	r4, r8
 8005390:	4606      	mov	r6, r0
 8005392:	460f      	mov	r7, r1
 8005394:	d1e5      	bne.n	8005362 <_dtoa_r+0xc12>
 8005396:	46c8      	mov	r8, r9
 8005398:	f8dd 9038 	ldr.w	r9, [sp, #56]	; 0x38
 800539c:	4b1d      	ldr	r3, [pc, #116]	; (8005414 <_dtoa_r+0xcc4>)
 800539e:	2200      	movs	r2, #0
 80053a0:	e9dd 0102 	ldrd	r0, r1, [sp, #8]
 80053a4:	f7fc fae0 	bl	8001968 <__adddf3>
 80053a8:	4632      	mov	r2, r6
 80053aa:	463b      	mov	r3, r7
 80053ac:	f7fc ff04 	bl	80021b8 <__aeabi_dcmplt>
 80053b0:	2800      	cmp	r0, #0
 80053b2:	d06d      	beq.n	8005490 <_dtoa_r+0xd40>
 80053b4:	9b13      	ldr	r3, [sp, #76]	; 0x4c
 80053b6:	9305      	str	r3, [sp, #20]
 80053b8:	f814 5c01 	ldrb.w	r5, [r4, #-1]
 80053bc:	9a04      	ldr	r2, [sp, #16]
 80053be:	e499      	b.n	8004cf4 <_dtoa_r+0x5a4>
 80053c0:	9b14      	ldr	r3, [sp, #80]	; 0x50
 80053c2:	9f08      	ldr	r7, [sp, #32]
 80053c4:	f1c3 0336 	rsb	r3, r3, #54	; 0x36
 80053c8:	464c      	mov	r4, r9
 80053ca:	4498      	add	r8, r3
 80053cc:	4499      	add	r9, r3
 80053ce:	e4ac      	b.n	8004d2a <_dtoa_r+0x5da>
 80053d0:	2300      	movs	r3, #0
 80053d2:	e66e      	b.n	80050b2 <_dtoa_r+0x962>
 80053d4:	4631      	mov	r1, r6
 80053d6:	2205      	movs	r2, #5
 80053d8:	4658      	mov	r0, fp
 80053da:	f000 fb43 	bl	8005a64 <__multadd>
 80053de:	4601      	mov	r1, r0
 80053e0:	4606      	mov	r6, r0
 80053e2:	4650      	mov	r0, sl
 80053e4:	f000 fd70 	bl	8005ec8 <__mcmp>
 80053e8:	2800      	cmp	r0, #0
 80053ea:	f73f aeb1 	bgt.w	8005150 <_dtoa_r+0xa00>
 80053ee:	e725      	b.n	800523c <_dtoa_r+0xaec>
 80053f0:	e9dd 340c 	ldrd	r3, r4, [sp, #48]	; 0x30
 80053f4:	2602      	movs	r6, #2
 80053f6:	e9cd 3402 	strd	r3, r4, [sp, #8]
 80053fa:	f7ff bb17 	b.w	8004a2c <_dtoa_r+0x2dc>
 80053fe:	bf00      	nop
 8005400:	40140000 	.word	0x40140000
 8005404:	08007c70 	.word	0x08007c70
 8005408:	08007c48 	.word	0x08007c48
 800540c:	401c0000 	.word	0x401c0000
 8005410:	40240000 	.word	0x40240000
 8005414:	3fe00000 	.word	0x3fe00000
 8005418:	9b06      	ldr	r3, [sp, #24]
 800541a:	2b00      	cmp	r3, #0
 800541c:	f43f af1f 	beq.w	800525e <_dtoa_r+0xb0e>
 8005420:	9c0b      	ldr	r4, [sp, #44]	; 0x2c
 8005422:	2c00      	cmp	r4, #0
 8005424:	f77f abb8 	ble.w	8004b98 <_dtoa_r+0x448>
 8005428:	2200      	movs	r2, #0
 800542a:	4b42      	ldr	r3, [pc, #264]	; (8005534 <_dtoa_r+0xde4>)
 800542c:	e9dd 0102 	ldrd	r0, r1, [sp, #8]
 8005430:	f7fc fc50 	bl	8001cd4 <__aeabi_dmul>
 8005434:	e9cd 0102 	strd	r0, r1, [sp, #8]
 8005438:	1c70      	adds	r0, r6, #1
 800543a:	f7fc fbe1 	bl	8001c00 <__aeabi_i2d>
 800543e:	e9dd 2302 	ldrd	r2, r3, [sp, #8]
 8005442:	f7fc fc47 	bl	8001cd4 <__aeabi_dmul>
 8005446:	4b3c      	ldr	r3, [pc, #240]	; (8005538 <_dtoa_r+0xde8>)
 8005448:	2200      	movs	r2, #0
 800544a:	f7fc fa8d 	bl	8001968 <__adddf3>
 800544e:	9b05      	ldr	r3, [sp, #20]
 8005450:	940e      	str	r4, [sp, #56]	; 0x38
 8005452:	3b01      	subs	r3, #1
 8005454:	4606      	mov	r6, r0
 8005456:	f1a1 7750 	sub.w	r7, r1, #54525952	; 0x3400000
 800545a:	9313      	str	r3, [sp, #76]	; 0x4c
 800545c:	f7ff bb07 	b.w	8004a6e <_dtoa_r+0x31e>
 8005460:	4651      	mov	r1, sl
 8005462:	2201      	movs	r2, #1
 8005464:	4658      	mov	r0, fp
 8005466:	f000 fcd9 	bl	8005e1c <__lshift>
 800546a:	4631      	mov	r1, r6
 800546c:	4682      	mov	sl, r0
 800546e:	f000 fd2b 	bl	8005ec8 <__mcmp>
 8005472:	2800      	cmp	r0, #0
 8005474:	dd32      	ble.n	80054dc <_dtoa_r+0xd8c>
 8005476:	f1b9 0f39 	cmp.w	r9, #57	; 0x39
 800547a:	d003      	beq.n	8005484 <_dtoa_r+0xd34>
 800547c:	9b08      	ldr	r3, [sp, #32]
 800547e:	f103 0931 	add.w	r9, r3, #49	; 0x31
 8005482:	e731      	b.n	80052e8 <_dtoa_r+0xb98>
 8005484:	2239      	movs	r2, #57	; 0x39
 8005486:	9502      	str	r5, [sp, #8]
 8005488:	703a      	strb	r2, [r7, #0]
 800548a:	4645      	mov	r5, r8
 800548c:	9904      	ldr	r1, [sp, #16]
 800548e:	e581      	b.n	8004f94 <_dtoa_r+0x844>
 8005490:	e9dd 2302 	ldrd	r2, r3, [sp, #8]
 8005494:	2000      	movs	r0, #0
 8005496:	4929      	ldr	r1, [pc, #164]	; (800553c <_dtoa_r+0xdec>)
 8005498:	f7fc fa64 	bl	8001964 <__aeabi_dsub>
 800549c:	4632      	mov	r2, r6
 800549e:	463b      	mov	r3, r7
 80054a0:	f7fc fea8 	bl	80021f4 <__aeabi_dcmpgt>
 80054a4:	b910      	cbnz	r0, 80054ac <_dtoa_r+0xd5c>
 80054a6:	f7ff bb77 	b.w	8004b98 <_dtoa_r+0x448>
 80054aa:	4614      	mov	r4, r2
 80054ac:	f814 3c01 	ldrb.w	r3, [r4, #-1]
 80054b0:	2b30      	cmp	r3, #48	; 0x30
 80054b2:	f104 32ff 	add.w	r2, r4, #4294967295	; 0xffffffff
 80054b6:	d0f8      	beq.n	80054aa <_dtoa_r+0xd5a>
 80054b8:	9b13      	ldr	r3, [sp, #76]	; 0x4c
 80054ba:	9305      	str	r3, [sp, #20]
 80054bc:	e580      	b.n	8004fc0 <_dtoa_r+0x870>
 80054be:	f8dd a008 	ldr.w	sl, [sp, #8]
 80054c2:	9b13      	ldr	r3, [sp, #76]	; 0x4c
 80054c4:	9305      	str	r3, [sp, #20]
 80054c6:	9a04      	ldr	r2, [sp, #16]
 80054c8:	e414      	b.n	8004cf4 <_dtoa_r+0x5a4>
 80054ca:	f1b9 0f39 	cmp.w	r9, #57	; 0x39
 80054ce:	f107 0401 	add.w	r4, r7, #1
 80054d2:	d0d7      	beq.n	8005484 <_dtoa_r+0xd34>
 80054d4:	9b02      	ldr	r3, [sp, #8]
 80054d6:	2b00      	cmp	r3, #0
 80054d8:	dcd0      	bgt.n	800547c <_dtoa_r+0xd2c>
 80054da:	e705      	b.n	80052e8 <_dtoa_r+0xb98>
 80054dc:	f47f af04 	bne.w	80052e8 <_dtoa_r+0xb98>
 80054e0:	f019 0f01 	tst.w	r9, #1
 80054e4:	f43f af00 	beq.w	80052e8 <_dtoa_r+0xb98>
 80054e8:	e7c5      	b.n	8005476 <_dtoa_r+0xd26>
 80054ea:	4629      	mov	r1, r5
 80054ec:	2300      	movs	r3, #0
 80054ee:	220a      	movs	r2, #10
 80054f0:	4658      	mov	r0, fp
 80054f2:	f000 fab7 	bl	8005a64 <__multadd>
 80054f6:	9b0b      	ldr	r3, [sp, #44]	; 0x2c
 80054f8:	2b00      	cmp	r3, #0
 80054fa:	4605      	mov	r5, r0
 80054fc:	dd09      	ble.n	8005512 <_dtoa_r+0xdc2>
 80054fe:	9306      	str	r3, [sp, #24]
 8005500:	e48f      	b.n	8004e22 <_dtoa_r+0x6d2>
 8005502:	9b20      	ldr	r3, [sp, #128]	; 0x80
 8005504:	2b02      	cmp	r3, #2
 8005506:	dc09      	bgt.n	800551c <_dtoa_r+0xdcc>
 8005508:	9b0b      	ldr	r3, [sp, #44]	; 0x2c
 800550a:	e50e      	b.n	8004f2a <_dtoa_r+0x7da>
 800550c:	2602      	movs	r6, #2
 800550e:	f7ff ba8d 	b.w	8004a2c <_dtoa_r+0x2dc>
 8005512:	9b20      	ldr	r3, [sp, #128]	; 0x80
 8005514:	2b02      	cmp	r3, #2
 8005516:	dc01      	bgt.n	800551c <_dtoa_r+0xdcc>
 8005518:	9b0b      	ldr	r3, [sp, #44]	; 0x2c
 800551a:	e7f0      	b.n	80054fe <_dtoa_r+0xdae>
 800551c:	9b0b      	ldr	r3, [sp, #44]	; 0x2c
 800551e:	9306      	str	r3, [sp, #24]
 8005520:	e688      	b.n	8005234 <_dtoa_r+0xae4>
 8005522:	4b07      	ldr	r3, [pc, #28]	; (8005540 <_dtoa_r+0xdf0>)
 8005524:	9304      	str	r3, [sp, #16]
 8005526:	f7ff b94b 	b.w	80047c0 <_dtoa_r+0x70>
 800552a:	f43f ac5d 	beq.w	8004de8 <_dtoa_r+0x698>
 800552e:	f1c0 003c 	rsb	r0, r0, #60	; 0x3c
 8005532:	e559      	b.n	8004fe8 <_dtoa_r+0x898>
 8005534:	40240000 	.word	0x40240000
 8005538:	401c0000 	.word	0x401c0000
 800553c:	3fe00000 	.word	0x3fe00000
 8005540:	08007c38 	.word	0x08007c38

08005544 <_malloc_trim_r>:
 8005544:	b5f8      	push	{r3, r4, r5, r6, r7, lr}
 8005546:	4f24      	ldr	r7, [pc, #144]	; (80055d8 <_malloc_trim_r+0x94>)
 8005548:	460c      	mov	r4, r1
 800554a:	4606      	mov	r6, r0
 800554c:	f7fd f9ee 	bl	800292c <__malloc_lock>
 8005550:	68bb      	ldr	r3, [r7, #8]
 8005552:	685d      	ldr	r5, [r3, #4]
 8005554:	f5c4 617e 	rsb	r1, r4, #4064	; 0xfe0
 8005558:	310f      	adds	r1, #15
 800555a:	f025 0503 	bic.w	r5, r5, #3
 800555e:	4429      	add	r1, r5
 8005560:	f421 617f 	bic.w	r1, r1, #4080	; 0xff0
 8005564:	f021 010f 	bic.w	r1, r1, #15
 8005568:	f5a1 5480 	sub.w	r4, r1, #4096	; 0x1000
 800556c:	f5b4 5f80 	cmp.w	r4, #4096	; 0x1000
 8005570:	db07      	blt.n	8005582 <_malloc_trim_r+0x3e>
 8005572:	2100      	movs	r1, #0
 8005574:	4630      	mov	r0, r6
 8005576:	f7fd f9e5 	bl	8002944 <_sbrk_r>
 800557a:	68bb      	ldr	r3, [r7, #8]
 800557c:	442b      	add	r3, r5
 800557e:	4298      	cmp	r0, r3
 8005580:	d004      	beq.n	800558c <_malloc_trim_r+0x48>
 8005582:	4630      	mov	r0, r6
 8005584:	f7fd f9d8 	bl	8002938 <__malloc_unlock>
 8005588:	2000      	movs	r0, #0
 800558a:	bdf8      	pop	{r3, r4, r5, r6, r7, pc}
 800558c:	4261      	negs	r1, r4
 800558e:	4630      	mov	r0, r6
 8005590:	f7fd f9d8 	bl	8002944 <_sbrk_r>
 8005594:	3001      	adds	r0, #1
 8005596:	d00d      	beq.n	80055b4 <_malloc_trim_r+0x70>
 8005598:	4b10      	ldr	r3, [pc, #64]	; (80055dc <_malloc_trim_r+0x98>)
 800559a:	68ba      	ldr	r2, [r7, #8]
 800559c:	6819      	ldr	r1, [r3, #0]
 800559e:	1b2d      	subs	r5, r5, r4
 80055a0:	f045 0501 	orr.w	r5, r5, #1
 80055a4:	4630      	mov	r0, r6
 80055a6:	1b09      	subs	r1, r1, r4
 80055a8:	6055      	str	r5, [r2, #4]
 80055aa:	6019      	str	r1, [r3, #0]
 80055ac:	f7fd f9c4 	bl	8002938 <__malloc_unlock>
 80055b0:	2001      	movs	r0, #1
 80055b2:	bdf8      	pop	{r3, r4, r5, r6, r7, pc}
 80055b4:	2100      	movs	r1, #0
 80055b6:	4630      	mov	r0, r6
 80055b8:	f7fd f9c4 	bl	8002944 <_sbrk_r>
 80055bc:	68ba      	ldr	r2, [r7, #8]
 80055be:	1a83      	subs	r3, r0, r2
 80055c0:	2b0f      	cmp	r3, #15
 80055c2:	ddde      	ble.n	8005582 <_malloc_trim_r+0x3e>
 80055c4:	4c06      	ldr	r4, [pc, #24]	; (80055e0 <_malloc_trim_r+0x9c>)
 80055c6:	4905      	ldr	r1, [pc, #20]	; (80055dc <_malloc_trim_r+0x98>)
 80055c8:	6824      	ldr	r4, [r4, #0]
 80055ca:	f043 0301 	orr.w	r3, r3, #1
 80055ce:	1b00      	subs	r0, r0, r4
 80055d0:	6053      	str	r3, [r2, #4]
 80055d2:	6008      	str	r0, [r1, #0]
 80055d4:	e7d5      	b.n	8005582 <_malloc_trim_r+0x3e>
 80055d6:	bf00      	nop
 80055d8:	20000430 	.word	0x20000430
 80055dc:	200009e0 	.word	0x200009e0
 80055e0:	20000838 	.word	0x20000838

080055e4 <_free_r>:
 80055e4:	2900      	cmp	r1, #0
 80055e6:	d053      	beq.n	8005690 <_free_r+0xac>
 80055e8:	b5f8      	push	{r3, r4, r5, r6, r7, lr}
 80055ea:	460c      	mov	r4, r1
 80055ec:	4606      	mov	r6, r0
 80055ee:	f7fd f99d 	bl	800292c <__malloc_lock>
 80055f2:	f854 cc04 	ldr.w	ip, [r4, #-4]
 80055f6:	4f71      	ldr	r7, [pc, #452]	; (80057bc <_free_r+0x1d8>)
 80055f8:	f02c 0101 	bic.w	r1, ip, #1
 80055fc:	f1a4 0508 	sub.w	r5, r4, #8
 8005600:	186b      	adds	r3, r5, r1
 8005602:	68b8      	ldr	r0, [r7, #8]
 8005604:	685a      	ldr	r2, [r3, #4]
 8005606:	4298      	cmp	r0, r3
 8005608:	f022 0203 	bic.w	r2, r2, #3
 800560c:	d053      	beq.n	80056b6 <_free_r+0xd2>
 800560e:	f01c 0f01 	tst.w	ip, #1
 8005612:	605a      	str	r2, [r3, #4]
 8005614:	eb03 0002 	add.w	r0, r3, r2
 8005618:	d13b      	bne.n	8005692 <_free_r+0xae>
 800561a:	f854 cc08 	ldr.w	ip, [r4, #-8]
 800561e:	6840      	ldr	r0, [r0, #4]
 8005620:	eba5 050c 	sub.w	r5, r5, ip
 8005624:	f107 0e08 	add.w	lr, r7, #8
 8005628:	68ac      	ldr	r4, [r5, #8]
 800562a:	4574      	cmp	r4, lr
 800562c:	4461      	add	r1, ip
 800562e:	f000 0001 	and.w	r0, r0, #1
 8005632:	d075      	beq.n	8005720 <_free_r+0x13c>
 8005634:	f8d5 c00c 	ldr.w	ip, [r5, #12]
 8005638:	f8c4 c00c 	str.w	ip, [r4, #12]
 800563c:	f8cc 4008 	str.w	r4, [ip, #8]
 8005640:	b360      	cbz	r0, 800569c <_free_r+0xb8>
 8005642:	f041 0301 	orr.w	r3, r1, #1
 8005646:	606b      	str	r3, [r5, #4]
 8005648:	5069      	str	r1, [r5, r1]
 800564a:	f5b1 7f00 	cmp.w	r1, #512	; 0x200
 800564e:	d350      	bcc.n	80056f2 <_free_r+0x10e>
 8005650:	0a4b      	lsrs	r3, r1, #9
 8005652:	2b04      	cmp	r3, #4
 8005654:	d870      	bhi.n	8005738 <_free_r+0x154>
 8005656:	098b      	lsrs	r3, r1, #6
 8005658:	f103 0439 	add.w	r4, r3, #57	; 0x39
 800565c:	00e4      	lsls	r4, r4, #3
 800565e:	f103 0238 	add.w	r2, r3, #56	; 0x38
 8005662:	1938      	adds	r0, r7, r4
 8005664:	593b      	ldr	r3, [r7, r4]
 8005666:	3808      	subs	r0, #8
 8005668:	4298      	cmp	r0, r3
 800566a:	d078      	beq.n	800575e <_free_r+0x17a>
 800566c:	685a      	ldr	r2, [r3, #4]
 800566e:	f022 0203 	bic.w	r2, r2, #3
 8005672:	428a      	cmp	r2, r1
 8005674:	d971      	bls.n	800575a <_free_r+0x176>
 8005676:	689b      	ldr	r3, [r3, #8]
 8005678:	4298      	cmp	r0, r3
 800567a:	d1f7      	bne.n	800566c <_free_r+0x88>
 800567c:	68c3      	ldr	r3, [r0, #12]
 800567e:	e9c5 0302 	strd	r0, r3, [r5, #8]
 8005682:	609d      	str	r5, [r3, #8]
 8005684:	60c5      	str	r5, [r0, #12]
 8005686:	4630      	mov	r0, r6
 8005688:	e8bd 40f8 	ldmia.w	sp!, {r3, r4, r5, r6, r7, lr}
 800568c:	f7fd b954 	b.w	8002938 <__malloc_unlock>
 8005690:	4770      	bx	lr
 8005692:	6840      	ldr	r0, [r0, #4]
 8005694:	f000 0001 	and.w	r0, r0, #1
 8005698:	2800      	cmp	r0, #0
 800569a:	d1d2      	bne.n	8005642 <_free_r+0x5e>
 800569c:	6898      	ldr	r0, [r3, #8]
 800569e:	4c48      	ldr	r4, [pc, #288]	; (80057c0 <_free_r+0x1dc>)
 80056a0:	4411      	add	r1, r2
 80056a2:	42a0      	cmp	r0, r4
 80056a4:	f041 0201 	orr.w	r2, r1, #1
 80056a8:	d062      	beq.n	8005770 <_free_r+0x18c>
 80056aa:	68db      	ldr	r3, [r3, #12]
 80056ac:	60c3      	str	r3, [r0, #12]
 80056ae:	6098      	str	r0, [r3, #8]
 80056b0:	606a      	str	r2, [r5, #4]
 80056b2:	5069      	str	r1, [r5, r1]
 80056b4:	e7c9      	b.n	800564a <_free_r+0x66>
 80056b6:	f01c 0f01 	tst.w	ip, #1
 80056ba:	440a      	add	r2, r1
 80056bc:	d107      	bne.n	80056ce <_free_r+0xea>
 80056be:	f854 3c08 	ldr.w	r3, [r4, #-8]
 80056c2:	1aed      	subs	r5, r5, r3
 80056c4:	441a      	add	r2, r3
 80056c6:	e9d5 1302 	ldrd	r1, r3, [r5, #8]
 80056ca:	60cb      	str	r3, [r1, #12]
 80056cc:	6099      	str	r1, [r3, #8]
 80056ce:	4b3d      	ldr	r3, [pc, #244]	; (80057c4 <_free_r+0x1e0>)
 80056d0:	681b      	ldr	r3, [r3, #0]
 80056d2:	f042 0101 	orr.w	r1, r2, #1
 80056d6:	4293      	cmp	r3, r2
 80056d8:	6069      	str	r1, [r5, #4]
 80056da:	60bd      	str	r5, [r7, #8]
 80056dc:	d804      	bhi.n	80056e8 <_free_r+0x104>
 80056de:	4b3a      	ldr	r3, [pc, #232]	; (80057c8 <_free_r+0x1e4>)
 80056e0:	4630      	mov	r0, r6
 80056e2:	6819      	ldr	r1, [r3, #0]
 80056e4:	f7ff ff2e 	bl	8005544 <_malloc_trim_r>
 80056e8:	4630      	mov	r0, r6
 80056ea:	e8bd 40f8 	ldmia.w	sp!, {r3, r4, r5, r6, r7, lr}
 80056ee:	f7fd b923 	b.w	8002938 <__malloc_unlock>
 80056f2:	08c9      	lsrs	r1, r1, #3
 80056f4:	6878      	ldr	r0, [r7, #4]
 80056f6:	1c4a      	adds	r2, r1, #1
 80056f8:	2301      	movs	r3, #1
 80056fa:	1089      	asrs	r1, r1, #2
 80056fc:	408b      	lsls	r3, r1
 80056fe:	4303      	orrs	r3, r0
 8005700:	eb07 01c2 	add.w	r1, r7, r2, lsl #3
 8005704:	f857 0032 	ldr.w	r0, [r7, r2, lsl #3]
 8005708:	607b      	str	r3, [r7, #4]
 800570a:	3908      	subs	r1, #8
 800570c:	e9c5 0102 	strd	r0, r1, [r5, #8]
 8005710:	f847 5032 	str.w	r5, [r7, r2, lsl #3]
 8005714:	60c5      	str	r5, [r0, #12]
 8005716:	4630      	mov	r0, r6
 8005718:	e8bd 40f8 	ldmia.w	sp!, {r3, r4, r5, r6, r7, lr}
 800571c:	f7fd b90c 	b.w	8002938 <__malloc_unlock>
 8005720:	2800      	cmp	r0, #0
 8005722:	d145      	bne.n	80057b0 <_free_r+0x1cc>
 8005724:	440a      	add	r2, r1
 8005726:	e9d3 1302 	ldrd	r1, r3, [r3, #8]
 800572a:	f042 0001 	orr.w	r0, r2, #1
 800572e:	60cb      	str	r3, [r1, #12]
 8005730:	6099      	str	r1, [r3, #8]
 8005732:	6068      	str	r0, [r5, #4]
 8005734:	50aa      	str	r2, [r5, r2]
 8005736:	e7d7      	b.n	80056e8 <_free_r+0x104>
 8005738:	2b14      	cmp	r3, #20
 800573a:	d908      	bls.n	800574e <_free_r+0x16a>
 800573c:	2b54      	cmp	r3, #84	; 0x54
 800573e:	d81e      	bhi.n	800577e <_free_r+0x19a>
 8005740:	0b0b      	lsrs	r3, r1, #12
 8005742:	f103 046f 	add.w	r4, r3, #111	; 0x6f
 8005746:	00e4      	lsls	r4, r4, #3
 8005748:	f103 026e 	add.w	r2, r3, #110	; 0x6e
 800574c:	e789      	b.n	8005662 <_free_r+0x7e>
 800574e:	f103 045c 	add.w	r4, r3, #92	; 0x5c
 8005752:	00e4      	lsls	r4, r4, #3
 8005754:	f103 025b 	add.w	r2, r3, #91	; 0x5b
 8005758:	e783      	b.n	8005662 <_free_r+0x7e>
 800575a:	4618      	mov	r0, r3
 800575c:	e78e      	b.n	800567c <_free_r+0x98>
 800575e:	1093      	asrs	r3, r2, #2
 8005760:	6879      	ldr	r1, [r7, #4]
 8005762:	2201      	movs	r2, #1
 8005764:	fa02 f303 	lsl.w	r3, r2, r3
 8005768:	430b      	orrs	r3, r1
 800576a:	607b      	str	r3, [r7, #4]
 800576c:	4603      	mov	r3, r0
 800576e:	e786      	b.n	800567e <_free_r+0x9a>
 8005770:	e9c7 5504 	strd	r5, r5, [r7, #16]
 8005774:	e9c5 0002 	strd	r0, r0, [r5, #8]
 8005778:	606a      	str	r2, [r5, #4]
 800577a:	5069      	str	r1, [r5, r1]
 800577c:	e7b4      	b.n	80056e8 <_free_r+0x104>
 800577e:	f5b3 7faa 	cmp.w	r3, #340	; 0x154
 8005782:	d806      	bhi.n	8005792 <_free_r+0x1ae>
 8005784:	0bcb      	lsrs	r3, r1, #15
 8005786:	f103 0478 	add.w	r4, r3, #120	; 0x78
 800578a:	00e4      	lsls	r4, r4, #3
 800578c:	f103 0277 	add.w	r2, r3, #119	; 0x77
 8005790:	e767      	b.n	8005662 <_free_r+0x7e>
 8005792:	f240 5254 	movw	r2, #1364	; 0x554
 8005796:	4293      	cmp	r3, r2
 8005798:	d806      	bhi.n	80057a8 <_free_r+0x1c4>
 800579a:	0c8b      	lsrs	r3, r1, #18
 800579c:	f103 047d 	add.w	r4, r3, #125	; 0x7d
 80057a0:	00e4      	lsls	r4, r4, #3
 80057a2:	f103 027c 	add.w	r2, r3, #124	; 0x7c
 80057a6:	e75c      	b.n	8005662 <_free_r+0x7e>
 80057a8:	f44f 747e 	mov.w	r4, #1016	; 0x3f8
 80057ac:	227e      	movs	r2, #126	; 0x7e
 80057ae:	e758      	b.n	8005662 <_free_r+0x7e>
 80057b0:	f041 0201 	orr.w	r2, r1, #1
 80057b4:	606a      	str	r2, [r5, #4]
 80057b6:	6019      	str	r1, [r3, #0]
 80057b8:	e796      	b.n	80056e8 <_free_r+0x104>
 80057ba:	bf00      	nop
 80057bc:	20000430 	.word	0x20000430
 80057c0:	20000438 	.word	0x20000438
 80057c4:	2000083c 	.word	0x2000083c
 80057c8:	20000a10 	.word	0x20000a10

080057cc <__localeconv_l>:
 80057cc:	30f0      	adds	r0, #240	; 0xf0
 80057ce:	4770      	bx	lr

080057d0 <_localeconv_r>:
 80057d0:	4a04      	ldr	r2, [pc, #16]	; (80057e4 <_localeconv_r+0x14>)
 80057d2:	4b05      	ldr	r3, [pc, #20]	; (80057e8 <_localeconv_r+0x18>)
 80057d4:	6812      	ldr	r2, [r2, #0]
 80057d6:	6b50      	ldr	r0, [r2, #52]	; 0x34
 80057d8:	2800      	cmp	r0, #0
 80057da:	bf08      	it	eq
 80057dc:	4618      	moveq	r0, r3
 80057de:	30f0      	adds	r0, #240	; 0xf0
 80057e0:	4770      	bx	lr
 80057e2:	bf00      	nop
 80057e4:	20000004 	.word	0x20000004
 80057e8:	20000840 	.word	0x20000840

080057ec <localeconv>:
 80057ec:	4a04      	ldr	r2, [pc, #16]	; (8005800 <localeconv+0x14>)
 80057ee:	4b05      	ldr	r3, [pc, #20]	; (8005804 <localeconv+0x18>)
 80057f0:	6812      	ldr	r2, [r2, #0]
 80057f2:	6b50      	ldr	r0, [r2, #52]	; 0x34
 80057f4:	2800      	cmp	r0, #0
 80057f6:	bf08      	it	eq
 80057f8:	4618      	moveq	r0, r3
 80057fa:	30f0      	adds	r0, #240	; 0xf0
 80057fc:	4770      	bx	lr
 80057fe:	bf00      	nop
 8005800:	20000004 	.word	0x20000004
 8005804:	20000840 	.word	0x20000840

08005808 <__retarget_lock_init>:
 8005808:	4770      	bx	lr
 800580a:	bf00      	nop

0800580c <__retarget_lock_init_recursive>:
 800580c:	4770      	bx	lr
 800580e:	bf00      	nop

08005810 <__retarget_lock_close>:
 8005810:	4770      	bx	lr
 8005812:	bf00      	nop

08005814 <__retarget_lock_close_recursive>:
 8005814:	4770      	bx	lr
 8005816:	bf00      	nop

08005818 <__retarget_lock_acquire>:
 8005818:	4770      	bx	lr
 800581a:	bf00      	nop

0800581c <__retarget_lock_acquire_recursive>:
 800581c:	4770      	bx	lr
 800581e:	bf00      	nop

08005820 <__retarget_lock_try_acquire>:
 8005820:	2001      	movs	r0, #1
 8005822:	4770      	bx	lr

08005824 <__retarget_lock_try_acquire_recursive>:
 8005824:	2001      	movs	r0, #1
 8005826:	4770      	bx	lr

08005828 <__retarget_lock_release>:
 8005828:	4770      	bx	lr
 800582a:	bf00      	nop

0800582c <__retarget_lock_release_recursive>:
 800582c:	4770      	bx	lr
 800582e:	bf00      	nop

08005830 <memchr>:
 8005830:	f001 01ff 	and.w	r1, r1, #255	; 0xff
 8005834:	2a10      	cmp	r2, #16
 8005836:	db2b      	blt.n	8005890 <memchr+0x60>
 8005838:	f010 0f07 	tst.w	r0, #7
 800583c:	d008      	beq.n	8005850 <memchr+0x20>
 800583e:	f810 3b01 	ldrb.w	r3, [r0], #1
 8005842:	3a01      	subs	r2, #1
 8005844:	428b      	cmp	r3, r1
 8005846:	d02d      	beq.n	80058a4 <memchr+0x74>
 8005848:	f010 0f07 	tst.w	r0, #7
 800584c:	b342      	cbz	r2, 80058a0 <memchr+0x70>
 800584e:	d1f6      	bne.n	800583e <memchr+0xe>
 8005850:	b4f0      	push	{r4, r5, r6, r7}
 8005852:	ea41 2101 	orr.w	r1, r1, r1, lsl #8
 8005856:	ea41 4101 	orr.w	r1, r1, r1, lsl #16
 800585a:	f022 0407 	bic.w	r4, r2, #7
 800585e:	f07f 0700 	mvns.w	r7, #0
 8005862:	2300      	movs	r3, #0
 8005864:	e8f0 5602 	ldrd	r5, r6, [r0], #8
 8005868:	3c08      	subs	r4, #8
 800586a:	ea85 0501 	eor.w	r5, r5, r1
 800586e:	ea86 0601 	eor.w	r6, r6, r1
 8005872:	fa85 f547 	uadd8	r5, r5, r7
 8005876:	faa3 f587 	sel	r5, r3, r7
 800587a:	fa86 f647 	uadd8	r6, r6, r7
 800587e:	faa5 f687 	sel	r6, r5, r7
 8005882:	b98e      	cbnz	r6, 80058a8 <memchr+0x78>
 8005884:	d1ee      	bne.n	8005864 <memchr+0x34>
 8005886:	bcf0      	pop	{r4, r5, r6, r7}
 8005888:	f001 01ff 	and.w	r1, r1, #255	; 0xff
 800588c:	f002 0207 	and.w	r2, r2, #7
 8005890:	b132      	cbz	r2, 80058a0 <memchr+0x70>
 8005892:	f810 3b01 	ldrb.w	r3, [r0], #1
 8005896:	3a01      	subs	r2, #1
 8005898:	ea83 0301 	eor.w	r3, r3, r1
 800589c:	b113      	cbz	r3, 80058a4 <memchr+0x74>
 800589e:	d1f8      	bne.n	8005892 <memchr+0x62>
 80058a0:	2000      	movs	r0, #0
 80058a2:	4770      	bx	lr
 80058a4:	3801      	subs	r0, #1
 80058a6:	4770      	bx	lr
 80058a8:	2d00      	cmp	r5, #0
 80058aa:	bf06      	itte	eq
 80058ac:	4635      	moveq	r5, r6
 80058ae:	3803      	subeq	r0, #3
 80058b0:	3807      	subne	r0, #7
 80058b2:	f015 0f01 	tst.w	r5, #1
 80058b6:	d107      	bne.n	80058c8 <memchr+0x98>
 80058b8:	3001      	adds	r0, #1
 80058ba:	f415 7f80 	tst.w	r5, #256	; 0x100
 80058be:	bf02      	ittt	eq
 80058c0:	3001      	addeq	r0, #1
 80058c2:	f415 3fc0 	tsteq.w	r5, #98304	; 0x18000
 80058c6:	3001      	addeq	r0, #1
 80058c8:	bcf0      	pop	{r4, r5, r6, r7}
 80058ca:	3801      	subs	r0, #1
 80058cc:	4770      	bx	lr
 80058ce:	bf00      	nop

080058d0 <memcpy>:
 80058d0:	4684      	mov	ip, r0
 80058d2:	ea41 0300 	orr.w	r3, r1, r0
 80058d6:	f013 0303 	ands.w	r3, r3, #3
 80058da:	d16d      	bne.n	80059b8 <memcpy+0xe8>
 80058dc:	3a40      	subs	r2, #64	; 0x40
 80058de:	d341      	bcc.n	8005964 <memcpy+0x94>
 80058e0:	f851 3b04 	ldr.w	r3, [r1], #4
 80058e4:	f840 3b04 	str.w	r3, [r0], #4
 80058e8:	f851 3b04 	ldr.w	r3, [r1], #4
 80058ec:	f840 3b04 	str.w	r3, [r0], #4
 80058f0:	f851 3b04 	ldr.w	r3, [r1], #4
 80058f4:	f840 3b04 	str.w	r3, [r0], #4
 80058f8:	f851 3b04 	ldr.w	r3, [r1], #4
 80058fc:	f840 3b04 	str.w	r3, [r0], #4
 8005900:	f851 3b04 	ldr.w	r3, [r1], #4
 8005904:	f840 3b04 	str.w	r3, [r0], #4
 8005908:	f851 3b04 	ldr.w	r3, [r1], #4
 800590c:	f840 3b04 	str.w	r3, [r0], #4
 8005910:	f851 3b04 	ldr.w	r3, [r1], #4
 8005914:	f840 3b04 	str.w	r3, [r0], #4
 8005918:	f851 3b04 	ldr.w	r3, [r1], #4
 800591c:	f840 3b04 	str.w	r3, [r0], #4
 8005920:	f851 3b04 	ldr.w	r3, [r1], #4
 8005924:	f840 3b04 	str.w	r3, [r0], #4
 8005928:	f851 3b04 	ldr.w	r3, [r1], #4
 800592c:	f840 3b04 	str.w	r3, [r0], #4
 8005930:	f851 3b04 	ldr.w	r3, [r1], #4
 8005934:	f840 3b04 	str.w	r3, [r0], #4
 8005938:	f851 3b04 	ldr.w	r3, [r1], #4
 800593c:	f840 3b04 	str.w	r3, [r0], #4
 8005940:	f851 3b04 	ldr.w	r3, [r1], #4
 8005944:	f840 3b04 	str.w	r3, [r0], #4
 8005948:	f851 3b04 	ldr.w	r3, [r1], #4
 800594c:	f840 3b04 	str.w	r3, [r0], #4
 8005950:	f851 3b04 	ldr.w	r3, [r1], #4
 8005954:	f840 3b04 	str.w	r3, [r0], #4
 8005958:	f851 3b04 	ldr.w	r3, [r1], #4
 800595c:	f840 3b04 	str.w	r3, [r0], #4
 8005960:	3a40      	subs	r2, #64	; 0x40
 8005962:	d2bd      	bcs.n	80058e0 <memcpy+0x10>
 8005964:	3230      	adds	r2, #48	; 0x30
 8005966:	d311      	bcc.n	800598c <memcpy+0xbc>
 8005968:	f851 3b04 	ldr.w	r3, [r1], #4
 800596c:	f840 3b04 	str.w	r3, [r0], #4
 8005970:	f851 3b04 	ldr.w	r3, [r1], #4
 8005974:	f840 3b04 	str.w	r3, [r0], #4
 8005978:	f851 3b04 	ldr.w	r3, [r1], #4
 800597c:	f840 3b04 	str.w	r3, [r0], #4
 8005980:	f851 3b04 	ldr.w	r3, [r1], #4
 8005984:	f840 3b04 	str.w	r3, [r0], #4
 8005988:	3a10      	subs	r2, #16
 800598a:	d2ed      	bcs.n	8005968 <memcpy+0x98>
 800598c:	320c      	adds	r2, #12
 800598e:	d305      	bcc.n	800599c <memcpy+0xcc>
 8005990:	f851 3b04 	ldr.w	r3, [r1], #4
 8005994:	f840 3b04 	str.w	r3, [r0], #4
 8005998:	3a04      	subs	r2, #4
 800599a:	d2f9      	bcs.n	8005990 <memcpy+0xc0>
 800599c:	3204      	adds	r2, #4
 800599e:	d008      	beq.n	80059b2 <memcpy+0xe2>
 80059a0:	07d2      	lsls	r2, r2, #31
 80059a2:	bf1c      	itt	ne
 80059a4:	f811 3b01 	ldrbne.w	r3, [r1], #1
 80059a8:	f800 3b01 	strbne.w	r3, [r0], #1
 80059ac:	d301      	bcc.n	80059b2 <memcpy+0xe2>
 80059ae:	880b      	ldrh	r3, [r1, #0]
 80059b0:	8003      	strh	r3, [r0, #0]
 80059b2:	4660      	mov	r0, ip
 80059b4:	4770      	bx	lr
 80059b6:	bf00      	nop
 80059b8:	2a08      	cmp	r2, #8
 80059ba:	d313      	bcc.n	80059e4 <memcpy+0x114>
 80059bc:	078b      	lsls	r3, r1, #30
 80059be:	d08d      	beq.n	80058dc <memcpy+0xc>
 80059c0:	f010 0303 	ands.w	r3, r0, #3
 80059c4:	d08a      	beq.n	80058dc <memcpy+0xc>
 80059c6:	f1c3 0304 	rsb	r3, r3, #4
 80059ca:	1ad2      	subs	r2, r2, r3
 80059cc:	07db      	lsls	r3, r3, #31
 80059ce:	bf1c      	itt	ne
 80059d0:	f811 3b01 	ldrbne.w	r3, [r1], #1
 80059d4:	f800 3b01 	strbne.w	r3, [r0], #1
 80059d8:	d380      	bcc.n	80058dc <memcpy+0xc>
 80059da:	f831 3b02 	ldrh.w	r3, [r1], #2
 80059de:	f820 3b02 	strh.w	r3, [r0], #2
 80059e2:	e77b      	b.n	80058dc <memcpy+0xc>
 80059e4:	3a04      	subs	r2, #4
 80059e6:	d3d9      	bcc.n	800599c <memcpy+0xcc>
 80059e8:	3a01      	subs	r2, #1
 80059ea:	f811 3b01 	ldrb.w	r3, [r1], #1
 80059ee:	f800 3b01 	strb.w	r3, [r0], #1
 80059f2:	d2f9      	bcs.n	80059e8 <memcpy+0x118>
 80059f4:	780b      	ldrb	r3, [r1, #0]
 80059f6:	7003      	strb	r3, [r0, #0]
 80059f8:	784b      	ldrb	r3, [r1, #1]
 80059fa:	7043      	strb	r3, [r0, #1]
 80059fc:	788b      	ldrb	r3, [r1, #2]
 80059fe:	7083      	strb	r3, [r0, #2]
 8005a00:	4660      	mov	r0, ip
 8005a02:	4770      	bx	lr

08005a04 <_Balloc>:
 8005a04:	6cc3      	ldr	r3, [r0, #76]	; 0x4c
 8005a06:	b570      	push	{r4, r5, r6, lr}
 8005a08:	4605      	mov	r5, r0
 8005a0a:	460c      	mov	r4, r1
 8005a0c:	b14b      	cbz	r3, 8005a22 <_Balloc+0x1e>
 8005a0e:	f853 0024 	ldr.w	r0, [r3, r4, lsl #2]
 8005a12:	b180      	cbz	r0, 8005a36 <_Balloc+0x32>
 8005a14:	6802      	ldr	r2, [r0, #0]
 8005a16:	f843 2024 	str.w	r2, [r3, r4, lsl #2]
 8005a1a:	2300      	movs	r3, #0
 8005a1c:	e9c0 3303 	strd	r3, r3, [r0, #12]
 8005a20:	bd70      	pop	{r4, r5, r6, pc}
 8005a22:	2221      	movs	r2, #33	; 0x21
 8005a24:	2104      	movs	r1, #4
 8005a26:	f7fc fc35 	bl	8002294 <_calloc_r>
 8005a2a:	4603      	mov	r3, r0
 8005a2c:	64e8      	str	r0, [r5, #76]	; 0x4c
 8005a2e:	2800      	cmp	r0, #0
 8005a30:	d1ed      	bne.n	8005a0e <_Balloc+0xa>
 8005a32:	2000      	movs	r0, #0
 8005a34:	bd70      	pop	{r4, r5, r6, pc}
 8005a36:	2101      	movs	r1, #1
 8005a38:	fa01 f604 	lsl.w	r6, r1, r4
 8005a3c:	1d72      	adds	r2, r6, #5
 8005a3e:	4628      	mov	r0, r5
 8005a40:	0092      	lsls	r2, r2, #2
 8005a42:	f7fc fc27 	bl	8002294 <_calloc_r>
 8005a46:	2800      	cmp	r0, #0
 8005a48:	d0f3      	beq.n	8005a32 <_Balloc+0x2e>
 8005a4a:	e9c0 4601 	strd	r4, r6, [r0, #4]
 8005a4e:	e7e4      	b.n	8005a1a <_Balloc+0x16>

08005a50 <_Bfree>:
 8005a50:	b131      	cbz	r1, 8005a60 <_Bfree+0x10>
 8005a52:	6cc3      	ldr	r3, [r0, #76]	; 0x4c
 8005a54:	684a      	ldr	r2, [r1, #4]
 8005a56:	f853 0022 	ldr.w	r0, [r3, r2, lsl #2]
 8005a5a:	6008      	str	r0, [r1, #0]
 8005a5c:	f843 1022 	str.w	r1, [r3, r2, lsl #2]
 8005a60:	4770      	bx	lr
 8005a62:	bf00      	nop

08005a64 <__multadd>:
 8005a64:	b5f0      	push	{r4, r5, r6, r7, lr}
 8005a66:	690c      	ldr	r4, [r1, #16]
 8005a68:	b083      	sub	sp, #12
 8005a6a:	460d      	mov	r5, r1
 8005a6c:	4606      	mov	r6, r0
 8005a6e:	f101 0c14 	add.w	ip, r1, #20
 8005a72:	2700      	movs	r7, #0
 8005a74:	f8dc 0000 	ldr.w	r0, [ip]
 8005a78:	b281      	uxth	r1, r0
 8005a7a:	fb02 3301 	mla	r3, r2, r1, r3
 8005a7e:	0c01      	lsrs	r1, r0, #16
 8005a80:	0c18      	lsrs	r0, r3, #16
 8005a82:	fb02 0101 	mla	r1, r2, r1, r0
 8005a86:	b29b      	uxth	r3, r3
 8005a88:	3701      	adds	r7, #1
 8005a8a:	eb03 4301 	add.w	r3, r3, r1, lsl #16
 8005a8e:	42bc      	cmp	r4, r7
 8005a90:	f84c 3b04 	str.w	r3, [ip], #4
 8005a94:	ea4f 4311 	mov.w	r3, r1, lsr #16
 8005a98:	dcec      	bgt.n	8005a74 <__multadd+0x10>
 8005a9a:	b13b      	cbz	r3, 8005aac <__multadd+0x48>
 8005a9c:	68aa      	ldr	r2, [r5, #8]
 8005a9e:	42a2      	cmp	r2, r4
 8005aa0:	dd07      	ble.n	8005ab2 <__multadd+0x4e>
 8005aa2:	eb05 0284 	add.w	r2, r5, r4, lsl #2
 8005aa6:	3401      	adds	r4, #1
 8005aa8:	6153      	str	r3, [r2, #20]
 8005aaa:	612c      	str	r4, [r5, #16]
 8005aac:	4628      	mov	r0, r5
 8005aae:	b003      	add	sp, #12
 8005ab0:	bdf0      	pop	{r4, r5, r6, r7, pc}
 8005ab2:	6869      	ldr	r1, [r5, #4]
 8005ab4:	9301      	str	r3, [sp, #4]
 8005ab6:	3101      	adds	r1, #1
 8005ab8:	4630      	mov	r0, r6
 8005aba:	f7ff ffa3 	bl	8005a04 <_Balloc>
 8005abe:	692a      	ldr	r2, [r5, #16]
 8005ac0:	3202      	adds	r2, #2
 8005ac2:	f105 010c 	add.w	r1, r5, #12
 8005ac6:	4607      	mov	r7, r0
 8005ac8:	0092      	lsls	r2, r2, #2
 8005aca:	300c      	adds	r0, #12
 8005acc:	f7ff ff00 	bl	80058d0 <memcpy>
 8005ad0:	6cf2      	ldr	r2, [r6, #76]	; 0x4c
 8005ad2:	6869      	ldr	r1, [r5, #4]
 8005ad4:	9b01      	ldr	r3, [sp, #4]
 8005ad6:	f852 0021 	ldr.w	r0, [r2, r1, lsl #2]
 8005ada:	6028      	str	r0, [r5, #0]
 8005adc:	f842 5021 	str.w	r5, [r2, r1, lsl #2]
 8005ae0:	463d      	mov	r5, r7
 8005ae2:	e7de      	b.n	8005aa2 <__multadd+0x3e>

08005ae4 <__s2b>:
 8005ae4:	e92d 43f8 	stmdb	sp!, {r3, r4, r5, r6, r7, r8, r9, lr}
 8005ae8:	4c23      	ldr	r4, [pc, #140]	; (8005b78 <__s2b+0x94>)
 8005aea:	9d08      	ldr	r5, [sp, #32]
 8005aec:	461e      	mov	r6, r3
 8005aee:	3308      	adds	r3, #8
 8005af0:	fb84 4c03 	smull	r4, ip, r4, r3
 8005af4:	17db      	asrs	r3, r3, #31
 8005af6:	ebc3 0c6c 	rsb	ip, r3, ip, asr #1
 8005afa:	f1bc 0f01 	cmp.w	ip, #1
 8005afe:	4607      	mov	r7, r0
 8005b00:	460c      	mov	r4, r1
 8005b02:	4690      	mov	r8, r2
 8005b04:	dd35      	ble.n	8005b72 <__s2b+0x8e>
 8005b06:	2301      	movs	r3, #1
 8005b08:	2100      	movs	r1, #0
 8005b0a:	005b      	lsls	r3, r3, #1
 8005b0c:	459c      	cmp	ip, r3
 8005b0e:	f101 0101 	add.w	r1, r1, #1
 8005b12:	dcfa      	bgt.n	8005b0a <__s2b+0x26>
 8005b14:	4638      	mov	r0, r7
 8005b16:	f7ff ff75 	bl	8005a04 <_Balloc>
 8005b1a:	2301      	movs	r3, #1
 8005b1c:	f1b8 0f09 	cmp.w	r8, #9
 8005b20:	e9c0 3504 	strd	r3, r5, [r0, #16]
 8005b24:	dd21      	ble.n	8005b6a <__s2b+0x86>
 8005b26:	f104 0909 	add.w	r9, r4, #9
 8005b2a:	464d      	mov	r5, r9
 8005b2c:	4444      	add	r4, r8
 8005b2e:	f815 3b01 	ldrb.w	r3, [r5], #1
 8005b32:	4601      	mov	r1, r0
 8005b34:	3b30      	subs	r3, #48	; 0x30
 8005b36:	220a      	movs	r2, #10
 8005b38:	4638      	mov	r0, r7
 8005b3a:	f7ff ff93 	bl	8005a64 <__multadd>
 8005b3e:	42ac      	cmp	r4, r5
 8005b40:	d1f5      	bne.n	8005b2e <__s2b+0x4a>
 8005b42:	eb09 0408 	add.w	r4, r9, r8
 8005b46:	3c08      	subs	r4, #8
 8005b48:	4546      	cmp	r6, r8
 8005b4a:	dd0c      	ble.n	8005b66 <__s2b+0x82>
 8005b4c:	eba6 0608 	sub.w	r6, r6, r8
 8005b50:	4426      	add	r6, r4
 8005b52:	f814 3b01 	ldrb.w	r3, [r4], #1
 8005b56:	4601      	mov	r1, r0
 8005b58:	3b30      	subs	r3, #48	; 0x30
 8005b5a:	220a      	movs	r2, #10
 8005b5c:	4638      	mov	r0, r7
 8005b5e:	f7ff ff81 	bl	8005a64 <__multadd>
 8005b62:	42a6      	cmp	r6, r4
 8005b64:	d1f5      	bne.n	8005b52 <__s2b+0x6e>
 8005b66:	e8bd 83f8 	ldmia.w	sp!, {r3, r4, r5, r6, r7, r8, r9, pc}
 8005b6a:	340a      	adds	r4, #10
 8005b6c:	f04f 0809 	mov.w	r8, #9
 8005b70:	e7ea      	b.n	8005b48 <__s2b+0x64>
 8005b72:	2100      	movs	r1, #0
 8005b74:	e7ce      	b.n	8005b14 <__s2b+0x30>
 8005b76:	bf00      	nop
 8005b78:	38e38e39 	.word	0x38e38e39

08005b7c <__hi0bits>:
 8005b7c:	0c02      	lsrs	r2, r0, #16
 8005b7e:	0412      	lsls	r2, r2, #16
 8005b80:	4603      	mov	r3, r0
 8005b82:	b9c2      	cbnz	r2, 8005bb6 <__hi0bits+0x3a>
 8005b84:	0403      	lsls	r3, r0, #16
 8005b86:	2010      	movs	r0, #16
 8005b88:	f013 4f7f 	tst.w	r3, #4278190080	; 0xff000000
 8005b8c:	bf04      	itt	eq
 8005b8e:	021b      	lsleq	r3, r3, #8
 8005b90:	3008      	addeq	r0, #8
 8005b92:	f013 4f70 	tst.w	r3, #4026531840	; 0xf0000000
 8005b96:	bf04      	itt	eq
 8005b98:	011b      	lsleq	r3, r3, #4
 8005b9a:	3004      	addeq	r0, #4
 8005b9c:	f013 4f40 	tst.w	r3, #3221225472	; 0xc0000000
 8005ba0:	bf04      	itt	eq
 8005ba2:	009b      	lsleq	r3, r3, #2
 8005ba4:	3002      	addeq	r0, #2
 8005ba6:	2b00      	cmp	r3, #0
 8005ba8:	db04      	blt.n	8005bb4 <__hi0bits+0x38>
 8005baa:	005b      	lsls	r3, r3, #1
 8005bac:	d501      	bpl.n	8005bb2 <__hi0bits+0x36>
 8005bae:	3001      	adds	r0, #1
 8005bb0:	4770      	bx	lr
 8005bb2:	2020      	movs	r0, #32
 8005bb4:	4770      	bx	lr
 8005bb6:	2000      	movs	r0, #0
 8005bb8:	e7e6      	b.n	8005b88 <__hi0bits+0xc>
 8005bba:	bf00      	nop

08005bbc <__lo0bits>:
 8005bbc:	6803      	ldr	r3, [r0, #0]
 8005bbe:	f013 0207 	ands.w	r2, r3, #7
 8005bc2:	4601      	mov	r1, r0
 8005bc4:	d007      	beq.n	8005bd6 <__lo0bits+0x1a>
 8005bc6:	07da      	lsls	r2, r3, #31
 8005bc8:	d41f      	bmi.n	8005c0a <__lo0bits+0x4e>
 8005bca:	0798      	lsls	r0, r3, #30
 8005bcc:	d51f      	bpl.n	8005c0e <__lo0bits+0x52>
 8005bce:	085b      	lsrs	r3, r3, #1
 8005bd0:	600b      	str	r3, [r1, #0]
 8005bd2:	2001      	movs	r0, #1
 8005bd4:	4770      	bx	lr
 8005bd6:	b298      	uxth	r0, r3
 8005bd8:	b1a0      	cbz	r0, 8005c04 <__lo0bits+0x48>
 8005bda:	4610      	mov	r0, r2
 8005bdc:	f013 0fff 	tst.w	r3, #255	; 0xff
 8005be0:	bf04      	itt	eq
 8005be2:	0a1b      	lsreq	r3, r3, #8
 8005be4:	3008      	addeq	r0, #8
 8005be6:	071a      	lsls	r2, r3, #28
 8005be8:	bf04      	itt	eq
 8005bea:	091b      	lsreq	r3, r3, #4
 8005bec:	3004      	addeq	r0, #4
 8005bee:	079a      	lsls	r2, r3, #30
 8005bf0:	bf04      	itt	eq
 8005bf2:	089b      	lsreq	r3, r3, #2
 8005bf4:	3002      	addeq	r0, #2
 8005bf6:	07da      	lsls	r2, r3, #31
 8005bf8:	d402      	bmi.n	8005c00 <__lo0bits+0x44>
 8005bfa:	085b      	lsrs	r3, r3, #1
 8005bfc:	d00b      	beq.n	8005c16 <__lo0bits+0x5a>
 8005bfe:	3001      	adds	r0, #1
 8005c00:	600b      	str	r3, [r1, #0]
 8005c02:	4770      	bx	lr
 8005c04:	0c1b      	lsrs	r3, r3, #16
 8005c06:	2010      	movs	r0, #16
 8005c08:	e7e8      	b.n	8005bdc <__lo0bits+0x20>
 8005c0a:	2000      	movs	r0, #0
 8005c0c:	4770      	bx	lr
 8005c0e:	089b      	lsrs	r3, r3, #2
 8005c10:	600b      	str	r3, [r1, #0]
 8005c12:	2002      	movs	r0, #2
 8005c14:	4770      	bx	lr
 8005c16:	2020      	movs	r0, #32
 8005c18:	4770      	bx	lr
 8005c1a:	bf00      	nop

08005c1c <__i2b>:
 8005c1c:	b510      	push	{r4, lr}
 8005c1e:	460c      	mov	r4, r1
 8005c20:	2101      	movs	r1, #1
 8005c22:	f7ff feef 	bl	8005a04 <_Balloc>
 8005c26:	2201      	movs	r2, #1
 8005c28:	e9c0 2404 	strd	r2, r4, [r0, #16]
 8005c2c:	bd10      	pop	{r4, pc}
 8005c2e:	bf00      	nop

08005c30 <__multiply>:
 8005c30:	e92d 4ff0 	stmdb	sp!, {r4, r5, r6, r7, r8, r9, sl, fp, lr}
 8005c34:	690e      	ldr	r6, [r1, #16]
 8005c36:	6914      	ldr	r4, [r2, #16]
 8005c38:	42a6      	cmp	r6, r4
 8005c3a:	b083      	sub	sp, #12
 8005c3c:	460f      	mov	r7, r1
 8005c3e:	4615      	mov	r5, r2
 8005c40:	da04      	bge.n	8005c4c <__multiply+0x1c>
 8005c42:	4632      	mov	r2, r6
 8005c44:	462f      	mov	r7, r5
 8005c46:	4626      	mov	r6, r4
 8005c48:	460d      	mov	r5, r1
 8005c4a:	4614      	mov	r4, r2
 8005c4c:	e9d7 1301 	ldrd	r1, r3, [r7, #4]
 8005c50:	eb06 0804 	add.w	r8, r6, r4
 8005c54:	4543      	cmp	r3, r8
 8005c56:	bfb8      	it	lt
 8005c58:	3101      	addlt	r1, #1
 8005c5a:	f7ff fed3 	bl	8005a04 <_Balloc>
 8005c5e:	f100 0914 	add.w	r9, r0, #20
 8005c62:	eb09 0e88 	add.w	lr, r9, r8, lsl #2
 8005c66:	45f1      	cmp	r9, lr
 8005c68:	9000      	str	r0, [sp, #0]
 8005c6a:	d205      	bcs.n	8005c78 <__multiply+0x48>
 8005c6c:	464b      	mov	r3, r9
 8005c6e:	2200      	movs	r2, #0
 8005c70:	f843 2b04 	str.w	r2, [r3], #4
 8005c74:	459e      	cmp	lr, r3
 8005c76:	d8fb      	bhi.n	8005c70 <__multiply+0x40>
 8005c78:	f105 0a14 	add.w	sl, r5, #20
 8005c7c:	eb0a 0484 	add.w	r4, sl, r4, lsl #2
 8005c80:	f107 0314 	add.w	r3, r7, #20
 8005c84:	45a2      	cmp	sl, r4
 8005c86:	eb03 0c86 	add.w	ip, r3, r6, lsl #2
 8005c8a:	d261      	bcs.n	8005d50 <__multiply+0x120>
 8005c8c:	1b64      	subs	r4, r4, r5
 8005c8e:	3c15      	subs	r4, #21
 8005c90:	f024 0403 	bic.w	r4, r4, #3
 8005c94:	f8cd e004 	str.w	lr, [sp, #4]
 8005c98:	44a2      	add	sl, r4
 8005c9a:	f105 0210 	add.w	r2, r5, #16
 8005c9e:	469e      	mov	lr, r3
 8005ca0:	e005      	b.n	8005cae <__multiply+0x7e>
 8005ca2:	0c2d      	lsrs	r5, r5, #16
 8005ca4:	d12b      	bne.n	8005cfe <__multiply+0xce>
 8005ca6:	4592      	cmp	sl, r2
 8005ca8:	f109 0904 	add.w	r9, r9, #4
 8005cac:	d04e      	beq.n	8005d4c <__multiply+0x11c>
 8005cae:	f852 5f04 	ldr.w	r5, [r2, #4]!
 8005cb2:	fa1f fb85 	uxth.w	fp, r5
 8005cb6:	f1bb 0f00 	cmp.w	fp, #0
 8005cba:	d0f2      	beq.n	8005ca2 <__multiply+0x72>
 8005cbc:	4677      	mov	r7, lr
 8005cbe:	464e      	mov	r6, r9
 8005cc0:	2000      	movs	r0, #0
 8005cc2:	e000      	b.n	8005cc6 <__multiply+0x96>
 8005cc4:	4626      	mov	r6, r4
 8005cc6:	f857 1b04 	ldr.w	r1, [r7], #4
 8005cca:	6834      	ldr	r4, [r6, #0]
 8005ccc:	b28b      	uxth	r3, r1
 8005cce:	b2a5      	uxth	r5, r4
 8005cd0:	0c09      	lsrs	r1, r1, #16
 8005cd2:	0c24      	lsrs	r4, r4, #16
 8005cd4:	fb0b 5303 	mla	r3, fp, r3, r5
 8005cd8:	4403      	add	r3, r0
 8005cda:	fb0b 4001 	mla	r0, fp, r1, r4
 8005cde:	eb00 4013 	add.w	r0, r0, r3, lsr #16
 8005ce2:	4634      	mov	r4, r6
 8005ce4:	b29b      	uxth	r3, r3
 8005ce6:	ea43 4300 	orr.w	r3, r3, r0, lsl #16
 8005cea:	45bc      	cmp	ip, r7
 8005cec:	ea4f 4010 	mov.w	r0, r0, lsr #16
 8005cf0:	f844 3b04 	str.w	r3, [r4], #4
 8005cf4:	d8e6      	bhi.n	8005cc4 <__multiply+0x94>
 8005cf6:	6070      	str	r0, [r6, #4]
 8005cf8:	6815      	ldr	r5, [r2, #0]
 8005cfa:	0c2d      	lsrs	r5, r5, #16
 8005cfc:	d0d3      	beq.n	8005ca6 <__multiply+0x76>
 8005cfe:	f8d9 3000 	ldr.w	r3, [r9]
 8005d02:	4676      	mov	r6, lr
 8005d04:	4618      	mov	r0, r3
 8005d06:	46cb      	mov	fp, r9
 8005d08:	2100      	movs	r1, #0
 8005d0a:	e000      	b.n	8005d0e <__multiply+0xde>
 8005d0c:	46a3      	mov	fp, r4
 8005d0e:	8834      	ldrh	r4, [r6, #0]
 8005d10:	0c00      	lsrs	r0, r0, #16
 8005d12:	fb05 0004 	mla	r0, r5, r4, r0
 8005d16:	4401      	add	r1, r0
 8005d18:	b29b      	uxth	r3, r3
 8005d1a:	465c      	mov	r4, fp
 8005d1c:	ea43 4301 	orr.w	r3, r3, r1, lsl #16
 8005d20:	f844 3b04 	str.w	r3, [r4], #4
 8005d24:	f856 3b04 	ldr.w	r3, [r6], #4
 8005d28:	f8db 0004 	ldr.w	r0, [fp, #4]
 8005d2c:	0c1b      	lsrs	r3, r3, #16
 8005d2e:	b287      	uxth	r7, r0
 8005d30:	fb05 7303 	mla	r3, r5, r3, r7
 8005d34:	eb03 4311 	add.w	r3, r3, r1, lsr #16
 8005d38:	45b4      	cmp	ip, r6
 8005d3a:	ea4f 4113 	mov.w	r1, r3, lsr #16
 8005d3e:	d8e5      	bhi.n	8005d0c <__multiply+0xdc>
 8005d40:	4592      	cmp	sl, r2
 8005d42:	f8cb 3004 	str.w	r3, [fp, #4]
 8005d46:	f109 0904 	add.w	r9, r9, #4
 8005d4a:	d1b0      	bne.n	8005cae <__multiply+0x7e>
 8005d4c:	f8dd e004 	ldr.w	lr, [sp, #4]
 8005d50:	f1b8 0f00 	cmp.w	r8, #0
 8005d54:	dd0b      	ble.n	8005d6e <__multiply+0x13e>
 8005d56:	f85e 3c04 	ldr.w	r3, [lr, #-4]
 8005d5a:	f1ae 0e04 	sub.w	lr, lr, #4
 8005d5e:	b11b      	cbz	r3, 8005d68 <__multiply+0x138>
 8005d60:	e005      	b.n	8005d6e <__multiply+0x13e>
 8005d62:	f85e 3d04 	ldr.w	r3, [lr, #-4]!
 8005d66:	b913      	cbnz	r3, 8005d6e <__multiply+0x13e>
 8005d68:	f1b8 0801 	subs.w	r8, r8, #1
 8005d6c:	d1f9      	bne.n	8005d62 <__multiply+0x132>
 8005d6e:	9800      	ldr	r0, [sp, #0]
 8005d70:	f8c0 8010 	str.w	r8, [r0, #16]
 8005d74:	b003      	add	sp, #12
 8005d76:	e8bd 8ff0 	ldmia.w	sp!, {r4, r5, r6, r7, r8, r9, sl, fp, pc}
 8005d7a:	bf00      	nop

08005d7c <__pow5mult>:
 8005d7c:	f012 0303 	ands.w	r3, r2, #3
 8005d80:	e92d 41f0 	stmdb	sp!, {r4, r5, r6, r7, r8, lr}
 8005d84:	4614      	mov	r4, r2
 8005d86:	4607      	mov	r7, r0
 8005d88:	d12e      	bne.n	8005de8 <__pow5mult+0x6c>
 8005d8a:	460d      	mov	r5, r1
 8005d8c:	10a4      	asrs	r4, r4, #2
 8005d8e:	d01c      	beq.n	8005dca <__pow5mult+0x4e>
 8005d90:	6cbe      	ldr	r6, [r7, #72]	; 0x48
 8005d92:	b396      	cbz	r6, 8005dfa <__pow5mult+0x7e>
 8005d94:	07e3      	lsls	r3, r4, #31
 8005d96:	f04f 0800 	mov.w	r8, #0
 8005d9a:	d406      	bmi.n	8005daa <__pow5mult+0x2e>
 8005d9c:	1064      	asrs	r4, r4, #1
 8005d9e:	d014      	beq.n	8005dca <__pow5mult+0x4e>
 8005da0:	6830      	ldr	r0, [r6, #0]
 8005da2:	b1a8      	cbz	r0, 8005dd0 <__pow5mult+0x54>
 8005da4:	4606      	mov	r6, r0
 8005da6:	07e3      	lsls	r3, r4, #31
 8005da8:	d5f8      	bpl.n	8005d9c <__pow5mult+0x20>
 8005daa:	4632      	mov	r2, r6
 8005dac:	4629      	mov	r1, r5
 8005dae:	4638      	mov	r0, r7
 8005db0:	f7ff ff3e 	bl	8005c30 <__multiply>
 8005db4:	b1b5      	cbz	r5, 8005de4 <__pow5mult+0x68>
 8005db6:	686a      	ldr	r2, [r5, #4]
 8005db8:	6cfb      	ldr	r3, [r7, #76]	; 0x4c
 8005dba:	1064      	asrs	r4, r4, #1
 8005dbc:	f853 1022 	ldr.w	r1, [r3, r2, lsl #2]
 8005dc0:	6029      	str	r1, [r5, #0]
 8005dc2:	f843 5022 	str.w	r5, [r3, r2, lsl #2]
 8005dc6:	4605      	mov	r5, r0
 8005dc8:	d1ea      	bne.n	8005da0 <__pow5mult+0x24>
 8005dca:	4628      	mov	r0, r5
 8005dcc:	e8bd 81f0 	ldmia.w	sp!, {r4, r5, r6, r7, r8, pc}
 8005dd0:	4632      	mov	r2, r6
 8005dd2:	4631      	mov	r1, r6
 8005dd4:	4638      	mov	r0, r7
 8005dd6:	f7ff ff2b 	bl	8005c30 <__multiply>
 8005dda:	6030      	str	r0, [r6, #0]
 8005ddc:	f8c0 8000 	str.w	r8, [r0]
 8005de0:	4606      	mov	r6, r0
 8005de2:	e7e0      	b.n	8005da6 <__pow5mult+0x2a>
 8005de4:	4605      	mov	r5, r0
 8005de6:	e7d9      	b.n	8005d9c <__pow5mult+0x20>
 8005de8:	3b01      	subs	r3, #1
 8005dea:	4a0b      	ldr	r2, [pc, #44]	; (8005e18 <__pow5mult+0x9c>)
 8005dec:	f852 2023 	ldr.w	r2, [r2, r3, lsl #2]
 8005df0:	2300      	movs	r3, #0
 8005df2:	f7ff fe37 	bl	8005a64 <__multadd>
 8005df6:	4605      	mov	r5, r0
 8005df8:	e7c8      	b.n	8005d8c <__pow5mult+0x10>
 8005dfa:	2101      	movs	r1, #1
 8005dfc:	4638      	mov	r0, r7
 8005dfe:	f7ff fe01 	bl	8005a04 <_Balloc>
 8005e02:	f240 2371 	movw	r3, #625	; 0x271
 8005e06:	6143      	str	r3, [r0, #20]
 8005e08:	2201      	movs	r2, #1
 8005e0a:	2300      	movs	r3, #0
 8005e0c:	6102      	str	r2, [r0, #16]
 8005e0e:	4606      	mov	r6, r0
 8005e10:	64b8      	str	r0, [r7, #72]	; 0x48
 8005e12:	6003      	str	r3, [r0, #0]
 8005e14:	e7be      	b.n	8005d94 <__pow5mult+0x18>
 8005e16:	bf00      	nop
 8005e18:	08007d60 	.word	0x08007d60

08005e1c <__lshift>:
 8005e1c:	e92d 47f0 	stmdb	sp!, {r4, r5, r6, r7, r8, r9, sl, lr}
 8005e20:	4691      	mov	r9, r2
 8005e22:	690a      	ldr	r2, [r1, #16]
 8005e24:	460e      	mov	r6, r1
 8005e26:	ea4f 1469 	mov.w	r4, r9, asr #5
 8005e2a:	e9d1 1301 	ldrd	r1, r3, [r1, #4]
 8005e2e:	eb04 0802 	add.w	r8, r4, r2
 8005e32:	f108 0501 	add.w	r5, r8, #1
 8005e36:	429d      	cmp	r5, r3
 8005e38:	4607      	mov	r7, r0
 8005e3a:	dd04      	ble.n	8005e46 <__lshift+0x2a>
 8005e3c:	005b      	lsls	r3, r3, #1
 8005e3e:	429d      	cmp	r5, r3
 8005e40:	f101 0101 	add.w	r1, r1, #1
 8005e44:	dcfa      	bgt.n	8005e3c <__lshift+0x20>
 8005e46:	4638      	mov	r0, r7
 8005e48:	f7ff fddc 	bl	8005a04 <_Balloc>
 8005e4c:	2c00      	cmp	r4, #0
 8005e4e:	f100 0314 	add.w	r3, r0, #20
 8005e52:	dd37      	ble.n	8005ec4 <__lshift+0xa8>
 8005e54:	eb03 0184 	add.w	r1, r3, r4, lsl #2
 8005e58:	2200      	movs	r2, #0
 8005e5a:	f843 2b04 	str.w	r2, [r3], #4
 8005e5e:	428b      	cmp	r3, r1
 8005e60:	d1fb      	bne.n	8005e5a <__lshift+0x3e>
 8005e62:	6934      	ldr	r4, [r6, #16]
 8005e64:	f106 0314 	add.w	r3, r6, #20
 8005e68:	f019 091f 	ands.w	r9, r9, #31
 8005e6c:	eb03 0c84 	add.w	ip, r3, r4, lsl #2
 8005e70:	d020      	beq.n	8005eb4 <__lshift+0x98>
 8005e72:	f1c9 0e20 	rsb	lr, r9, #32
 8005e76:	2200      	movs	r2, #0
 8005e78:	e000      	b.n	8005e7c <__lshift+0x60>
 8005e7a:	4651      	mov	r1, sl
 8005e7c:	681c      	ldr	r4, [r3, #0]
 8005e7e:	468a      	mov	sl, r1
 8005e80:	fa04 f409 	lsl.w	r4, r4, r9
 8005e84:	4314      	orrs	r4, r2
 8005e86:	f84a 4b04 	str.w	r4, [sl], #4
 8005e8a:	f853 2b04 	ldr.w	r2, [r3], #4
 8005e8e:	4563      	cmp	r3, ip
 8005e90:	fa22 f20e 	lsr.w	r2, r2, lr
 8005e94:	d3f1      	bcc.n	8005e7a <__lshift+0x5e>
 8005e96:	604a      	str	r2, [r1, #4]
 8005e98:	b10a      	cbz	r2, 8005e9e <__lshift+0x82>
 8005e9a:	f108 0502 	add.w	r5, r8, #2
 8005e9e:	6cfb      	ldr	r3, [r7, #76]	; 0x4c
 8005ea0:	6872      	ldr	r2, [r6, #4]
 8005ea2:	3d01      	subs	r5, #1
 8005ea4:	f853 1022 	ldr.w	r1, [r3, r2, lsl #2]
 8005ea8:	6105      	str	r5, [r0, #16]
 8005eaa:	6031      	str	r1, [r6, #0]
 8005eac:	f843 6022 	str.w	r6, [r3, r2, lsl #2]
 8005eb0:	e8bd 87f0 	ldmia.w	sp!, {r4, r5, r6, r7, r8, r9, sl, pc}
 8005eb4:	3904      	subs	r1, #4
 8005eb6:	f853 2b04 	ldr.w	r2, [r3], #4
 8005eba:	f841 2f04 	str.w	r2, [r1, #4]!
 8005ebe:	459c      	cmp	ip, r3
 8005ec0:	d8f9      	bhi.n	8005eb6 <__lshift+0x9a>
 8005ec2:	e7ec      	b.n	8005e9e <__lshift+0x82>
 8005ec4:	4619      	mov	r1, r3
 8005ec6:	e7cc      	b.n	8005e62 <__lshift+0x46>

08005ec8 <__mcmp>:
 8005ec8:	b430      	push	{r4, r5}
 8005eca:	690b      	ldr	r3, [r1, #16]
 8005ecc:	4605      	mov	r5, r0
 8005ece:	6900      	ldr	r0, [r0, #16]
 8005ed0:	1ac0      	subs	r0, r0, r3
 8005ed2:	d10f      	bne.n	8005ef4 <__mcmp+0x2c>
 8005ed4:	009b      	lsls	r3, r3, #2
 8005ed6:	3514      	adds	r5, #20
 8005ed8:	3114      	adds	r1, #20
 8005eda:	4419      	add	r1, r3
 8005edc:	442b      	add	r3, r5
 8005ede:	e001      	b.n	8005ee4 <__mcmp+0x1c>
 8005ee0:	429d      	cmp	r5, r3
 8005ee2:	d207      	bcs.n	8005ef4 <__mcmp+0x2c>
 8005ee4:	f853 4d04 	ldr.w	r4, [r3, #-4]!
 8005ee8:	f851 2d04 	ldr.w	r2, [r1, #-4]!
 8005eec:	4294      	cmp	r4, r2
 8005eee:	d0f7      	beq.n	8005ee0 <__mcmp+0x18>
 8005ef0:	d302      	bcc.n	8005ef8 <__mcmp+0x30>
 8005ef2:	2001      	movs	r0, #1
 8005ef4:	bc30      	pop	{r4, r5}
 8005ef6:	4770      	bx	lr
 8005ef8:	f04f 30ff 	mov.w	r0, #4294967295	; 0xffffffff
 8005efc:	e7fa      	b.n	8005ef4 <__mcmp+0x2c>
 8005efe:	bf00      	nop

08005f00 <__mdiff>:
 8005f00:	e92d 41f0 	stmdb	sp!, {r4, r5, r6, r7, r8, lr}
 8005f04:	6913      	ldr	r3, [r2, #16]
 8005f06:	690d      	ldr	r5, [r1, #16]
 8005f08:	1aed      	subs	r5, r5, r3
 8005f0a:	2d00      	cmp	r5, #0
 8005f0c:	460e      	mov	r6, r1
 8005f0e:	4690      	mov	r8, r2
 8005f10:	f101 0414 	add.w	r4, r1, #20
 8005f14:	f102 0714 	add.w	r7, r2, #20
 8005f18:	d114      	bne.n	8005f44 <__mdiff+0x44>
 8005f1a:	009b      	lsls	r3, r3, #2
 8005f1c:	18e2      	adds	r2, r4, r3
 8005f1e:	443b      	add	r3, r7
 8005f20:	e001      	b.n	8005f26 <__mdiff+0x26>
 8005f22:	42a2      	cmp	r2, r4
 8005f24:	d959      	bls.n	8005fda <__mdiff+0xda>
 8005f26:	f852 cd04 	ldr.w	ip, [r2, #-4]!
 8005f2a:	f853 1d04 	ldr.w	r1, [r3, #-4]!
 8005f2e:	458c      	cmp	ip, r1
 8005f30:	d0f7      	beq.n	8005f22 <__mdiff+0x22>
 8005f32:	d209      	bcs.n	8005f48 <__mdiff+0x48>
 8005f34:	4622      	mov	r2, r4
 8005f36:	4633      	mov	r3, r6
 8005f38:	463c      	mov	r4, r7
 8005f3a:	4646      	mov	r6, r8
 8005f3c:	4617      	mov	r7, r2
 8005f3e:	4698      	mov	r8, r3
 8005f40:	2501      	movs	r5, #1
 8005f42:	e001      	b.n	8005f48 <__mdiff+0x48>
 8005f44:	dbf6      	blt.n	8005f34 <__mdiff+0x34>
 8005f46:	2500      	movs	r5, #0
 8005f48:	6871      	ldr	r1, [r6, #4]
 8005f4a:	f7ff fd5b 	bl	8005a04 <_Balloc>
 8005f4e:	f8d8 3010 	ldr.w	r3, [r8, #16]
 8005f52:	6936      	ldr	r6, [r6, #16]
 8005f54:	60c5      	str	r5, [r0, #12]
 8005f56:	eb07 0e83 	add.w	lr, r7, r3, lsl #2
 8005f5a:	46bc      	mov	ip, r7
 8005f5c:	f100 0514 	add.w	r5, r0, #20
 8005f60:	eb04 0786 	add.w	r7, r4, r6, lsl #2
 8005f64:	2300      	movs	r3, #0
 8005f66:	f85c 1b04 	ldr.w	r1, [ip], #4
 8005f6a:	f854 8b04 	ldr.w	r8, [r4], #4
 8005f6e:	b28a      	uxth	r2, r1
 8005f70:	fa13 f388 	uxtah	r3, r3, r8
 8005f74:	0c09      	lsrs	r1, r1, #16
 8005f76:	1a9a      	subs	r2, r3, r2
 8005f78:	ebc1 4318 	rsb	r3, r1, r8, lsr #16
 8005f7c:	eb03 4322 	add.w	r3, r3, r2, asr #16
 8005f80:	b292      	uxth	r2, r2
 8005f82:	ea42 4203 	orr.w	r2, r2, r3, lsl #16
 8005f86:	45e6      	cmp	lr, ip
 8005f88:	f845 2b04 	str.w	r2, [r5], #4
 8005f8c:	ea4f 4323 	mov.w	r3, r3, asr #16
 8005f90:	d8e9      	bhi.n	8005f66 <__mdiff+0x66>
 8005f92:	42a7      	cmp	r7, r4
 8005f94:	d917      	bls.n	8005fc6 <__mdiff+0xc6>
 8005f96:	46ae      	mov	lr, r5
 8005f98:	46a4      	mov	ip, r4
 8005f9a:	f85c 2b04 	ldr.w	r2, [ip], #4
 8005f9e:	fa13 f382 	uxtah	r3, r3, r2
 8005fa2:	1419      	asrs	r1, r3, #16
 8005fa4:	eb01 4112 	add.w	r1, r1, r2, lsr #16
 8005fa8:	b29b      	uxth	r3, r3
 8005faa:	ea43 4201 	orr.w	r2, r3, r1, lsl #16
 8005fae:	4567      	cmp	r7, ip
 8005fb0:	f84e 2b04 	str.w	r2, [lr], #4
 8005fb4:	ea4f 4321 	mov.w	r3, r1, asr #16
 8005fb8:	d8ef      	bhi.n	8005f9a <__mdiff+0x9a>
 8005fba:	43e4      	mvns	r4, r4
 8005fbc:	4427      	add	r7, r4
 8005fbe:	f027 0703 	bic.w	r7, r7, #3
 8005fc2:	3704      	adds	r7, #4
 8005fc4:	443d      	add	r5, r7
 8005fc6:	3d04      	subs	r5, #4
 8005fc8:	b922      	cbnz	r2, 8005fd4 <__mdiff+0xd4>
 8005fca:	f855 3d04 	ldr.w	r3, [r5, #-4]!
 8005fce:	3e01      	subs	r6, #1
 8005fd0:	2b00      	cmp	r3, #0
 8005fd2:	d0fa      	beq.n	8005fca <__mdiff+0xca>
 8005fd4:	6106      	str	r6, [r0, #16]
 8005fd6:	e8bd 81f0 	ldmia.w	sp!, {r4, r5, r6, r7, r8, pc}
 8005fda:	2100      	movs	r1, #0
 8005fdc:	f7ff fd12 	bl	8005a04 <_Balloc>
 8005fe0:	2201      	movs	r2, #1
 8005fe2:	2300      	movs	r3, #0
 8005fe4:	e9c0 2304 	strd	r2, r3, [r0, #16]
 8005fe8:	e8bd 81f0 	ldmia.w	sp!, {r4, r5, r6, r7, r8, pc}

08005fec <__ulp>:
 8005fec:	4b0f      	ldr	r3, [pc, #60]	; (800602c <__ulp+0x40>)
 8005fee:	400b      	ands	r3, r1
 8005ff0:	f1a3 7350 	sub.w	r3, r3, #54525952	; 0x3400000
 8005ff4:	2b00      	cmp	r3, #0
 8005ff6:	dd02      	ble.n	8005ffe <__ulp+0x12>
 8005ff8:	2000      	movs	r0, #0
 8005ffa:	4619      	mov	r1, r3
 8005ffc:	4770      	bx	lr
 8005ffe:	425b      	negs	r3, r3
 8006000:	151b      	asrs	r3, r3, #20
 8006002:	2b13      	cmp	r3, #19
 8006004:	dd0b      	ble.n	800601e <__ulp+0x32>
 8006006:	3b14      	subs	r3, #20
 8006008:	2b1e      	cmp	r3, #30
 800600a:	bfdd      	ittte	le
 800600c:	f1c3 031f 	rsble	r3, r3, #31
 8006010:	2201      	movle	r2, #1
 8006012:	fa02 f303 	lslle.w	r3, r2, r3
 8006016:	2301      	movgt	r3, #1
 8006018:	2100      	movs	r1, #0
 800601a:	4618      	mov	r0, r3
 800601c:	4770      	bx	lr
 800601e:	f44f 2200 	mov.w	r2, #524288	; 0x80000
 8006022:	2000      	movs	r0, #0
 8006024:	fa42 f103 	asr.w	r1, r2, r3
 8006028:	4770      	bx	lr
 800602a:	bf00      	nop
 800602c:	7ff00000 	.word	0x7ff00000

08006030 <__b2d>:
 8006030:	e92d 41f0 	stmdb	sp!, {r4, r5, r6, r7, r8, lr}
 8006034:	6906      	ldr	r6, [r0, #16]
 8006036:	f100 0814 	add.w	r8, r0, #20
 800603a:	eb08 0686 	add.w	r6, r8, r6, lsl #2
 800603e:	f856 7c04 	ldr.w	r7, [r6, #-4]
 8006042:	4638      	mov	r0, r7
 8006044:	f7ff fd9a 	bl	8005b7c <__hi0bits>
 8006048:	f1c0 0320 	rsb	r3, r0, #32
 800604c:	280a      	cmp	r0, #10
 800604e:	600b      	str	r3, [r1, #0]
 8006050:	f1a6 0204 	sub.w	r2, r6, #4
 8006054:	dc19      	bgt.n	800608a <__b2d+0x5a>
 8006056:	4590      	cmp	r8, r2
 8006058:	bf38      	it	cc
 800605a:	f856 2c08 	ldrcc.w	r2, [r6, #-8]
 800605e:	f1c0 030b 	rsb	r3, r0, #11
 8006062:	fa27 f103 	lsr.w	r1, r7, r3
 8006066:	bf38      	it	cc
 8006068:	40da      	lsrcc	r2, r3
 800606a:	f100 0315 	add.w	r3, r0, #21
 800606e:	f041 557f 	orr.w	r5, r1, #1069547520	; 0x3fc00000
 8006072:	bf28      	it	cs
 8006074:	2200      	movcs	r2, #0
 8006076:	fa07 f303 	lsl.w	r3, r7, r3
 800607a:	f445 1540 	orr.w	r5, r5, #3145728	; 0x300000
 800607e:	ea43 0402 	orr.w	r4, r3, r2
 8006082:	4620      	mov	r0, r4
 8006084:	4629      	mov	r1, r5
 8006086:	e8bd 81f0 	ldmia.w	sp!, {r4, r5, r6, r7, r8, pc}
 800608a:	4590      	cmp	r8, r2
 800608c:	f1a0 030b 	sub.w	r3, r0, #11
 8006090:	d21c      	bcs.n	80060cc <__b2d+0x9c>
 8006092:	f856 0c08 	ldr.w	r0, [r6, #-8]
 8006096:	b1db      	cbz	r3, 80060d0 <__b2d+0xa0>
 8006098:	409f      	lsls	r7, r3
 800609a:	f047 577f 	orr.w	r7, r7, #1069547520	; 0x3fc00000
 800609e:	f1c3 0120 	rsb	r1, r3, #32
 80060a2:	f1a6 0208 	sub.w	r2, r6, #8
 80060a6:	fa20 fc01 	lsr.w	ip, r0, r1
 80060aa:	f447 1740 	orr.w	r7, r7, #3145728	; 0x300000
 80060ae:	4590      	cmp	r8, r2
 80060b0:	fa00 f003 	lsl.w	r0, r0, r3
 80060b4:	ea47 050c 	orr.w	r5, r7, ip
 80060b8:	d203      	bcs.n	80060c2 <__b2d+0x92>
 80060ba:	f856 3c0c 	ldr.w	r3, [r6, #-12]
 80060be:	40cb      	lsrs	r3, r1
 80060c0:	4318      	orrs	r0, r3
 80060c2:	4604      	mov	r4, r0
 80060c4:	4620      	mov	r0, r4
 80060c6:	4629      	mov	r1, r5
 80060c8:	e8bd 81f0 	ldmia.w	sp!, {r4, r5, r6, r7, r8, pc}
 80060cc:	b933      	cbnz	r3, 80060dc <__b2d+0xac>
 80060ce:	4618      	mov	r0, r3
 80060d0:	f047 557f 	orr.w	r5, r7, #1069547520	; 0x3fc00000
 80060d4:	f445 1540 	orr.w	r5, r5, #3145728	; 0x300000
 80060d8:	4604      	mov	r4, r0
 80060da:	e7f3      	b.n	80060c4 <__b2d+0x94>
 80060dc:	fa07 f303 	lsl.w	r3, r7, r3
 80060e0:	f043 557f 	orr.w	r5, r3, #1069547520	; 0x3fc00000
 80060e4:	2000      	movs	r0, #0
 80060e6:	f445 1540 	orr.w	r5, r5, #3145728	; 0x300000
 80060ea:	4604      	mov	r4, r0
 80060ec:	e7ea      	b.n	80060c4 <__b2d+0x94>
 80060ee:	bf00      	nop

080060f0 <__d2b>:
 80060f0:	e92d 41f0 	stmdb	sp!, {r4, r5, r6, r7, r8, lr}
 80060f4:	2101      	movs	r1, #1
 80060f6:	b082      	sub	sp, #8
 80060f8:	461c      	mov	r4, r3
 80060fa:	4690      	mov	r8, r2
 80060fc:	e9dd 6508 	ldrd	r6, r5, [sp, #32]
 8006100:	f7ff fc80 	bl	8005a04 <_Balloc>
 8006104:	4623      	mov	r3, r4
 8006106:	f3c4 540a 	ubfx	r4, r4, #20, #11
 800610a:	4607      	mov	r7, r0
 800610c:	f3c3 0313 	ubfx	r3, r3, #0, #20
 8006110:	b10c      	cbz	r4, 8006116 <__d2b+0x26>
 8006112:	f443 1380 	orr.w	r3, r3, #1048576	; 0x100000
 8006116:	f1b8 0200 	subs.w	r2, r8, #0
 800611a:	9301      	str	r3, [sp, #4]
 800611c:	d01f      	beq.n	800615e <__d2b+0x6e>
 800611e:	a802      	add	r0, sp, #8
 8006120:	f840 2d08 	str.w	r2, [r0, #-8]!
 8006124:	f7ff fd4a 	bl	8005bbc <__lo0bits>
 8006128:	2800      	cmp	r0, #0
 800612a:	d12d      	bne.n	8006188 <__d2b+0x98>
 800612c:	e9dd 2300 	ldrd	r2, r3, [sp]
 8006130:	617a      	str	r2, [r7, #20]
 8006132:	2b00      	cmp	r3, #0
 8006134:	bf0c      	ite	eq
 8006136:	2101      	moveq	r1, #1
 8006138:	2102      	movne	r1, #2
 800613a:	61bb      	str	r3, [r7, #24]
 800613c:	6139      	str	r1, [r7, #16]
 800613e:	b9c4      	cbnz	r4, 8006172 <__d2b+0x82>
 8006140:	eb07 0381 	add.w	r3, r7, r1, lsl #2
 8006144:	f2a0 4032 	subw	r0, r0, #1074	; 0x432
 8006148:	6030      	str	r0, [r6, #0]
 800614a:	6918      	ldr	r0, [r3, #16]
 800614c:	f7ff fd16 	bl	8005b7c <__hi0bits>
 8006150:	ebc0 1041 	rsb	r0, r0, r1, lsl #5
 8006154:	6028      	str	r0, [r5, #0]
 8006156:	4638      	mov	r0, r7
 8006158:	b002      	add	sp, #8
 800615a:	e8bd 81f0 	ldmia.w	sp!, {r4, r5, r6, r7, r8, pc}
 800615e:	a801      	add	r0, sp, #4
 8006160:	f7ff fd2c 	bl	8005bbc <__lo0bits>
 8006164:	9b01      	ldr	r3, [sp, #4]
 8006166:	617b      	str	r3, [r7, #20]
 8006168:	2101      	movs	r1, #1
 800616a:	3020      	adds	r0, #32
 800616c:	6139      	str	r1, [r7, #16]
 800616e:	2c00      	cmp	r4, #0
 8006170:	d0e6      	beq.n	8006140 <__d2b+0x50>
 8006172:	f2a4 4333 	subw	r3, r4, #1075	; 0x433
 8006176:	4403      	add	r3, r0
 8006178:	f1c0 0035 	rsb	r0, r0, #53	; 0x35
 800617c:	6033      	str	r3, [r6, #0]
 800617e:	6028      	str	r0, [r5, #0]
 8006180:	4638      	mov	r0, r7
 8006182:	b002      	add	sp, #8
 8006184:	e8bd 81f0 	ldmia.w	sp!, {r4, r5, r6, r7, r8, pc}
 8006188:	e9dd 1300 	ldrd	r1, r3, [sp]
 800618c:	f1c0 0220 	rsb	r2, r0, #32
 8006190:	fa03 f202 	lsl.w	r2, r3, r2
 8006194:	430a      	orrs	r2, r1
 8006196:	40c3      	lsrs	r3, r0
 8006198:	9301      	str	r3, [sp, #4]
 800619a:	617a      	str	r2, [r7, #20]
 800619c:	e7c9      	b.n	8006132 <__d2b+0x42>
 800619e:	bf00      	nop

080061a0 <__ratio>:
 80061a0:	e92d 43f0 	stmdb	sp!, {r4, r5, r6, r7, r8, r9, lr}
 80061a4:	b083      	sub	sp, #12
 80061a6:	4688      	mov	r8, r1
 80061a8:	4669      	mov	r1, sp
 80061aa:	4681      	mov	r9, r0
 80061ac:	f7ff ff40 	bl	8006030 <__b2d>
 80061b0:	4604      	mov	r4, r0
 80061b2:	460d      	mov	r5, r1
 80061b4:	4640      	mov	r0, r8
 80061b6:	a901      	add	r1, sp, #4
 80061b8:	f7ff ff3a 	bl	8006030 <__b2d>
 80061bc:	460f      	mov	r7, r1
 80061be:	e9dd 1300 	ldrd	r1, r3, [sp]
 80061c2:	4606      	mov	r6, r0
 80061c4:	f8d9 2010 	ldr.w	r2, [r9, #16]
 80061c8:	f8d8 0010 	ldr.w	r0, [r8, #16]
 80061cc:	1acb      	subs	r3, r1, r3
 80061ce:	1a12      	subs	r2, r2, r0
 80061d0:	eb03 1342 	add.w	r3, r3, r2, lsl #5
 80061d4:	2b00      	cmp	r3, #0
 80061d6:	dd0b      	ble.n	80061f0 <__ratio+0x50>
 80061d8:	eb05 5903 	add.w	r9, r5, r3, lsl #20
 80061dc:	464d      	mov	r5, r9
 80061de:	4632      	mov	r2, r6
 80061e0:	463b      	mov	r3, r7
 80061e2:	4620      	mov	r0, r4
 80061e4:	4629      	mov	r1, r5
 80061e6:	f7fb fe9f 	bl	8001f28 <__aeabi_ddiv>
 80061ea:	b003      	add	sp, #12
 80061ec:	e8bd 83f0 	ldmia.w	sp!, {r4, r5, r6, r7, r8, r9, pc}
 80061f0:	ebc3 3303 	rsb	r3, r3, r3, lsl #12
 80061f4:	eb07 5103 	add.w	r1, r7, r3, lsl #20
 80061f8:	460f      	mov	r7, r1
 80061fa:	e7f0      	b.n	80061de <__ratio+0x3e>

080061fc <_mprec_log10>:
 80061fc:	2817      	cmp	r0, #23
 80061fe:	b5d0      	push	{r4, r6, r7, lr}
 8006200:	4604      	mov	r4, r0
 8006202:	dd0a      	ble.n	800621a <_mprec_log10+0x1e>
 8006204:	4908      	ldr	r1, [pc, #32]	; (8006228 <_mprec_log10+0x2c>)
 8006206:	4f09      	ldr	r7, [pc, #36]	; (800622c <_mprec_log10+0x30>)
 8006208:	2000      	movs	r0, #0
 800620a:	2600      	movs	r6, #0
 800620c:	4632      	mov	r2, r6
 800620e:	463b      	mov	r3, r7
 8006210:	f7fb fd60 	bl	8001cd4 <__aeabi_dmul>
 8006214:	3c01      	subs	r4, #1
 8006216:	d1f9      	bne.n	800620c <_mprec_log10+0x10>
 8006218:	bdd0      	pop	{r4, r6, r7, pc}
 800621a:	4b05      	ldr	r3, [pc, #20]	; (8006230 <_mprec_log10+0x34>)
 800621c:	eb03 04c0 	add.w	r4, r3, r0, lsl #3
 8006220:	e9d4 0100 	ldrd	r0, r1, [r4]
 8006224:	bdd0      	pop	{r4, r6, r7, pc}
 8006226:	bf00      	nop
 8006228:	3ff00000 	.word	0x3ff00000
 800622c:	40240000 	.word	0x40240000
 8006230:	08007c70 	.word	0x08007c70

08006234 <__copybits>:
 8006234:	b470      	push	{r4, r5, r6}
 8006236:	6914      	ldr	r4, [r2, #16]
 8006238:	1e4d      	subs	r5, r1, #1
 800623a:	f102 0314 	add.w	r3, r2, #20
 800623e:	eb03 0184 	add.w	r1, r3, r4, lsl #2
 8006242:	116d      	asrs	r5, r5, #5
 8006244:	3501      	adds	r5, #1
 8006246:	428b      	cmp	r3, r1
 8006248:	eb00 0485 	add.w	r4, r0, r5, lsl #2
 800624c:	d20c      	bcs.n	8006268 <__copybits+0x34>
 800624e:	1f05      	subs	r5, r0, #4
 8006250:	f853 6b04 	ldr.w	r6, [r3], #4
 8006254:	f845 6f04 	str.w	r6, [r5, #4]!
 8006258:	4299      	cmp	r1, r3
 800625a:	d8f9      	bhi.n	8006250 <__copybits+0x1c>
 800625c:	1a8b      	subs	r3, r1, r2
 800625e:	3b15      	subs	r3, #21
 8006260:	f023 0303 	bic.w	r3, r3, #3
 8006264:	3304      	adds	r3, #4
 8006266:	4418      	add	r0, r3
 8006268:	4284      	cmp	r4, r0
 800626a:	d904      	bls.n	8006276 <__copybits+0x42>
 800626c:	2300      	movs	r3, #0
 800626e:	f840 3b04 	str.w	r3, [r0], #4
 8006272:	4284      	cmp	r4, r0
 8006274:	d8fb      	bhi.n	800626e <__copybits+0x3a>
 8006276:	bc70      	pop	{r4, r5, r6}
 8006278:	4770      	bx	lr
 800627a:	bf00      	nop

0800627c <__any_on>:
 800627c:	6903      	ldr	r3, [r0, #16]
 800627e:	b410      	push	{r4}
 8006280:	114c      	asrs	r4, r1, #5
 8006282:	42a3      	cmp	r3, r4
 8006284:	f100 0214 	add.w	r2, r0, #20
 8006288:	da0f      	bge.n	80062aa <__any_on+0x2e>
 800628a:	eb02 0383 	add.w	r3, r2, r3, lsl #2
 800628e:	429a      	cmp	r2, r3
 8006290:	d21c      	bcs.n	80062cc <__any_on+0x50>
 8006292:	f853 0c04 	ldr.w	r0, [r3, #-4]
 8006296:	3b04      	subs	r3, #4
 8006298:	b118      	cbz	r0, 80062a2 <__any_on+0x26>
 800629a:	e014      	b.n	80062c6 <__any_on+0x4a>
 800629c:	f853 1d04 	ldr.w	r1, [r3, #-4]!
 80062a0:	b989      	cbnz	r1, 80062c6 <__any_on+0x4a>
 80062a2:	429a      	cmp	r2, r3
 80062a4:	d3fa      	bcc.n	800629c <__any_on+0x20>
 80062a6:	bc10      	pop	{r4}
 80062a8:	4770      	bx	lr
 80062aa:	eb02 0384 	add.w	r3, r2, r4, lsl #2
 80062ae:	ddee      	ble.n	800628e <__any_on+0x12>
 80062b0:	f011 011f 	ands.w	r1, r1, #31
 80062b4:	d0eb      	beq.n	800628e <__any_on+0x12>
 80062b6:	f852 4024 	ldr.w	r4, [r2, r4, lsl #2]
 80062ba:	fa24 f001 	lsr.w	r0, r4, r1
 80062be:	fa00 f101 	lsl.w	r1, r0, r1
 80062c2:	428c      	cmp	r4, r1
 80062c4:	d0e3      	beq.n	800628e <__any_on+0x12>
 80062c6:	2001      	movs	r0, #1
 80062c8:	bc10      	pop	{r4}
 80062ca:	4770      	bx	lr
 80062cc:	2000      	movs	r0, #0
 80062ce:	e7ea      	b.n	80062a6 <__any_on+0x2a>

080062d0 <cleanup_glue>:
 80062d0:	b538      	push	{r3, r4, r5, lr}
 80062d2:	460c      	mov	r4, r1
 80062d4:	6809      	ldr	r1, [r1, #0]
 80062d6:	4605      	mov	r5, r0
 80062d8:	b929      	cbnz	r1, 80062e6 <cleanup_glue+0x16>
 80062da:	4621      	mov	r1, r4
 80062dc:	4628      	mov	r0, r5
 80062de:	e8bd 4038 	ldmia.w	sp!, {r3, r4, r5, lr}
 80062e2:	f7ff b97f 	b.w	80055e4 <_free_r>
 80062e6:	f7ff fff3 	bl	80062d0 <cleanup_glue>
 80062ea:	4621      	mov	r1, r4
 80062ec:	4628      	mov	r0, r5
 80062ee:	e8bd 4038 	ldmia.w	sp!, {r3, r4, r5, lr}
 80062f2:	f7ff b977 	b.w	80055e4 <_free_r>
 80062f6:	bf00      	nop

080062f8 <_reclaim_reent>:
 80062f8:	4b20      	ldr	r3, [pc, #128]	; (800637c <_reclaim_reent+0x84>)
 80062fa:	681b      	ldr	r3, [r3, #0]
 80062fc:	4283      	cmp	r3, r0
 80062fe:	d03b      	beq.n	8006378 <_reclaim_reent+0x80>
 8006300:	6cc3      	ldr	r3, [r0, #76]	; 0x4c
 8006302:	b570      	push	{r4, r5, r6, lr}
 8006304:	4605      	mov	r5, r0
 8006306:	b18b      	cbz	r3, 800632c <_reclaim_reent+0x34>
 8006308:	2600      	movs	r6, #0
 800630a:	5999      	ldr	r1, [r3, r6]
 800630c:	b139      	cbz	r1, 800631e <_reclaim_reent+0x26>
 800630e:	680c      	ldr	r4, [r1, #0]
 8006310:	4628      	mov	r0, r5
 8006312:	f7ff f967 	bl	80055e4 <_free_r>
 8006316:	4621      	mov	r1, r4
 8006318:	2c00      	cmp	r4, #0
 800631a:	d1f8      	bne.n	800630e <_reclaim_reent+0x16>
 800631c:	6ceb      	ldr	r3, [r5, #76]	; 0x4c
 800631e:	3604      	adds	r6, #4
 8006320:	2e80      	cmp	r6, #128	; 0x80
 8006322:	d1f2      	bne.n	800630a <_reclaim_reent+0x12>
 8006324:	4619      	mov	r1, r3
 8006326:	4628      	mov	r0, r5
 8006328:	f7ff f95c 	bl	80055e4 <_free_r>
 800632c:	6c29      	ldr	r1, [r5, #64]	; 0x40
 800632e:	b111      	cbz	r1, 8006336 <_reclaim_reent+0x3e>
 8006330:	4628      	mov	r0, r5
 8006332:	f7ff f957 	bl	80055e4 <_free_r>
 8006336:	f8d5 1148 	ldr.w	r1, [r5, #328]	; 0x148
 800633a:	b151      	cbz	r1, 8006352 <_reclaim_reent+0x5a>
 800633c:	f505 76a6 	add.w	r6, r5, #332	; 0x14c
 8006340:	42b1      	cmp	r1, r6
 8006342:	d006      	beq.n	8006352 <_reclaim_reent+0x5a>
 8006344:	680c      	ldr	r4, [r1, #0]
 8006346:	4628      	mov	r0, r5
 8006348:	f7ff f94c 	bl	80055e4 <_free_r>
 800634c:	42a6      	cmp	r6, r4
 800634e:	4621      	mov	r1, r4
 8006350:	d1f8      	bne.n	8006344 <_reclaim_reent+0x4c>
 8006352:	6d69      	ldr	r1, [r5, #84]	; 0x54
 8006354:	b111      	cbz	r1, 800635c <_reclaim_reent+0x64>
 8006356:	4628      	mov	r0, r5
 8006358:	f7ff f944 	bl	80055e4 <_free_r>
 800635c:	6bab      	ldr	r3, [r5, #56]	; 0x38
 800635e:	b153      	cbz	r3, 8006376 <_reclaim_reent+0x7e>
 8006360:	6beb      	ldr	r3, [r5, #60]	; 0x3c
 8006362:	4628      	mov	r0, r5
 8006364:	4798      	blx	r3
 8006366:	f8d5 12e0 	ldr.w	r1, [r5, #736]	; 0x2e0
 800636a:	b121      	cbz	r1, 8006376 <_reclaim_reent+0x7e>
 800636c:	4628      	mov	r0, r5
 800636e:	e8bd 4070 	ldmia.w	sp!, {r4, r5, r6, lr}
 8006372:	f7ff bfad 	b.w	80062d0 <cleanup_glue>
 8006376:	bd70      	pop	{r4, r5, r6, pc}
 8006378:	4770      	bx	lr
 800637a:	bf00      	nop
 800637c:	20000004 	.word	0x20000004

08006380 <frexp>:
 8006380:	f8df c05c 	ldr.w	ip, [pc, #92]	; 80063e0 <frexp+0x60>
 8006384:	b5f8      	push	{r3, r4, r5, r6, r7, lr}
 8006386:	f021 4300 	bic.w	r3, r1, #2147483648	; 0x80000000
 800638a:	2700      	movs	r7, #0
 800638c:	4563      	cmp	r3, ip
 800638e:	4604      	mov	r4, r0
 8006390:	460d      	mov	r5, r1
 8006392:	4616      	mov	r6, r2
 8006394:	6017      	str	r7, [r2, #0]
 8006396:	dc1e      	bgt.n	80063d6 <frexp+0x56>
 8006398:	4684      	mov	ip, r0
 800639a:	ea53 0c0c 	orrs.w	ip, r3, ip
 800639e:	d01a      	beq.n	80063d6 <frexp+0x56>
 80063a0:	f5b3 1f80 	cmp.w	r3, #1048576	; 0x100000
 80063a4:	460a      	mov	r2, r1
 80063a6:	da09      	bge.n	80063bc <frexp+0x3c>
 80063a8:	2200      	movs	r2, #0
 80063aa:	4b0c      	ldr	r3, [pc, #48]	; (80063dc <frexp+0x5c>)
 80063ac:	f7fb fc92 	bl	8001cd4 <__aeabi_dmul>
 80063b0:	f06f 0735 	mvn.w	r7, #53	; 0x35
 80063b4:	4604      	mov	r4, r0
 80063b6:	460a      	mov	r2, r1
 80063b8:	f021 4300 	bic.w	r3, r1, #2147483648	; 0x80000000
 80063bc:	f022 42ff 	bic.w	r2, r2, #2139095040	; 0x7f800000
 80063c0:	151b      	asrs	r3, r3, #20
 80063c2:	f422 02e0 	bic.w	r2, r2, #7340032	; 0x700000
 80063c6:	f2a3 33fe 	subw	r3, r3, #1022	; 0x3fe
 80063ca:	f042 557f 	orr.w	r5, r2, #1069547520	; 0x3fc00000
 80063ce:	443b      	add	r3, r7
 80063d0:	f445 1500 	orr.w	r5, r5, #2097152	; 0x200000
 80063d4:	6033      	str	r3, [r6, #0]
 80063d6:	4620      	mov	r0, r4
 80063d8:	4629      	mov	r1, r5
 80063da:	bdf8      	pop	{r3, r4, r5, r6, r7, pc}
 80063dc:	43500000 	.word	0x43500000
 80063e0:	7fefffff 	.word	0x7fefffff

080063e4 <strncpy>:
 80063e4:	ea40 0301 	orr.w	r3, r0, r1
 80063e8:	079b      	lsls	r3, r3, #30
 80063ea:	b470      	push	{r4, r5, r6}
 80063ec:	d12a      	bne.n	8006444 <strncpy+0x60>
 80063ee:	2a03      	cmp	r2, #3
 80063f0:	d928      	bls.n	8006444 <strncpy+0x60>
 80063f2:	460c      	mov	r4, r1
 80063f4:	4603      	mov	r3, r0
 80063f6:	4621      	mov	r1, r4
 80063f8:	f854 6b04 	ldr.w	r6, [r4], #4
 80063fc:	f1a6 3501 	sub.w	r5, r6, #16843009	; 0x1010101
 8006400:	ea25 0506 	bic.w	r5, r5, r6
 8006404:	f015 3f80 	tst.w	r5, #2155905152	; 0x80808080
 8006408:	d106      	bne.n	8006418 <strncpy+0x34>
 800640a:	3a04      	subs	r2, #4
 800640c:	2a03      	cmp	r2, #3
 800640e:	f843 6b04 	str.w	r6, [r3], #4
 8006412:	4621      	mov	r1, r4
 8006414:	d8ef      	bhi.n	80063f6 <strncpy+0x12>
 8006416:	b19a      	cbz	r2, 8006440 <strncpy+0x5c>
 8006418:	780c      	ldrb	r4, [r1, #0]
 800641a:	701c      	strb	r4, [r3, #0]
 800641c:	3a01      	subs	r2, #1
 800641e:	3301      	adds	r3, #1
 8006420:	b13c      	cbz	r4, 8006432 <strncpy+0x4e>
 8006422:	b16a      	cbz	r2, 8006440 <strncpy+0x5c>
 8006424:	f811 4f01 	ldrb.w	r4, [r1, #1]!
 8006428:	f803 4b01 	strb.w	r4, [r3], #1
 800642c:	3a01      	subs	r2, #1
 800642e:	2c00      	cmp	r4, #0
 8006430:	d1f7      	bne.n	8006422 <strncpy+0x3e>
 8006432:	b12a      	cbz	r2, 8006440 <strncpy+0x5c>
 8006434:	441a      	add	r2, r3
 8006436:	2100      	movs	r1, #0
 8006438:	f803 1b01 	strb.w	r1, [r3], #1
 800643c:	4293      	cmp	r3, r2
 800643e:	d1fb      	bne.n	8006438 <strncpy+0x54>
 8006440:	bc70      	pop	{r4, r5, r6}
 8006442:	4770      	bx	lr
 8006444:	4603      	mov	r3, r0
 8006446:	e7e6      	b.n	8006416 <strncpy+0x32>

08006448 <__ssprint_r>:
 8006448:	e92d 4ff0 	stmdb	sp!, {r4, r5, r6, r7, r8, r9, sl, fp, lr}
 800644c:	6893      	ldr	r3, [r2, #8]
 800644e:	b083      	sub	sp, #12
 8006450:	4690      	mov	r8, r2
 8006452:	2b00      	cmp	r3, #0
 8006454:	d06c      	beq.n	8006530 <__ssprint_r+0xe8>
 8006456:	6817      	ldr	r7, [r2, #0]
 8006458:	688d      	ldr	r5, [r1, #8]
 800645a:	4682      	mov	sl, r0
 800645c:	460c      	mov	r4, r1
 800645e:	6808      	ldr	r0, [r1, #0]
 8006460:	3708      	adds	r7, #8
 8006462:	e042      	b.n	80064ea <__ssprint_r+0xa2>
 8006464:	89a3      	ldrh	r3, [r4, #12]
 8006466:	f413 6f90 	tst.w	r3, #1152	; 0x480
 800646a:	d02d      	beq.n	80064c8 <__ssprint_r+0x80>
 800646c:	e9d4 1504 	ldrd	r1, r5, [r4, #16]
 8006470:	eb05 0545 	add.w	r5, r5, r5, lsl #1
 8006474:	eba0 0b01 	sub.w	fp, r0, r1
 8006478:	eb05 75d5 	add.w	r5, r5, r5, lsr #31
 800647c:	1c70      	adds	r0, r6, #1
 800647e:	106d      	asrs	r5, r5, #1
 8006480:	4458      	add	r0, fp
 8006482:	42a8      	cmp	r0, r5
 8006484:	462a      	mov	r2, r5
 8006486:	bf84      	itt	hi
 8006488:	4605      	movhi	r5, r0
 800648a:	462a      	movhi	r2, r5
 800648c:	055b      	lsls	r3, r3, #21
 800648e:	d536      	bpl.n	80064fe <__ssprint_r+0xb6>
 8006490:	4611      	mov	r1, r2
 8006492:	4650      	mov	r0, sl
 8006494:	f7fb ff5c 	bl	8002350 <_malloc_r>
 8006498:	2800      	cmp	r0, #0
 800649a:	d03a      	beq.n	8006512 <__ssprint_r+0xca>
 800649c:	465a      	mov	r2, fp
 800649e:	6921      	ldr	r1, [r4, #16]
 80064a0:	9001      	str	r0, [sp, #4]
 80064a2:	f7ff fa15 	bl	80058d0 <memcpy>
 80064a6:	89a2      	ldrh	r2, [r4, #12]
 80064a8:	9b01      	ldr	r3, [sp, #4]
 80064aa:	f422 6290 	bic.w	r2, r2, #1152	; 0x480
 80064ae:	f042 0280 	orr.w	r2, r2, #128	; 0x80
 80064b2:	81a2      	strh	r2, [r4, #12]
 80064b4:	eba5 020b 	sub.w	r2, r5, fp
 80064b8:	eb03 000b 	add.w	r0, r3, fp
 80064bc:	6165      	str	r5, [r4, #20]
 80064be:	6123      	str	r3, [r4, #16]
 80064c0:	6020      	str	r0, [r4, #0]
 80064c2:	60a2      	str	r2, [r4, #8]
 80064c4:	4635      	mov	r5, r6
 80064c6:	46b3      	mov	fp, r6
 80064c8:	465a      	mov	r2, fp
 80064ca:	4649      	mov	r1, r9
 80064cc:	f000 fe3e 	bl	800714c <memmove>
 80064d0:	f8d8 3008 	ldr.w	r3, [r8, #8]
 80064d4:	68a2      	ldr	r2, [r4, #8]
 80064d6:	6820      	ldr	r0, [r4, #0]
 80064d8:	1b55      	subs	r5, r2, r5
 80064da:	4458      	add	r0, fp
 80064dc:	1b9e      	subs	r6, r3, r6
 80064de:	60a5      	str	r5, [r4, #8]
 80064e0:	6020      	str	r0, [r4, #0]
 80064e2:	f8c8 6008 	str.w	r6, [r8, #8]
 80064e6:	b31e      	cbz	r6, 8006530 <__ssprint_r+0xe8>
 80064e8:	3708      	adds	r7, #8
 80064ea:	e957 9602 	ldrd	r9, r6, [r7, #-8]
 80064ee:	46ab      	mov	fp, r5
 80064f0:	2e00      	cmp	r6, #0
 80064f2:	d0f9      	beq.n	80064e8 <__ssprint_r+0xa0>
 80064f4:	42ae      	cmp	r6, r5
 80064f6:	d2b5      	bcs.n	8006464 <__ssprint_r+0x1c>
 80064f8:	4635      	mov	r5, r6
 80064fa:	46b3      	mov	fp, r6
 80064fc:	e7e4      	b.n	80064c8 <__ssprint_r+0x80>
 80064fe:	4650      	mov	r0, sl
 8006500:	f000 fe88 	bl	8007214 <_realloc_r>
 8006504:	4603      	mov	r3, r0
 8006506:	2800      	cmp	r0, #0
 8006508:	d1d4      	bne.n	80064b4 <__ssprint_r+0x6c>
 800650a:	6921      	ldr	r1, [r4, #16]
 800650c:	4650      	mov	r0, sl
 800650e:	f7ff f869 	bl	80055e4 <_free_r>
 8006512:	230c      	movs	r3, #12
 8006514:	f8ca 3000 	str.w	r3, [sl]
 8006518:	89a3      	ldrh	r3, [r4, #12]
 800651a:	2200      	movs	r2, #0
 800651c:	f043 0340 	orr.w	r3, r3, #64	; 0x40
 8006520:	f04f 30ff 	mov.w	r0, #4294967295	; 0xffffffff
 8006524:	81a3      	strh	r3, [r4, #12]
 8006526:	e9c8 2201 	strd	r2, r2, [r8, #4]
 800652a:	b003      	add	sp, #12
 800652c:	e8bd 8ff0 	ldmia.w	sp!, {r4, r5, r6, r7, r8, r9, sl, fp, pc}
 8006530:	2000      	movs	r0, #0
 8006532:	f8c8 0004 	str.w	r0, [r8, #4]
 8006536:	b003      	add	sp, #12
 8006538:	e8bd 8ff0 	ldmia.w	sp!, {r4, r5, r6, r7, r8, r9, sl, fp, pc}

0800653c <_svfiprintf_r>:
 800653c:	e92d 4ff0 	stmdb	sp!, {r4, r5, r6, r7, r8, r9, sl, fp, lr}
 8006540:	4691      	mov	r9, r2
 8006542:	898a      	ldrh	r2, [r1, #12]
 8006544:	b0bd      	sub	sp, #244	; 0xf4
 8006546:	0616      	lsls	r6, r2, #24
 8006548:	9101      	str	r1, [sp, #4]
 800654a:	e9cd 0306 	strd	r0, r3, [sp, #24]
 800654e:	d503      	bpl.n	8006558 <_svfiprintf_r+0x1c>
 8006550:	690b      	ldr	r3, [r1, #16]
 8006552:	2b00      	cmp	r3, #0
 8006554:	f000 8512 	beq.w	8006f7c <_svfiprintf_r+0xa40>
 8006558:	2300      	movs	r3, #0
 800655a:	9309      	str	r3, [sp, #36]	; 0x24
 800655c:	e9cd 3311 	strd	r3, r3, [sp, #68]	; 0x44
 8006560:	930a      	str	r3, [sp, #40]	; 0x28
 8006562:	e9cd 330b 	strd	r3, r3, [sp, #44]	; 0x2c
 8006566:	9303      	str	r3, [sp, #12]
 8006568:	ab13      	add	r3, sp, #76	; 0x4c
 800656a:	9310      	str	r3, [sp, #64]	; 0x40
 800656c:	469a      	mov	sl, r3
 800656e:	f899 3000 	ldrb.w	r3, [r9]
 8006572:	2b00      	cmp	r3, #0
 8006574:	f000 80b6 	beq.w	80066e4 <_svfiprintf_r+0x1a8>
 8006578:	2b25      	cmp	r3, #37	; 0x25
 800657a:	464c      	mov	r4, r9
 800657c:	d102      	bne.n	8006584 <_svfiprintf_r+0x48>
 800657e:	e01e      	b.n	80065be <_svfiprintf_r+0x82>
 8006580:	2b25      	cmp	r3, #37	; 0x25
 8006582:	d003      	beq.n	800658c <_svfiprintf_r+0x50>
 8006584:	f814 3f01 	ldrb.w	r3, [r4, #1]!
 8006588:	2b00      	cmp	r3, #0
 800658a:	d1f9      	bne.n	8006580 <_svfiprintf_r+0x44>
 800658c:	eba4 0509 	sub.w	r5, r4, r9
 8006590:	b18d      	cbz	r5, 80065b6 <_svfiprintf_r+0x7a>
 8006592:	e9dd 3211 	ldrd	r3, r2, [sp, #68]	; 0x44
 8006596:	3301      	adds	r3, #1
 8006598:	442a      	add	r2, r5
 800659a:	2b07      	cmp	r3, #7
 800659c:	f8ca 9000 	str.w	r9, [sl]
 80065a0:	f8ca 5004 	str.w	r5, [sl, #4]
 80065a4:	e9cd 3211 	strd	r3, r2, [sp, #68]	; 0x44
 80065a8:	f300 8093 	bgt.w	80066d2 <_svfiprintf_r+0x196>
 80065ac:	f10a 0a08 	add.w	sl, sl, #8
 80065b0:	9b03      	ldr	r3, [sp, #12]
 80065b2:	442b      	add	r3, r5
 80065b4:	9303      	str	r3, [sp, #12]
 80065b6:	7823      	ldrb	r3, [r4, #0]
 80065b8:	2b00      	cmp	r3, #0
 80065ba:	f000 8093 	beq.w	80066e4 <_svfiprintf_r+0x1a8>
 80065be:	2300      	movs	r3, #0
 80065c0:	f04f 0200 	mov.w	r2, #0
 80065c4:	9305      	str	r3, [sp, #20]
 80065c6:	f88d 203b 	strb.w	r2, [sp, #59]	; 0x3b
 80065ca:	469b      	mov	fp, r3
 80065cc:	f04f 32ff 	mov.w	r2, #4294967295	; 0xffffffff
 80065d0:	7863      	ldrb	r3, [r4, #1]
 80065d2:	9202      	str	r2, [sp, #8]
 80065d4:	f104 0901 	add.w	r9, r4, #1
 80065d8:	252b      	movs	r5, #43	; 0x2b
 80065da:	f109 0901 	add.w	r9, r9, #1
 80065de:	f1a3 0220 	sub.w	r2, r3, #32
 80065e2:	2a5a      	cmp	r2, #90	; 0x5a
 80065e4:	f200 8376 	bhi.w	8006cd4 <_svfiprintf_r+0x798>
 80065e8:	e8df f012 	tbh	[pc, r2, lsl #1]
 80065ec:	03740175 	.word	0x03740175
 80065f0:	01700374 	.word	0x01700374
 80065f4:	03740374 	.word	0x03740374
 80065f8:	01510374 	.word	0x01510374
 80065fc:	03740374 	.word	0x03740374
 8006600:	02db02e0 	.word	0x02db02e0
 8006604:	019a0374 	.word	0x019a0374
 8006608:	03740180 	.word	0x03740180
 800660c:	013502d6 	.word	0x013502d6
 8006610:	01350135 	.word	0x01350135
 8006614:	01350135 	.word	0x01350135
 8006618:	01350135 	.word	0x01350135
 800661c:	01350135 	.word	0x01350135
 8006620:	03740374 	.word	0x03740374
 8006624:	03740374 	.word	0x03740374
 8006628:	03740374 	.word	0x03740374
 800662c:	03740374 	.word	0x03740374
 8006630:	01b50374 	.word	0x01b50374
 8006634:	0374019f 	.word	0x0374019f
 8006638:	03740374 	.word	0x03740374
 800663c:	03740374 	.word	0x03740374
 8006640:	03740374 	.word	0x03740374
 8006644:	03740374 	.word	0x03740374
 8006648:	00600374 	.word	0x00600374
 800664c:	03740374 	.word	0x03740374
 8006650:	03160374 	.word	0x03160374
 8006654:	03020374 	.word	0x03020374
 8006658:	03740374 	.word	0x03740374
 800665c:	037402ec 	.word	0x037402ec
 8006660:	03740374 	.word	0x03740374
 8006664:	03740374 	.word	0x03740374
 8006668:	03740374 	.word	0x03740374
 800666c:	03740374 	.word	0x03740374
 8006670:	01b50374 	.word	0x01b50374
 8006674:	037400e7 	.word	0x037400e7
 8006678:	03740374 	.word	0x03740374
 800667c:	00e70144 	.word	0x00e70144
 8006680:	0374005b 	.word	0x0374005b
 8006684:	03740348 	.word	0x03740348
 8006688:	00620331 	.word	0x00620331
 800668c:	005b0355 	.word	0x005b0355
 8006690:	03160374 	.word	0x03160374
 8006694:	0090005d 	.word	0x0090005d
 8006698:	03740374 	.word	0x03740374
 800669c:	037400c7 	.word	0x037400c7
 80066a0:	005d      	.short	0x005d
 80066a2:	f04b 0b20 	orr.w	fp, fp, #32
 80066a6:	f899 3000 	ldrb.w	r3, [r9]
 80066aa:	e796      	b.n	80065da <_svfiprintf_r+0x9e>
 80066ac:	f04b 0b10 	orr.w	fp, fp, #16
 80066b0:	f01b 0f20 	tst.w	fp, #32
 80066b4:	f000 82fe 	beq.w	8006cb4 <_svfiprintf_r+0x778>
 80066b8:	9b07      	ldr	r3, [sp, #28]
 80066ba:	3307      	adds	r3, #7
 80066bc:	f023 0307 	bic.w	r3, r3, #7
 80066c0:	e9d3 6700 	ldrd	r6, r7, [r3]
 80066c4:	f103 0208 	add.w	r2, r3, #8
 80066c8:	9207      	str	r2, [sp, #28]
 80066ca:	f42b 6380 	bic.w	r3, fp, #1024	; 0x400
 80066ce:	2200      	movs	r2, #0
 80066d0:	e02a      	b.n	8006728 <_svfiprintf_r+0x1ec>
 80066d2:	aa10      	add	r2, sp, #64	; 0x40
 80066d4:	9901      	ldr	r1, [sp, #4]
 80066d6:	9806      	ldr	r0, [sp, #24]
 80066d8:	f7ff feb6 	bl	8006448 <__ssprint_r>
 80066dc:	b948      	cbnz	r0, 80066f2 <_svfiprintf_r+0x1b6>
 80066de:	f10d 0a4c 	add.w	sl, sp, #76	; 0x4c
 80066e2:	e765      	b.n	80065b0 <_svfiprintf_r+0x74>
 80066e4:	9b12      	ldr	r3, [sp, #72]	; 0x48
 80066e6:	b123      	cbz	r3, 80066f2 <_svfiprintf_r+0x1b6>
 80066e8:	9806      	ldr	r0, [sp, #24]
 80066ea:	9901      	ldr	r1, [sp, #4]
 80066ec:	aa10      	add	r2, sp, #64	; 0x40
 80066ee:	f7ff feab 	bl	8006448 <__ssprint_r>
 80066f2:	9b01      	ldr	r3, [sp, #4]
 80066f4:	899b      	ldrh	r3, [r3, #12]
 80066f6:	f013 0f40 	tst.w	r3, #64	; 0x40
 80066fa:	9b03      	ldr	r3, [sp, #12]
 80066fc:	bf18      	it	ne
 80066fe:	f04f 33ff 	movne.w	r3, #4294967295	; 0xffffffff
 8006702:	9303      	str	r3, [sp, #12]
 8006704:	9803      	ldr	r0, [sp, #12]
 8006706:	b03d      	add	sp, #244	; 0xf4
 8006708:	e8bd 8ff0 	ldmia.w	sp!, {r4, r5, r6, r7, r8, r9, sl, fp, pc}
 800670c:	465b      	mov	r3, fp
 800670e:	069e      	lsls	r6, r3, #26
 8006710:	9a07      	ldr	r2, [sp, #28]
 8006712:	f140 8273 	bpl.w	8006bfc <_svfiprintf_r+0x6c0>
 8006716:	3207      	adds	r2, #7
 8006718:	f022 0207 	bic.w	r2, r2, #7
 800671c:	f102 0108 	add.w	r1, r2, #8
 8006720:	e9d2 6700 	ldrd	r6, r7, [r2]
 8006724:	9107      	str	r1, [sp, #28]
 8006726:	2201      	movs	r2, #1
 8006728:	f04f 0100 	mov.w	r1, #0
 800672c:	f88d 103b 	strb.w	r1, [sp, #59]	; 0x3b
 8006730:	9902      	ldr	r1, [sp, #8]
 8006732:	3101      	adds	r1, #1
 8006734:	f10d 08f0 	add.w	r8, sp, #240	; 0xf0
 8006738:	f000 8337 	beq.w	8006daa <_svfiprintf_r+0x86e>
 800673c:	ea56 0107 	orrs.w	r1, r6, r7
 8006740:	f023 0b80 	bic.w	fp, r3, #128	; 0x80
 8006744:	d15e      	bne.n	8006804 <_svfiprintf_r+0x2c8>
 8006746:	9902      	ldr	r1, [sp, #8]
 8006748:	2900      	cmp	r1, #0
 800674a:	f040 842d 	bne.w	8006fa8 <_svfiprintf_r+0xa6c>
 800674e:	2a00      	cmp	r2, #0
 8006750:	f040 8388 	bne.w	8006e64 <_svfiprintf_r+0x928>
 8006754:	f013 0301 	ands.w	r3, r3, #1
 8006758:	ad3c      	add	r5, sp, #240	; 0xf0
 800675a:	9304      	str	r3, [sp, #16]
 800675c:	f040 83e0 	bne.w	8006f20 <_svfiprintf_r+0x9e4>
 8006760:	9a02      	ldr	r2, [sp, #8]
 8006762:	9904      	ldr	r1, [sp, #16]
 8006764:	f89d 303b 	ldrb.w	r3, [sp, #59]	; 0x3b
 8006768:	428a      	cmp	r2, r1
 800676a:	bfb8      	it	lt
 800676c:	460a      	movlt	r2, r1
 800676e:	4616      	mov	r6, r2
 8006770:	2b00      	cmp	r3, #0
 8006772:	f000 80ff 	beq.w	8006974 <_svfiprintf_r+0x438>
 8006776:	3601      	adds	r6, #1
 8006778:	e0fc      	b.n	8006974 <_svfiprintf_r+0x438>
 800677a:	4ac3      	ldr	r2, [pc, #780]	; (8006a88 <_svfiprintf_r+0x54c>)
 800677c:	9209      	str	r2, [sp, #36]	; 0x24
 800677e:	f01b 0f20 	tst.w	fp, #32
 8006782:	f000 8225 	beq.w	8006bd0 <_svfiprintf_r+0x694>
 8006786:	9a07      	ldr	r2, [sp, #28]
 8006788:	3207      	adds	r2, #7
 800678a:	f022 0207 	bic.w	r2, r2, #7
 800678e:	e9d2 6700 	ldrd	r6, r7, [r2]
 8006792:	f102 0108 	add.w	r1, r2, #8
 8006796:	9107      	str	r1, [sp, #28]
 8006798:	f01b 0f01 	tst.w	fp, #1
 800679c:	d009      	beq.n	80067b2 <_svfiprintf_r+0x276>
 800679e:	ea56 0207 	orrs.w	r2, r6, r7
 80067a2:	d006      	beq.n	80067b2 <_svfiprintf_r+0x276>
 80067a4:	2230      	movs	r2, #48	; 0x30
 80067a6:	f88d 303d 	strb.w	r3, [sp, #61]	; 0x3d
 80067aa:	f04b 0b02 	orr.w	fp, fp, #2
 80067ae:	f88d 203c 	strb.w	r2, [sp, #60]	; 0x3c
 80067b2:	f42b 6380 	bic.w	r3, fp, #1024	; 0x400
 80067b6:	2202      	movs	r2, #2
 80067b8:	e7b6      	b.n	8006728 <_svfiprintf_r+0x1ec>
 80067ba:	465b      	mov	r3, fp
 80067bc:	069d      	lsls	r5, r3, #26
 80067be:	f140 80b9 	bpl.w	8006934 <_svfiprintf_r+0x3f8>
 80067c2:	9a07      	ldr	r2, [sp, #28]
 80067c4:	3207      	adds	r2, #7
 80067c6:	f022 0207 	bic.w	r2, r2, #7
 80067ca:	e9d2 0100 	ldrd	r0, r1, [r2]
 80067ce:	3208      	adds	r2, #8
 80067d0:	9207      	str	r2, [sp, #28]
 80067d2:	4606      	mov	r6, r0
 80067d4:	460f      	mov	r7, r1
 80067d6:	2800      	cmp	r0, #0
 80067d8:	f171 0200 	sbcs.w	r2, r1, #0
 80067dc:	da05      	bge.n	80067ea <_svfiprintf_r+0x2ae>
 80067de:	222d      	movs	r2, #45	; 0x2d
 80067e0:	4276      	negs	r6, r6
 80067e2:	eb67 0747 	sbc.w	r7, r7, r7, lsl #1
 80067e6:	f88d 203b 	strb.w	r2, [sp, #59]	; 0x3b
 80067ea:	9a02      	ldr	r2, [sp, #8]
 80067ec:	3201      	adds	r2, #1
 80067ee:	f10d 08f0 	add.w	r8, sp, #240	; 0xf0
 80067f2:	f000 833b 	beq.w	8006e6c <_svfiprintf_r+0x930>
 80067f6:	ea56 0107 	orrs.w	r1, r6, r7
 80067fa:	f04f 0201 	mov.w	r2, #1
 80067fe:	f023 0b80 	bic.w	fp, r3, #128	; 0x80
 8006802:	d0a0      	beq.n	8006746 <_svfiprintf_r+0x20a>
 8006804:	2a01      	cmp	r2, #1
 8006806:	f000 82d4 	beq.w	8006db2 <_svfiprintf_r+0x876>
 800680a:	2a02      	cmp	r2, #2
 800680c:	f000 8306 	beq.w	8006e1c <_svfiprintf_r+0x8e0>
 8006810:	a93c      	add	r1, sp, #240	; 0xf0
 8006812:	e000      	b.n	8006816 <_svfiprintf_r+0x2da>
 8006814:	4629      	mov	r1, r5
 8006816:	08f2      	lsrs	r2, r6, #3
 8006818:	ea42 7247 	orr.w	r2, r2, r7, lsl #29
 800681c:	08f8      	lsrs	r0, r7, #3
 800681e:	f006 0307 	and.w	r3, r6, #7
 8006822:	4607      	mov	r7, r0
 8006824:	4616      	mov	r6, r2
 8006826:	3330      	adds	r3, #48	; 0x30
 8006828:	ea56 0207 	orrs.w	r2, r6, r7
 800682c:	f801 3c01 	strb.w	r3, [r1, #-1]
 8006830:	f101 35ff 	add.w	r5, r1, #4294967295	; 0xffffffff
 8006834:	d1ee      	bne.n	8006814 <_svfiprintf_r+0x2d8>
 8006836:	f01b 0f01 	tst.w	fp, #1
 800683a:	f000 825b 	beq.w	8006cf4 <_svfiprintf_r+0x7b8>
 800683e:	2b30      	cmp	r3, #48	; 0x30
 8006840:	f000 8258 	beq.w	8006cf4 <_svfiprintf_r+0x7b8>
 8006844:	3902      	subs	r1, #2
 8006846:	2330      	movs	r3, #48	; 0x30
 8006848:	eba8 0201 	sub.w	r2, r8, r1
 800684c:	f805 3c01 	strb.w	r3, [r5, #-1]
 8006850:	9204      	str	r2, [sp, #16]
 8006852:	460d      	mov	r5, r1
 8006854:	e784      	b.n	8006760 <_svfiprintf_r+0x224>
 8006856:	f1a3 0230 	sub.w	r2, r3, #48	; 0x30
 800685a:	2100      	movs	r1, #0
 800685c:	f819 3b01 	ldrb.w	r3, [r9], #1
 8006860:	eb01 0181 	add.w	r1, r1, r1, lsl #2
 8006864:	eb02 0141 	add.w	r1, r2, r1, lsl #1
 8006868:	f1a3 0230 	sub.w	r2, r3, #48	; 0x30
 800686c:	2a09      	cmp	r2, #9
 800686e:	d9f5      	bls.n	800685c <_svfiprintf_r+0x320>
 8006870:	9105      	str	r1, [sp, #20]
 8006872:	e6b4      	b.n	80065de <_svfiprintf_r+0xa2>
 8006874:	f899 3000 	ldrb.w	r3, [r9]
 8006878:	2b68      	cmp	r3, #104	; 0x68
 800687a:	bf03      	ittte	eq
 800687c:	f899 3001 	ldrbeq.w	r3, [r9, #1]
 8006880:	f44b 7b00 	orreq.w	fp, fp, #512	; 0x200
 8006884:	f109 0901 	addeq.w	r9, r9, #1
 8006888:	f04b 0b40 	orrne.w	fp, fp, #64	; 0x40
 800688c:	e6a5      	b.n	80065da <_svfiprintf_r+0x9e>
 800688e:	9e06      	ldr	r6, [sp, #24]
 8006890:	4630      	mov	r0, r6
 8006892:	f7fe ff9d 	bl	80057d0 <_localeconv_r>
 8006896:	6843      	ldr	r3, [r0, #4]
 8006898:	930b      	str	r3, [sp, #44]	; 0x2c
 800689a:	4618      	mov	r0, r3
 800689c:	f7fc f930 	bl	8002b00 <strlen>
 80068a0:	900c      	str	r0, [sp, #48]	; 0x30
 80068a2:	4604      	mov	r4, r0
 80068a4:	4630      	mov	r0, r6
 80068a6:	f7fe ff93 	bl	80057d0 <_localeconv_r>
 80068aa:	6882      	ldr	r2, [r0, #8]
 80068ac:	920a      	str	r2, [sp, #40]	; 0x28
 80068ae:	2c00      	cmp	r4, #0
 80068b0:	f43f aef9 	beq.w	80066a6 <_svfiprintf_r+0x16a>
 80068b4:	f899 3000 	ldrb.w	r3, [r9]
 80068b8:	2a00      	cmp	r2, #0
 80068ba:	f43f ae8e 	beq.w	80065da <_svfiprintf_r+0x9e>
 80068be:	7812      	ldrb	r2, [r2, #0]
 80068c0:	2a00      	cmp	r2, #0
 80068c2:	f43f ae8a 	beq.w	80065da <_svfiprintf_r+0x9e>
 80068c6:	f44b 6b80 	orr.w	fp, fp, #1024	; 0x400
 80068ca:	e686      	b.n	80065da <_svfiprintf_r+0x9e>
 80068cc:	f04b 0b01 	orr.w	fp, fp, #1
 80068d0:	f899 3000 	ldrb.w	r3, [r9]
 80068d4:	e681      	b.n	80065da <_svfiprintf_r+0x9e>
 80068d6:	f89d 203b 	ldrb.w	r2, [sp, #59]	; 0x3b
 80068da:	f899 3000 	ldrb.w	r3, [r9]
 80068de:	2a00      	cmp	r2, #0
 80068e0:	f47f ae7b 	bne.w	80065da <_svfiprintf_r+0x9e>
 80068e4:	2220      	movs	r2, #32
 80068e6:	f88d 203b 	strb.w	r2, [sp, #59]	; 0x3b
 80068ea:	e676      	b.n	80065da <_svfiprintf_r+0x9e>
 80068ec:	f899 3000 	ldrb.w	r3, [r9]
 80068f0:	2b2a      	cmp	r3, #42	; 0x2a
 80068f2:	f109 0101 	add.w	r1, r9, #1
 80068f6:	f000 83a2 	beq.w	800703e <_svfiprintf_r+0xb02>
 80068fa:	f1a3 0230 	sub.w	r2, r3, #48	; 0x30
 80068fe:	2a09      	cmp	r2, #9
 8006900:	4689      	mov	r9, r1
 8006902:	f200 838f 	bhi.w	8007024 <_svfiprintf_r+0xae8>
 8006906:	2100      	movs	r1, #0
 8006908:	f819 3b01 	ldrb.w	r3, [r9], #1
 800690c:	eb01 0181 	add.w	r1, r1, r1, lsl #2
 8006910:	eb02 0141 	add.w	r1, r2, r1, lsl #1
 8006914:	f1a3 0230 	sub.w	r2, r3, #48	; 0x30
 8006918:	2a09      	cmp	r2, #9
 800691a:	d9f5      	bls.n	8006908 <_svfiprintf_r+0x3cc>
 800691c:	9102      	str	r1, [sp, #8]
 800691e:	e65e      	b.n	80065de <_svfiprintf_r+0xa2>
 8006920:	f899 3000 	ldrb.w	r3, [r9]
 8006924:	f04b 0b04 	orr.w	fp, fp, #4
 8006928:	e657      	b.n	80065da <_svfiprintf_r+0x9e>
 800692a:	f04b 0310 	orr.w	r3, fp, #16
 800692e:	069d      	lsls	r5, r3, #26
 8006930:	f53f af47 	bmi.w	80067c2 <_svfiprintf_r+0x286>
 8006934:	9907      	ldr	r1, [sp, #28]
 8006936:	06dc      	lsls	r4, r3, #27
 8006938:	f101 0204 	add.w	r2, r1, #4
 800693c:	f100 82fe 	bmi.w	8006f3c <_svfiprintf_r+0xa00>
 8006940:	0658      	lsls	r0, r3, #25
 8006942:	9907      	ldr	r1, [sp, #28]
 8006944:	f140 82f8 	bpl.w	8006f38 <_svfiprintf_r+0x9fc>
 8006948:	f9b1 6000 	ldrsh.w	r6, [r1]
 800694c:	9207      	str	r2, [sp, #28]
 800694e:	17f7      	asrs	r7, r6, #31
 8006950:	4630      	mov	r0, r6
 8006952:	4639      	mov	r1, r7
 8006954:	e73f      	b.n	80067d6 <_svfiprintf_r+0x29a>
 8006956:	9a07      	ldr	r2, [sp, #28]
 8006958:	6813      	ldr	r3, [r2, #0]
 800695a:	f88d 308c 	strb.w	r3, [sp, #140]	; 0x8c
 800695e:	f04f 0100 	mov.w	r1, #0
 8006962:	2601      	movs	r6, #1
 8006964:	1d13      	adds	r3, r2, #4
 8006966:	f88d 103b 	strb.w	r1, [sp, #59]	; 0x3b
 800696a:	9307      	str	r3, [sp, #28]
 800696c:	9604      	str	r6, [sp, #16]
 800696e:	ad23      	add	r5, sp, #140	; 0x8c
 8006970:	2300      	movs	r3, #0
 8006972:	9302      	str	r3, [sp, #8]
 8006974:	f01b 0302 	ands.w	r3, fp, #2
 8006978:	bf18      	it	ne
 800697a:	3602      	addne	r6, #2
 800697c:	f01b 0084 	ands.w	r0, fp, #132	; 0x84
 8006980:	e9dd 1211 	ldrd	r1, r2, [sp, #68]	; 0x44
 8006984:	9008      	str	r0, [sp, #32]
 8006986:	d13d      	bne.n	8006a04 <_svfiprintf_r+0x4c8>
 8006988:	9805      	ldr	r0, [sp, #20]
 800698a:	1b84      	subs	r4, r0, r6
 800698c:	2c00      	cmp	r4, #0
 800698e:	dd39      	ble.n	8006a04 <_svfiprintf_r+0x4c8>
 8006990:	2c10      	cmp	r4, #16
 8006992:	4f3e      	ldr	r7, [pc, #248]	; (8006a8c <_svfiprintf_r+0x550>)
 8006994:	dd2b      	ble.n	80069ee <_svfiprintf_r+0x4b2>
 8006996:	4650      	mov	r0, sl
 8006998:	46ca      	mov	sl, r9
 800699a:	46b1      	mov	r9, r6
 800699c:	461e      	mov	r6, r3
 800699e:	463b      	mov	r3, r7
 80069a0:	f04f 0810 	mov.w	r8, #16
 80069a4:	462f      	mov	r7, r5
 80069a6:	461d      	mov	r5, r3
 80069a8:	e004      	b.n	80069b4 <_svfiprintf_r+0x478>
 80069aa:	3c10      	subs	r4, #16
 80069ac:	2c10      	cmp	r4, #16
 80069ae:	f100 0008 	add.w	r0, r0, #8
 80069b2:	dd15      	ble.n	80069e0 <_svfiprintf_r+0x4a4>
 80069b4:	3101      	adds	r1, #1
 80069b6:	3210      	adds	r2, #16
 80069b8:	2907      	cmp	r1, #7
 80069ba:	e9cd 1211 	strd	r1, r2, [sp, #68]	; 0x44
 80069be:	e9c0 5800 	strd	r5, r8, [r0]
 80069c2:	ddf2      	ble.n	80069aa <_svfiprintf_r+0x46e>
 80069c4:	aa10      	add	r2, sp, #64	; 0x40
 80069c6:	9901      	ldr	r1, [sp, #4]
 80069c8:	9806      	ldr	r0, [sp, #24]
 80069ca:	f7ff fd3d 	bl	8006448 <__ssprint_r>
 80069ce:	2800      	cmp	r0, #0
 80069d0:	f47f ae8f 	bne.w	80066f2 <_svfiprintf_r+0x1b6>
 80069d4:	3c10      	subs	r4, #16
 80069d6:	2c10      	cmp	r4, #16
 80069d8:	e9dd 1211 	ldrd	r1, r2, [sp, #68]	; 0x44
 80069dc:	a813      	add	r0, sp, #76	; 0x4c
 80069de:	dce9      	bgt.n	80069b4 <_svfiprintf_r+0x478>
 80069e0:	4633      	mov	r3, r6
 80069e2:	464e      	mov	r6, r9
 80069e4:	46d1      	mov	r9, sl
 80069e6:	4682      	mov	sl, r0
 80069e8:	4628      	mov	r0, r5
 80069ea:	463d      	mov	r5, r7
 80069ec:	4607      	mov	r7, r0
 80069ee:	3101      	adds	r1, #1
 80069f0:	4422      	add	r2, r4
 80069f2:	2907      	cmp	r1, #7
 80069f4:	e9cd 1211 	strd	r1, r2, [sp, #68]	; 0x44
 80069f8:	e9ca 7400 	strd	r7, r4, [sl]
 80069fc:	f300 8277 	bgt.w	8006eee <_svfiprintf_r+0x9b2>
 8006a00:	f10a 0a08 	add.w	sl, sl, #8
 8006a04:	f89d 403b 	ldrb.w	r4, [sp, #59]	; 0x3b
 8006a08:	f101 0c01 	add.w	ip, r1, #1
 8006a0c:	f10a 0008 	add.w	r0, sl, #8
 8006a10:	b194      	cbz	r4, 8006a38 <_svfiprintf_r+0x4fc>
 8006a12:	3201      	adds	r2, #1
 8006a14:	f10d 073b 	add.w	r7, sp, #59	; 0x3b
 8006a18:	2401      	movs	r4, #1
 8006a1a:	f1bc 0f07 	cmp.w	ip, #7
 8006a1e:	e9cd c211 	strd	ip, r2, [sp, #68]	; 0x44
 8006a22:	e9ca 7400 	strd	r7, r4, [sl]
 8006a26:	f300 81cf 	bgt.w	8006dc8 <_svfiprintf_r+0x88c>
 8006a2a:	1c8f      	adds	r7, r1, #2
 8006a2c:	f10a 0410 	add.w	r4, sl, #16
 8006a30:	4661      	mov	r1, ip
 8006a32:	4682      	mov	sl, r0
 8006a34:	46bc      	mov	ip, r7
 8006a36:	4620      	mov	r0, r4
 8006a38:	b17b      	cbz	r3, 8006a5a <_svfiprintf_r+0x51e>
 8006a3a:	3202      	adds	r2, #2
 8006a3c:	a90f      	add	r1, sp, #60	; 0x3c
 8006a3e:	2302      	movs	r3, #2
 8006a40:	f1bc 0f07 	cmp.w	ip, #7
 8006a44:	e9cd c211 	strd	ip, r2, [sp, #68]	; 0x44
 8006a48:	e9ca 1300 	strd	r1, r3, [sl]
 8006a4c:	f300 81ce 	bgt.w	8006dec <_svfiprintf_r+0x8b0>
 8006a50:	4661      	mov	r1, ip
 8006a52:	4682      	mov	sl, r0
 8006a54:	f10c 0c01 	add.w	ip, ip, #1
 8006a58:	3008      	adds	r0, #8
 8006a5a:	9b08      	ldr	r3, [sp, #32]
 8006a5c:	2b80      	cmp	r3, #128	; 0x80
 8006a5e:	f000 814d 	beq.w	8006cfc <_svfiprintf_r+0x7c0>
 8006a62:	9b02      	ldr	r3, [sp, #8]
 8006a64:	9c04      	ldr	r4, [sp, #16]
 8006a66:	1b1c      	subs	r4, r3, r4
 8006a68:	2c00      	cmp	r4, #0
 8006a6a:	dd46      	ble.n	8006afa <_svfiprintf_r+0x5be>
 8006a6c:	2c10      	cmp	r4, #16
 8006a6e:	4f08      	ldr	r7, [pc, #32]	; (8006a90 <_svfiprintf_r+0x554>)
 8006a70:	f340 82ae 	ble.w	8006fd0 <_svfiprintf_r+0xa94>
 8006a74:	4650      	mov	r0, sl
 8006a76:	f04f 0810 	mov.w	r8, #16
 8006a7a:	46ca      	mov	sl, r9
 8006a7c:	46b1      	mov	r9, r6
 8006a7e:	463e      	mov	r6, r7
 8006a80:	462f      	mov	r7, r5
 8006a82:	9d06      	ldr	r5, [sp, #24]
 8006a84:	e00b      	b.n	8006a9e <_svfiprintf_r+0x562>
 8006a86:	bf00      	nop
 8006a88:	08007be8 	.word	0x08007be8
 8006a8c:	08007d6c 	.word	0x08007d6c
 8006a90:	08007d7c 	.word	0x08007d7c
 8006a94:	3c10      	subs	r4, #16
 8006a96:	2c10      	cmp	r4, #16
 8006a98:	f100 0008 	add.w	r0, r0, #8
 8006a9c:	dd15      	ble.n	8006aca <_svfiprintf_r+0x58e>
 8006a9e:	3101      	adds	r1, #1
 8006aa0:	3210      	adds	r2, #16
 8006aa2:	2907      	cmp	r1, #7
 8006aa4:	e9cd 1211 	strd	r1, r2, [sp, #68]	; 0x44
 8006aa8:	e9c0 6800 	strd	r6, r8, [r0]
 8006aac:	ddf2      	ble.n	8006a94 <_svfiprintf_r+0x558>
 8006aae:	aa10      	add	r2, sp, #64	; 0x40
 8006ab0:	9901      	ldr	r1, [sp, #4]
 8006ab2:	4628      	mov	r0, r5
 8006ab4:	f7ff fcc8 	bl	8006448 <__ssprint_r>
 8006ab8:	2800      	cmp	r0, #0
 8006aba:	f47f ae1a 	bne.w	80066f2 <_svfiprintf_r+0x1b6>
 8006abe:	3c10      	subs	r4, #16
 8006ac0:	2c10      	cmp	r4, #16
 8006ac2:	e9dd 1211 	ldrd	r1, r2, [sp, #68]	; 0x44
 8006ac6:	a813      	add	r0, sp, #76	; 0x4c
 8006ac8:	dce9      	bgt.n	8006a9e <_svfiprintf_r+0x562>
 8006aca:	463d      	mov	r5, r7
 8006acc:	f101 0c01 	add.w	ip, r1, #1
 8006ad0:	4637      	mov	r7, r6
 8006ad2:	f100 0308 	add.w	r3, r0, #8
 8006ad6:	464e      	mov	r6, r9
 8006ad8:	46d1      	mov	r9, sl
 8006ada:	4682      	mov	sl, r0
 8006adc:	4422      	add	r2, r4
 8006ade:	f1bc 0f07 	cmp.w	ip, #7
 8006ae2:	9212      	str	r2, [sp, #72]	; 0x48
 8006ae4:	e9ca 7400 	strd	r7, r4, [sl]
 8006ae8:	f8cd c044 	str.w	ip, [sp, #68]	; 0x44
 8006aec:	f300 81aa 	bgt.w	8006e44 <_svfiprintf_r+0x908>
 8006af0:	f10c 0c01 	add.w	ip, ip, #1
 8006af4:	f103 0008 	add.w	r0, r3, #8
 8006af8:	469a      	mov	sl, r3
 8006afa:	9b04      	ldr	r3, [sp, #16]
 8006afc:	f8cd c044 	str.w	ip, [sp, #68]	; 0x44
 8006b00:	441a      	add	r2, r3
 8006b02:	f1bc 0f07 	cmp.w	ip, #7
 8006b06:	9212      	str	r2, [sp, #72]	; 0x48
 8006b08:	e9ca 5300 	strd	r5, r3, [sl]
 8006b0c:	f300 8139 	bgt.w	8006d82 <_svfiprintf_r+0x846>
 8006b10:	f01b 0f04 	tst.w	fp, #4
 8006b14:	d031      	beq.n	8006b7a <_svfiprintf_r+0x63e>
 8006b16:	9b05      	ldr	r3, [sp, #20]
 8006b18:	1b9c      	subs	r4, r3, r6
 8006b1a:	2c00      	cmp	r4, #0
 8006b1c:	dd2d      	ble.n	8006b7a <_svfiprintf_r+0x63e>
 8006b1e:	2c10      	cmp	r4, #16
 8006b20:	9b11      	ldr	r3, [sp, #68]	; 0x44
 8006b22:	4fba      	ldr	r7, [pc, #744]	; (8006e0c <_svfiprintf_r+0x8d0>)
 8006b24:	dd20      	ble.n	8006b68 <_svfiprintf_r+0x62c>
 8006b26:	2510      	movs	r5, #16
 8006b28:	f8dd 8018 	ldr.w	r8, [sp, #24]
 8006b2c:	f8dd a004 	ldr.w	sl, [sp, #4]
 8006b30:	e004      	b.n	8006b3c <_svfiprintf_r+0x600>
 8006b32:	3c10      	subs	r4, #16
 8006b34:	2c10      	cmp	r4, #16
 8006b36:	f100 0008 	add.w	r0, r0, #8
 8006b3a:	dd15      	ble.n	8006b68 <_svfiprintf_r+0x62c>
 8006b3c:	3301      	adds	r3, #1
 8006b3e:	3210      	adds	r2, #16
 8006b40:	2b07      	cmp	r3, #7
 8006b42:	e9cd 3211 	strd	r3, r2, [sp, #68]	; 0x44
 8006b46:	e9c0 7500 	strd	r7, r5, [r0]
 8006b4a:	ddf2      	ble.n	8006b32 <_svfiprintf_r+0x5f6>
 8006b4c:	aa10      	add	r2, sp, #64	; 0x40
 8006b4e:	4651      	mov	r1, sl
 8006b50:	4640      	mov	r0, r8
 8006b52:	f7ff fc79 	bl	8006448 <__ssprint_r>
 8006b56:	2800      	cmp	r0, #0
 8006b58:	f47f adcb 	bne.w	80066f2 <_svfiprintf_r+0x1b6>
 8006b5c:	3c10      	subs	r4, #16
 8006b5e:	2c10      	cmp	r4, #16
 8006b60:	e9dd 3211 	ldrd	r3, r2, [sp, #68]	; 0x44
 8006b64:	a813      	add	r0, sp, #76	; 0x4c
 8006b66:	dce9      	bgt.n	8006b3c <_svfiprintf_r+0x600>
 8006b68:	3301      	adds	r3, #1
 8006b6a:	4422      	add	r2, r4
 8006b6c:	2b07      	cmp	r3, #7
 8006b6e:	e9cd 3211 	strd	r3, r2, [sp, #68]	; 0x44
 8006b72:	e9c0 7400 	strd	r7, r4, [r0]
 8006b76:	f300 81c9 	bgt.w	8006f0c <_svfiprintf_r+0x9d0>
 8006b7a:	9b03      	ldr	r3, [sp, #12]
 8006b7c:	9905      	ldr	r1, [sp, #20]
 8006b7e:	42b1      	cmp	r1, r6
 8006b80:	bfac      	ite	ge
 8006b82:	185b      	addge	r3, r3, r1
 8006b84:	199b      	addlt	r3, r3, r6
 8006b86:	9303      	str	r3, [sp, #12]
 8006b88:	2a00      	cmp	r2, #0
 8006b8a:	f040 8105 	bne.w	8006d98 <_svfiprintf_r+0x85c>
 8006b8e:	2300      	movs	r3, #0
 8006b90:	9311      	str	r3, [sp, #68]	; 0x44
 8006b92:	f10d 0a4c 	add.w	sl, sp, #76	; 0x4c
 8006b96:	e4ea      	b.n	800656e <_svfiprintf_r+0x32>
 8006b98:	f04b 0b80 	orr.w	fp, fp, #128	; 0x80
 8006b9c:	f899 3000 	ldrb.w	r3, [r9]
 8006ba0:	e51b      	b.n	80065da <_svfiprintf_r+0x9e>
 8006ba2:	f88d 503b 	strb.w	r5, [sp, #59]	; 0x3b
 8006ba6:	f899 3000 	ldrb.w	r3, [r9]
 8006baa:	e516      	b.n	80065da <_svfiprintf_r+0x9e>
 8006bac:	9a07      	ldr	r2, [sp, #28]
 8006bae:	f899 3000 	ldrb.w	r3, [r9]
 8006bb2:	6811      	ldr	r1, [r2, #0]
 8006bb4:	9105      	str	r1, [sp, #20]
 8006bb6:	2900      	cmp	r1, #0
 8006bb8:	f102 0204 	add.w	r2, r2, #4
 8006bbc:	f2c0 81da 	blt.w	8006f74 <_svfiprintf_r+0xa38>
 8006bc0:	9207      	str	r2, [sp, #28]
 8006bc2:	e50a      	b.n	80065da <_svfiprintf_r+0x9e>
 8006bc4:	4a92      	ldr	r2, [pc, #584]	; (8006e10 <_svfiprintf_r+0x8d4>)
 8006bc6:	9209      	str	r2, [sp, #36]	; 0x24
 8006bc8:	f01b 0f20 	tst.w	fp, #32
 8006bcc:	f47f addb 	bne.w	8006786 <_svfiprintf_r+0x24a>
 8006bd0:	9907      	ldr	r1, [sp, #28]
 8006bd2:	f01b 0f10 	tst.w	fp, #16
 8006bd6:	f101 0204 	add.w	r2, r1, #4
 8006bda:	f040 81b8 	bne.w	8006f4e <_svfiprintf_r+0xa12>
 8006bde:	f01b 0f40 	tst.w	fp, #64	; 0x40
 8006be2:	9907      	ldr	r1, [sp, #28]
 8006be4:	f000 81b0 	beq.w	8006f48 <_svfiprintf_r+0xa0c>
 8006be8:	880e      	ldrh	r6, [r1, #0]
 8006bea:	9207      	str	r2, [sp, #28]
 8006bec:	2700      	movs	r7, #0
 8006bee:	e5d3      	b.n	8006798 <_svfiprintf_r+0x25c>
 8006bf0:	f04b 0310 	orr.w	r3, fp, #16
 8006bf4:	069e      	lsls	r6, r3, #26
 8006bf6:	9a07      	ldr	r2, [sp, #28]
 8006bf8:	f53f ad8d 	bmi.w	8006716 <_svfiprintf_r+0x1da>
 8006bfc:	06dd      	lsls	r5, r3, #27
 8006bfe:	f102 0104 	add.w	r1, r2, #4
 8006c02:	f100 8193 	bmi.w	8006f2c <_svfiprintf_r+0x9f0>
 8006c06:	065c      	lsls	r4, r3, #25
 8006c08:	9a07      	ldr	r2, [sp, #28]
 8006c0a:	f140 818d 	bpl.w	8006f28 <_svfiprintf_r+0x9ec>
 8006c0e:	8816      	ldrh	r6, [r2, #0]
 8006c10:	9107      	str	r1, [sp, #28]
 8006c12:	2700      	movs	r7, #0
 8006c14:	2201      	movs	r2, #1
 8006c16:	e587      	b.n	8006728 <_svfiprintf_r+0x1ec>
 8006c18:	9b07      	ldr	r3, [sp, #28]
 8006c1a:	681d      	ldr	r5, [r3, #0]
 8006c1c:	f04f 0200 	mov.w	r2, #0
 8006c20:	f88d 203b 	strb.w	r2, [sp, #59]	; 0x3b
 8006c24:	1d1c      	adds	r4, r3, #4
 8006c26:	2d00      	cmp	r5, #0
 8006c28:	f000 81d8 	beq.w	8006fdc <_svfiprintf_r+0xaa0>
 8006c2c:	9a02      	ldr	r2, [sp, #8]
 8006c2e:	1c53      	adds	r3, r2, #1
 8006c30:	f000 81b1 	beq.w	8006f96 <_svfiprintf_r+0xa5a>
 8006c34:	2100      	movs	r1, #0
 8006c36:	4628      	mov	r0, r5
 8006c38:	f7fe fdfa 	bl	8005830 <memchr>
 8006c3c:	2800      	cmp	r0, #0
 8006c3e:	f000 81f8 	beq.w	8007032 <_svfiprintf_r+0xaf6>
 8006c42:	1b43      	subs	r3, r0, r5
 8006c44:	9304      	str	r3, [sp, #16]
 8006c46:	2300      	movs	r3, #0
 8006c48:	9407      	str	r4, [sp, #28]
 8006c4a:	9302      	str	r3, [sp, #8]
 8006c4c:	e588      	b.n	8006760 <_svfiprintf_r+0x224>
 8006c4e:	9a07      	ldr	r2, [sp, #28]
 8006c50:	f01b 0f20 	tst.w	fp, #32
 8006c54:	f852 3b04 	ldr.w	r3, [r2], #4
 8006c58:	9207      	str	r2, [sp, #28]
 8006c5a:	f040 8184 	bne.w	8006f66 <_svfiprintf_r+0xa2a>
 8006c5e:	f01b 0f10 	tst.w	fp, #16
 8006c62:	f040 81b7 	bne.w	8006fd4 <_svfiprintf_r+0xa98>
 8006c66:	f01b 0f40 	tst.w	fp, #64	; 0x40
 8006c6a:	f040 81bf 	bne.w	8006fec <_svfiprintf_r+0xab0>
 8006c6e:	f41b 7f00 	tst.w	fp, #512	; 0x200
 8006c72:	f000 81af 	beq.w	8006fd4 <_svfiprintf_r+0xa98>
 8006c76:	9a03      	ldr	r2, [sp, #12]
 8006c78:	701a      	strb	r2, [r3, #0]
 8006c7a:	e478      	b.n	800656e <_svfiprintf_r+0x32>
 8006c7c:	f899 3000 	ldrb.w	r3, [r9]
 8006c80:	2b6c      	cmp	r3, #108	; 0x6c
 8006c82:	bf03      	ittte	eq
 8006c84:	f899 3001 	ldrbeq.w	r3, [r9, #1]
 8006c88:	f04b 0b20 	orreq.w	fp, fp, #32
 8006c8c:	f109 0901 	addeq.w	r9, r9, #1
 8006c90:	f04b 0b10 	orrne.w	fp, fp, #16
 8006c94:	e4a1      	b.n	80065da <_svfiprintf_r+0x9e>
 8006c96:	9907      	ldr	r1, [sp, #28]
 8006c98:	4b5e      	ldr	r3, [pc, #376]	; (8006e14 <_svfiprintf_r+0x8d8>)
 8006c9a:	680e      	ldr	r6, [r1, #0]
 8006c9c:	9309      	str	r3, [sp, #36]	; 0x24
 8006c9e:	f647 0230 	movw	r2, #30768	; 0x7830
 8006ca2:	3104      	adds	r1, #4
 8006ca4:	f8ad 203c 	strh.w	r2, [sp, #60]	; 0x3c
 8006ca8:	f04b 0302 	orr.w	r3, fp, #2
 8006cac:	9107      	str	r1, [sp, #28]
 8006cae:	2700      	movs	r7, #0
 8006cb0:	2202      	movs	r2, #2
 8006cb2:	e539      	b.n	8006728 <_svfiprintf_r+0x1ec>
 8006cb4:	9a07      	ldr	r2, [sp, #28]
 8006cb6:	f01b 0f10 	tst.w	fp, #16
 8006cba:	f102 0304 	add.w	r3, r2, #4
 8006cbe:	f040 814d 	bne.w	8006f5c <_svfiprintf_r+0xa20>
 8006cc2:	f01b 0f40 	tst.w	fp, #64	; 0x40
 8006cc6:	9a07      	ldr	r2, [sp, #28]
 8006cc8:	f000 8145 	beq.w	8006f56 <_svfiprintf_r+0xa1a>
 8006ccc:	8816      	ldrh	r6, [r2, #0]
 8006cce:	9307      	str	r3, [sp, #28]
 8006cd0:	2700      	movs	r7, #0
 8006cd2:	e4fa      	b.n	80066ca <_svfiprintf_r+0x18e>
 8006cd4:	2b00      	cmp	r3, #0
 8006cd6:	f43f ad05 	beq.w	80066e4 <_svfiprintf_r+0x1a8>
 8006cda:	2601      	movs	r6, #1
 8006cdc:	f88d 308c 	strb.w	r3, [sp, #140]	; 0x8c
 8006ce0:	f04f 0300 	mov.w	r3, #0
 8006ce4:	f88d 303b 	strb.w	r3, [sp, #59]	; 0x3b
 8006ce8:	9604      	str	r6, [sp, #16]
 8006cea:	ad23      	add	r5, sp, #140	; 0x8c
 8006cec:	e640      	b.n	8006970 <_svfiprintf_r+0x434>
 8006cee:	46c8      	mov	r8, r9
 8006cf0:	f8dd 9010 	ldr.w	r9, [sp, #16]
 8006cf4:	eba8 0305 	sub.w	r3, r8, r5
 8006cf8:	9304      	str	r3, [sp, #16]
 8006cfa:	e531      	b.n	8006760 <_svfiprintf_r+0x224>
 8006cfc:	9b05      	ldr	r3, [sp, #20]
 8006cfe:	1b9c      	subs	r4, r3, r6
 8006d00:	2c00      	cmp	r4, #0
 8006d02:	f77f aeae 	ble.w	8006a62 <_svfiprintf_r+0x526>
 8006d06:	2c10      	cmp	r4, #16
 8006d08:	4f43      	ldr	r7, [pc, #268]	; (8006e18 <_svfiprintf_r+0x8dc>)
 8006d0a:	f340 818f 	ble.w	800702c <_svfiprintf_r+0xaf0>
 8006d0e:	4650      	mov	r0, sl
 8006d10:	f04f 0810 	mov.w	r8, #16
 8006d14:	46ca      	mov	sl, r9
 8006d16:	46b1      	mov	r9, r6
 8006d18:	463e      	mov	r6, r7
 8006d1a:	462f      	mov	r7, r5
 8006d1c:	9d06      	ldr	r5, [sp, #24]
 8006d1e:	e004      	b.n	8006d2a <_svfiprintf_r+0x7ee>
 8006d20:	3c10      	subs	r4, #16
 8006d22:	2c10      	cmp	r4, #16
 8006d24:	f100 0008 	add.w	r0, r0, #8
 8006d28:	dd15      	ble.n	8006d56 <_svfiprintf_r+0x81a>
 8006d2a:	3101      	adds	r1, #1
 8006d2c:	3210      	adds	r2, #16
 8006d2e:	2907      	cmp	r1, #7
 8006d30:	e9cd 1211 	strd	r1, r2, [sp, #68]	; 0x44
 8006d34:	e9c0 6800 	strd	r6, r8, [r0]
 8006d38:	ddf2      	ble.n	8006d20 <_svfiprintf_r+0x7e4>
 8006d3a:	aa10      	add	r2, sp, #64	; 0x40
 8006d3c:	9901      	ldr	r1, [sp, #4]
 8006d3e:	4628      	mov	r0, r5
 8006d40:	f7ff fb82 	bl	8006448 <__ssprint_r>
 8006d44:	2800      	cmp	r0, #0
 8006d46:	f47f acd4 	bne.w	80066f2 <_svfiprintf_r+0x1b6>
 8006d4a:	3c10      	subs	r4, #16
 8006d4c:	2c10      	cmp	r4, #16
 8006d4e:	e9dd 1211 	ldrd	r1, r2, [sp, #68]	; 0x44
 8006d52:	a813      	add	r0, sp, #76	; 0x4c
 8006d54:	dce9      	bgt.n	8006d2a <_svfiprintf_r+0x7ee>
 8006d56:	463d      	mov	r5, r7
 8006d58:	3101      	adds	r1, #1
 8006d5a:	4637      	mov	r7, r6
 8006d5c:	f100 0308 	add.w	r3, r0, #8
 8006d60:	464e      	mov	r6, r9
 8006d62:	46d1      	mov	r9, sl
 8006d64:	4682      	mov	sl, r0
 8006d66:	4422      	add	r2, r4
 8006d68:	2907      	cmp	r1, #7
 8006d6a:	9212      	str	r2, [sp, #72]	; 0x48
 8006d6c:	e9ca 7400 	strd	r7, r4, [sl]
 8006d70:	9111      	str	r1, [sp, #68]	; 0x44
 8006d72:	f300 811d 	bgt.w	8006fb0 <_svfiprintf_r+0xa74>
 8006d76:	f101 0c01 	add.w	ip, r1, #1
 8006d7a:	f103 0008 	add.w	r0, r3, #8
 8006d7e:	469a      	mov	sl, r3
 8006d80:	e66f      	b.n	8006a62 <_svfiprintf_r+0x526>
 8006d82:	aa10      	add	r2, sp, #64	; 0x40
 8006d84:	9901      	ldr	r1, [sp, #4]
 8006d86:	9806      	ldr	r0, [sp, #24]
 8006d88:	f7ff fb5e 	bl	8006448 <__ssprint_r>
 8006d8c:	2800      	cmp	r0, #0
 8006d8e:	f47f acb0 	bne.w	80066f2 <_svfiprintf_r+0x1b6>
 8006d92:	9a12      	ldr	r2, [sp, #72]	; 0x48
 8006d94:	a813      	add	r0, sp, #76	; 0x4c
 8006d96:	e6bb      	b.n	8006b10 <_svfiprintf_r+0x5d4>
 8006d98:	aa10      	add	r2, sp, #64	; 0x40
 8006d9a:	9901      	ldr	r1, [sp, #4]
 8006d9c:	9806      	ldr	r0, [sp, #24]
 8006d9e:	f7ff fb53 	bl	8006448 <__ssprint_r>
 8006da2:	2800      	cmp	r0, #0
 8006da4:	f43f aef3 	beq.w	8006b8e <_svfiprintf_r+0x652>
 8006da8:	e4a3      	b.n	80066f2 <_svfiprintf_r+0x1b6>
 8006daa:	2a01      	cmp	r2, #1
 8006dac:	469b      	mov	fp, r3
 8006dae:	f47f ad2c 	bne.w	800680a <_svfiprintf_r+0x2ce>
 8006db2:	2f00      	cmp	r7, #0
 8006db4:	bf08      	it	eq
 8006db6:	2e0a      	cmpeq	r6, #10
 8006db8:	d25d      	bcs.n	8006e76 <_svfiprintf_r+0x93a>
 8006dba:	ad3c      	add	r5, sp, #240	; 0xf0
 8006dbc:	3630      	adds	r6, #48	; 0x30
 8006dbe:	2301      	movs	r3, #1
 8006dc0:	f805 6d01 	strb.w	r6, [r5, #-1]!
 8006dc4:	9304      	str	r3, [sp, #16]
 8006dc6:	e4cb      	b.n	8006760 <_svfiprintf_r+0x224>
 8006dc8:	aa10      	add	r2, sp, #64	; 0x40
 8006dca:	9901      	ldr	r1, [sp, #4]
 8006dcc:	9806      	ldr	r0, [sp, #24]
 8006dce:	930d      	str	r3, [sp, #52]	; 0x34
 8006dd0:	f7ff fb3a 	bl	8006448 <__ssprint_r>
 8006dd4:	2800      	cmp	r0, #0
 8006dd6:	f47f ac8c 	bne.w	80066f2 <_svfiprintf_r+0x1b6>
 8006dda:	e9dd 1211 	ldrd	r1, r2, [sp, #68]	; 0x44
 8006dde:	a815      	add	r0, sp, #84	; 0x54
 8006de0:	f101 0c01 	add.w	ip, r1, #1
 8006de4:	f10d 0a4c 	add.w	sl, sp, #76	; 0x4c
 8006de8:	9b0d      	ldr	r3, [sp, #52]	; 0x34
 8006dea:	e625      	b.n	8006a38 <_svfiprintf_r+0x4fc>
 8006dec:	aa10      	add	r2, sp, #64	; 0x40
 8006dee:	9901      	ldr	r1, [sp, #4]
 8006df0:	9806      	ldr	r0, [sp, #24]
 8006df2:	f7ff fb29 	bl	8006448 <__ssprint_r>
 8006df6:	2800      	cmp	r0, #0
 8006df8:	f47f ac7b 	bne.w	80066f2 <_svfiprintf_r+0x1b6>
 8006dfc:	e9dd 1211 	ldrd	r1, r2, [sp, #68]	; 0x44
 8006e00:	a815      	add	r0, sp, #84	; 0x54
 8006e02:	f101 0c01 	add.w	ip, r1, #1
 8006e06:	f10d 0a4c 	add.w	sl, sp, #76	; 0x4c
 8006e0a:	e626      	b.n	8006a5a <_svfiprintf_r+0x51e>
 8006e0c:	08007d6c 	.word	0x08007d6c
 8006e10:	08007bfc 	.word	0x08007bfc
 8006e14:	08007be8 	.word	0x08007be8
 8006e18:	08007d7c 	.word	0x08007d7c
 8006e1c:	9809      	ldr	r0, [sp, #36]	; 0x24
 8006e1e:	ad3c      	add	r5, sp, #240	; 0xf0
 8006e20:	0933      	lsrs	r3, r6, #4
 8006e22:	f006 010f 	and.w	r1, r6, #15
 8006e26:	ea43 7307 	orr.w	r3, r3, r7, lsl #28
 8006e2a:	093a      	lsrs	r2, r7, #4
 8006e2c:	461e      	mov	r6, r3
 8006e2e:	4617      	mov	r7, r2
 8006e30:	5c43      	ldrb	r3, [r0, r1]
 8006e32:	f805 3d01 	strb.w	r3, [r5, #-1]!
 8006e36:	ea56 0307 	orrs.w	r3, r6, r7
 8006e3a:	d1f1      	bne.n	8006e20 <_svfiprintf_r+0x8e4>
 8006e3c:	eba8 0305 	sub.w	r3, r8, r5
 8006e40:	9304      	str	r3, [sp, #16]
 8006e42:	e48d      	b.n	8006760 <_svfiprintf_r+0x224>
 8006e44:	aa10      	add	r2, sp, #64	; 0x40
 8006e46:	9901      	ldr	r1, [sp, #4]
 8006e48:	9806      	ldr	r0, [sp, #24]
 8006e4a:	f7ff fafd 	bl	8006448 <__ssprint_r>
 8006e4e:	2800      	cmp	r0, #0
 8006e50:	f47f ac4f 	bne.w	80066f2 <_svfiprintf_r+0x1b6>
 8006e54:	e9dd 3211 	ldrd	r3, r2, [sp, #68]	; 0x44
 8006e58:	a815      	add	r0, sp, #84	; 0x54
 8006e5a:	f103 0c01 	add.w	ip, r3, #1
 8006e5e:	f10d 0a4c 	add.w	sl, sp, #76	; 0x4c
 8006e62:	e64a      	b.n	8006afa <_svfiprintf_r+0x5be>
 8006e64:	9b02      	ldr	r3, [sp, #8]
 8006e66:	9304      	str	r3, [sp, #16]
 8006e68:	ad3c      	add	r5, sp, #240	; 0xf0
 8006e6a:	e479      	b.n	8006760 <_svfiprintf_r+0x224>
 8006e6c:	2f00      	cmp	r7, #0
 8006e6e:	bf08      	it	eq
 8006e70:	2e0a      	cmpeq	r6, #10
 8006e72:	469b      	mov	fp, r3
 8006e74:	d3a1      	bcc.n	8006dba <_svfiprintf_r+0x87e>
 8006e76:	f40b 6380 	and.w	r3, fp, #1024	; 0x400
 8006e7a:	f8cd 9010 	str.w	r9, [sp, #16]
 8006e7e:	2400      	movs	r4, #0
 8006e80:	46c1      	mov	r9, r8
 8006e82:	ad3c      	add	r5, sp, #240	; 0xf0
 8006e84:	4698      	mov	r8, r3
 8006e86:	e00b      	b.n	8006ea0 <_svfiprintf_r+0x964>
 8006e88:	2300      	movs	r3, #0
 8006e8a:	4630      	mov	r0, r6
 8006e8c:	4639      	mov	r1, r7
 8006e8e:	220a      	movs	r2, #10
 8006e90:	f000 fd04 	bl	800789c <__aeabi_uldivmod>
 8006e94:	4606      	mov	r6, r0
 8006e96:	460f      	mov	r7, r1
 8006e98:	ea56 0307 	orrs.w	r3, r6, r7
 8006e9c:	f43f af27 	beq.w	8006cee <_svfiprintf_r+0x7b2>
 8006ea0:	220a      	movs	r2, #10
 8006ea2:	2300      	movs	r3, #0
 8006ea4:	4630      	mov	r0, r6
 8006ea6:	4639      	mov	r1, r7
 8006ea8:	f000 fcf8 	bl	800789c <__aeabi_uldivmod>
 8006eac:	3230      	adds	r2, #48	; 0x30
 8006eae:	f805 2c01 	strb.w	r2, [r5, #-1]
 8006eb2:	3401      	adds	r4, #1
 8006eb4:	3d01      	subs	r5, #1
 8006eb6:	f1b8 0f00 	cmp.w	r8, #0
 8006eba:	d0e5      	beq.n	8006e88 <_svfiprintf_r+0x94c>
 8006ebc:	9b0a      	ldr	r3, [sp, #40]	; 0x28
 8006ebe:	781b      	ldrb	r3, [r3, #0]
 8006ec0:	42a3      	cmp	r3, r4
 8006ec2:	d1e1      	bne.n	8006e88 <_svfiprintf_r+0x94c>
 8006ec4:	2cff      	cmp	r4, #255	; 0xff
 8006ec6:	d0df      	beq.n	8006e88 <_svfiprintf_r+0x94c>
 8006ec8:	2f00      	cmp	r7, #0
 8006eca:	bf08      	it	eq
 8006ecc:	2e0a      	cmpeq	r6, #10
 8006ece:	d3db      	bcc.n	8006e88 <_svfiprintf_r+0x94c>
 8006ed0:	9b0c      	ldr	r3, [sp, #48]	; 0x30
 8006ed2:	990b      	ldr	r1, [sp, #44]	; 0x2c
 8006ed4:	1aed      	subs	r5, r5, r3
 8006ed6:	461a      	mov	r2, r3
 8006ed8:	4628      	mov	r0, r5
 8006eda:	f7ff fa83 	bl	80063e4 <strncpy>
 8006ede:	9b0a      	ldr	r3, [sp, #40]	; 0x28
 8006ee0:	785c      	ldrb	r4, [r3, #1]
 8006ee2:	2c00      	cmp	r4, #0
 8006ee4:	d0d0      	beq.n	8006e88 <_svfiprintf_r+0x94c>
 8006ee6:	3301      	adds	r3, #1
 8006ee8:	930a      	str	r3, [sp, #40]	; 0x28
 8006eea:	2400      	movs	r4, #0
 8006eec:	e7cc      	b.n	8006e88 <_svfiprintf_r+0x94c>
 8006eee:	aa10      	add	r2, sp, #64	; 0x40
 8006ef0:	9901      	ldr	r1, [sp, #4]
 8006ef2:	9806      	ldr	r0, [sp, #24]
 8006ef4:	930d      	str	r3, [sp, #52]	; 0x34
 8006ef6:	f7ff faa7 	bl	8006448 <__ssprint_r>
 8006efa:	2800      	cmp	r0, #0
 8006efc:	f47f abf9 	bne.w	80066f2 <_svfiprintf_r+0x1b6>
 8006f00:	e9dd 1211 	ldrd	r1, r2, [sp, #68]	; 0x44
 8006f04:	f10d 0a4c 	add.w	sl, sp, #76	; 0x4c
 8006f08:	9b0d      	ldr	r3, [sp, #52]	; 0x34
 8006f0a:	e57b      	b.n	8006a04 <_svfiprintf_r+0x4c8>
 8006f0c:	aa10      	add	r2, sp, #64	; 0x40
 8006f0e:	9901      	ldr	r1, [sp, #4]
 8006f10:	9806      	ldr	r0, [sp, #24]
 8006f12:	f7ff fa99 	bl	8006448 <__ssprint_r>
 8006f16:	2800      	cmp	r0, #0
 8006f18:	f47f abeb 	bne.w	80066f2 <_svfiprintf_r+0x1b6>
 8006f1c:	9a12      	ldr	r2, [sp, #72]	; 0x48
 8006f1e:	e62c      	b.n	8006b7a <_svfiprintf_r+0x63e>
 8006f20:	2330      	movs	r3, #48	; 0x30
 8006f22:	f805 3d01 	strb.w	r3, [r5, #-1]!
 8006f26:	e41b      	b.n	8006760 <_svfiprintf_r+0x224>
 8006f28:	0598      	lsls	r0, r3, #22
 8006f2a:	d475      	bmi.n	8007018 <_svfiprintf_r+0xadc>
 8006f2c:	6816      	ldr	r6, [r2, #0]
 8006f2e:	9107      	str	r1, [sp, #28]
 8006f30:	2201      	movs	r2, #1
 8006f32:	2700      	movs	r7, #0
 8006f34:	f7ff bbf8 	b.w	8006728 <_svfiprintf_r+0x1ec>
 8006f38:	059f      	lsls	r7, r3, #22
 8006f3a:	d45b      	bmi.n	8006ff4 <_svfiprintf_r+0xab8>
 8006f3c:	680e      	ldr	r6, [r1, #0]
 8006f3e:	9207      	str	r2, [sp, #28]
 8006f40:	17f7      	asrs	r7, r6, #31
 8006f42:	4630      	mov	r0, r6
 8006f44:	4639      	mov	r1, r7
 8006f46:	e446      	b.n	80067d6 <_svfiprintf_r+0x29a>
 8006f48:	f41b 7f00 	tst.w	fp, #512	; 0x200
 8006f4c:	d15f      	bne.n	800700e <_svfiprintf_r+0xad2>
 8006f4e:	680e      	ldr	r6, [r1, #0]
 8006f50:	9207      	str	r2, [sp, #28]
 8006f52:	2700      	movs	r7, #0
 8006f54:	e420      	b.n	8006798 <_svfiprintf_r+0x25c>
 8006f56:	f41b 7f00 	tst.w	fp, #512	; 0x200
 8006f5a:	d153      	bne.n	8007004 <_svfiprintf_r+0xac8>
 8006f5c:	6816      	ldr	r6, [r2, #0]
 8006f5e:	9307      	str	r3, [sp, #28]
 8006f60:	2700      	movs	r7, #0
 8006f62:	f7ff bbb2 	b.w	80066ca <_svfiprintf_r+0x18e>
 8006f66:	9a03      	ldr	r2, [sp, #12]
 8006f68:	4610      	mov	r0, r2
 8006f6a:	17d1      	asrs	r1, r2, #31
 8006f6c:	e9c3 0100 	strd	r0, r1, [r3]
 8006f70:	f7ff bafd 	b.w	800656e <_svfiprintf_r+0x32>
 8006f74:	4249      	negs	r1, r1
 8006f76:	9105      	str	r1, [sp, #20]
 8006f78:	9207      	str	r2, [sp, #28]
 8006f7a:	e4d3      	b.n	8006924 <_svfiprintf_r+0x3e8>
 8006f7c:	2140      	movs	r1, #64	; 0x40
 8006f7e:	f7fb f9e7 	bl	8002350 <_malloc_r>
 8006f82:	9b01      	ldr	r3, [sp, #4]
 8006f84:	6018      	str	r0, [r3, #0]
 8006f86:	6118      	str	r0, [r3, #16]
 8006f88:	2800      	cmp	r0, #0
 8006f8a:	d064      	beq.n	8007056 <_svfiprintf_r+0xb1a>
 8006f8c:	9a01      	ldr	r2, [sp, #4]
 8006f8e:	2340      	movs	r3, #64	; 0x40
 8006f90:	6153      	str	r3, [r2, #20]
 8006f92:	f7ff bae1 	b.w	8006558 <_svfiprintf_r+0x1c>
 8006f96:	4628      	mov	r0, r5
 8006f98:	9407      	str	r4, [sp, #28]
 8006f9a:	f7fb fdb1 	bl	8002b00 <strlen>
 8006f9e:	2300      	movs	r3, #0
 8006fa0:	9004      	str	r0, [sp, #16]
 8006fa2:	9302      	str	r3, [sp, #8]
 8006fa4:	f7ff bbdc 	b.w	8006760 <_svfiprintf_r+0x224>
 8006fa8:	2a01      	cmp	r2, #1
 8006faa:	f47f ac2e 	bne.w	800680a <_svfiprintf_r+0x2ce>
 8006fae:	e704      	b.n	8006dba <_svfiprintf_r+0x87e>
 8006fb0:	aa10      	add	r2, sp, #64	; 0x40
 8006fb2:	9901      	ldr	r1, [sp, #4]
 8006fb4:	9806      	ldr	r0, [sp, #24]
 8006fb6:	f7ff fa47 	bl	8006448 <__ssprint_r>
 8006fba:	2800      	cmp	r0, #0
 8006fbc:	f47f ab99 	bne.w	80066f2 <_svfiprintf_r+0x1b6>
 8006fc0:	e9dd 1211 	ldrd	r1, r2, [sp, #68]	; 0x44
 8006fc4:	a815      	add	r0, sp, #84	; 0x54
 8006fc6:	f101 0c01 	add.w	ip, r1, #1
 8006fca:	f10d 0a4c 	add.w	sl, sp, #76	; 0x4c
 8006fce:	e548      	b.n	8006a62 <_svfiprintf_r+0x526>
 8006fd0:	4603      	mov	r3, r0
 8006fd2:	e583      	b.n	8006adc <_svfiprintf_r+0x5a0>
 8006fd4:	9a03      	ldr	r2, [sp, #12]
 8006fd6:	601a      	str	r2, [r3, #0]
 8006fd8:	f7ff bac9 	b.w	800656e <_svfiprintf_r+0x32>
 8006fdc:	9e02      	ldr	r6, [sp, #8]
 8006fde:	9407      	str	r4, [sp, #28]
 8006fe0:	2e06      	cmp	r6, #6
 8006fe2:	bf28      	it	cs
 8006fe4:	2606      	movcs	r6, #6
 8006fe6:	9604      	str	r6, [sp, #16]
 8006fe8:	4d1f      	ldr	r5, [pc, #124]	; (8007068 <_svfiprintf_r+0xb2c>)
 8006fea:	e4c1      	b.n	8006970 <_svfiprintf_r+0x434>
 8006fec:	9a03      	ldr	r2, [sp, #12]
 8006fee:	801a      	strh	r2, [r3, #0]
 8006ff0:	f7ff babd 	b.w	800656e <_svfiprintf_r+0x32>
 8006ff4:	f991 6000 	ldrsb.w	r6, [r1]
 8006ff8:	9207      	str	r2, [sp, #28]
 8006ffa:	17f7      	asrs	r7, r6, #31
 8006ffc:	4630      	mov	r0, r6
 8006ffe:	4639      	mov	r1, r7
 8007000:	f7ff bbe9 	b.w	80067d6 <_svfiprintf_r+0x29a>
 8007004:	7816      	ldrb	r6, [r2, #0]
 8007006:	9307      	str	r3, [sp, #28]
 8007008:	2700      	movs	r7, #0
 800700a:	f7ff bb5e 	b.w	80066ca <_svfiprintf_r+0x18e>
 800700e:	780e      	ldrb	r6, [r1, #0]
 8007010:	9207      	str	r2, [sp, #28]
 8007012:	2700      	movs	r7, #0
 8007014:	f7ff bbc0 	b.w	8006798 <_svfiprintf_r+0x25c>
 8007018:	7816      	ldrb	r6, [r2, #0]
 800701a:	9107      	str	r1, [sp, #28]
 800701c:	2700      	movs	r7, #0
 800701e:	2201      	movs	r2, #1
 8007020:	f7ff bb82 	b.w	8006728 <_svfiprintf_r+0x1ec>
 8007024:	2200      	movs	r2, #0
 8007026:	9202      	str	r2, [sp, #8]
 8007028:	f7ff bad9 	b.w	80065de <_svfiprintf_r+0xa2>
 800702c:	4603      	mov	r3, r0
 800702e:	4661      	mov	r1, ip
 8007030:	e699      	b.n	8006d66 <_svfiprintf_r+0x82a>
 8007032:	9b02      	ldr	r3, [sp, #8]
 8007034:	9304      	str	r3, [sp, #16]
 8007036:	9407      	str	r4, [sp, #28]
 8007038:	9002      	str	r0, [sp, #8]
 800703a:	f7ff bb91 	b.w	8006760 <_svfiprintf_r+0x224>
 800703e:	9807      	ldr	r0, [sp, #28]
 8007040:	f899 3001 	ldrb.w	r3, [r9, #1]
 8007044:	6802      	ldr	r2, [r0, #0]
 8007046:	ea42 72e2 	orr.w	r2, r2, r2, asr #31
 800704a:	9202      	str	r2, [sp, #8]
 800704c:	1d02      	adds	r2, r0, #4
 800704e:	4689      	mov	r9, r1
 8007050:	9207      	str	r2, [sp, #28]
 8007052:	f7ff bac2 	b.w	80065da <_svfiprintf_r+0x9e>
 8007056:	9a06      	ldr	r2, [sp, #24]
 8007058:	230c      	movs	r3, #12
 800705a:	6013      	str	r3, [r2, #0]
 800705c:	f04f 33ff 	mov.w	r3, #4294967295	; 0xffffffff
 8007060:	9303      	str	r3, [sp, #12]
 8007062:	f7ff bb4f 	b.w	8006704 <_svfiprintf_r+0x1c8>
 8007066:	bf00      	nop
 8007068:	08007c10 	.word	0x08007c10

0800706c <_setlocale_r>:
 800706c:	b1b2      	cbz	r2, 800709c <_setlocale_r+0x30>
 800706e:	b510      	push	{r4, lr}
 8007070:	490b      	ldr	r1, [pc, #44]	; (80070a0 <_setlocale_r+0x34>)
 8007072:	4610      	mov	r0, r2
 8007074:	4614      	mov	r4, r2
 8007076:	f000 fa87 	bl	8007588 <strcmp>
 800707a:	b908      	cbnz	r0, 8007080 <_setlocale_r+0x14>
 800707c:	4809      	ldr	r0, [pc, #36]	; (80070a4 <_setlocale_r+0x38>)
 800707e:	bd10      	pop	{r4, pc}
 8007080:	4908      	ldr	r1, [pc, #32]	; (80070a4 <_setlocale_r+0x38>)
 8007082:	4620      	mov	r0, r4
 8007084:	f000 fa80 	bl	8007588 <strcmp>
 8007088:	2800      	cmp	r0, #0
 800708a:	d0f7      	beq.n	800707c <_setlocale_r+0x10>
 800708c:	4620      	mov	r0, r4
 800708e:	4906      	ldr	r1, [pc, #24]	; (80070a8 <_setlocale_r+0x3c>)
 8007090:	f000 fa7a 	bl	8007588 <strcmp>
 8007094:	2800      	cmp	r0, #0
 8007096:	d0f1      	beq.n	800707c <_setlocale_r+0x10>
 8007098:	2000      	movs	r0, #0
 800709a:	bd10      	pop	{r4, pc}
 800709c:	4801      	ldr	r0, [pc, #4]	; (80070a4 <_setlocale_r+0x38>)
 800709e:	4770      	bx	lr
 80070a0:	08007d90 	.word	0x08007d90
 80070a4:	08007d8c 	.word	0x08007d8c
 80070a8:	08007c0c 	.word	0x08007c0c

080070ac <__locale_mb_cur_max>:
 80070ac:	4b04      	ldr	r3, [pc, #16]	; (80070c0 <__locale_mb_cur_max+0x14>)
 80070ae:	4a05      	ldr	r2, [pc, #20]	; (80070c4 <__locale_mb_cur_max+0x18>)
 80070b0:	681b      	ldr	r3, [r3, #0]
 80070b2:	6b5b      	ldr	r3, [r3, #52]	; 0x34
 80070b4:	2b00      	cmp	r3, #0
 80070b6:	bf08      	it	eq
 80070b8:	4613      	moveq	r3, r2
 80070ba:	f893 0128 	ldrb.w	r0, [r3, #296]	; 0x128
 80070be:	4770      	bx	lr
 80070c0:	20000004 	.word	0x20000004
 80070c4:	20000840 	.word	0x20000840

080070c8 <__locale_ctype_ptr_l>:
 80070c8:	f8d0 00ec 	ldr.w	r0, [r0, #236]	; 0xec
 80070cc:	4770      	bx	lr
 80070ce:	bf00      	nop

080070d0 <__locale_ctype_ptr>:
 80070d0:	4b04      	ldr	r3, [pc, #16]	; (80070e4 <__locale_ctype_ptr+0x14>)
 80070d2:	4a05      	ldr	r2, [pc, #20]	; (80070e8 <__locale_ctype_ptr+0x18>)
 80070d4:	681b      	ldr	r3, [r3, #0]
 80070d6:	6b5b      	ldr	r3, [r3, #52]	; 0x34
 80070d8:	2b00      	cmp	r3, #0
 80070da:	bf08      	it	eq
 80070dc:	4613      	moveq	r3, r2
 80070de:	f8d3 00ec 	ldr.w	r0, [r3, #236]	; 0xec
 80070e2:	4770      	bx	lr
 80070e4:	20000004 	.word	0x20000004
 80070e8:	20000840 	.word	0x20000840

080070ec <setlocale>:
 80070ec:	4b02      	ldr	r3, [pc, #8]	; (80070f8 <setlocale+0xc>)
 80070ee:	460a      	mov	r2, r1
 80070f0:	4601      	mov	r1, r0
 80070f2:	6818      	ldr	r0, [r3, #0]
 80070f4:	f7ff bfba 	b.w	800706c <_setlocale_r>
 80070f8:	20000004 	.word	0x20000004

080070fc <_mbtowc_r>:
 80070fc:	b430      	push	{r4, r5}
 80070fe:	4c06      	ldr	r4, [pc, #24]	; (8007118 <_mbtowc_r+0x1c>)
 8007100:	4d06      	ldr	r5, [pc, #24]	; (800711c <_mbtowc_r+0x20>)
 8007102:	6824      	ldr	r4, [r4, #0]
 8007104:	6b64      	ldr	r4, [r4, #52]	; 0x34
 8007106:	2c00      	cmp	r4, #0
 8007108:	bf08      	it	eq
 800710a:	462c      	moveq	r4, r5
 800710c:	f8d4 40e4 	ldr.w	r4, [r4, #228]	; 0xe4
 8007110:	46a4      	mov	ip, r4
 8007112:	bc30      	pop	{r4, r5}
 8007114:	4760      	bx	ip
 8007116:	bf00      	nop
 8007118:	20000004 	.word	0x20000004
 800711c:	20000840 	.word	0x20000840

08007120 <__ascii_mbtowc>:
 8007120:	b082      	sub	sp, #8
 8007122:	b149      	cbz	r1, 8007138 <__ascii_mbtowc+0x18>
 8007124:	b15a      	cbz	r2, 800713e <__ascii_mbtowc+0x1e>
 8007126:	b16b      	cbz	r3, 8007144 <__ascii_mbtowc+0x24>
 8007128:	7813      	ldrb	r3, [r2, #0]
 800712a:	600b      	str	r3, [r1, #0]
 800712c:	7812      	ldrb	r2, [r2, #0]
 800712e:	1c10      	adds	r0, r2, #0
 8007130:	bf18      	it	ne
 8007132:	2001      	movne	r0, #1
 8007134:	b002      	add	sp, #8
 8007136:	4770      	bx	lr
 8007138:	a901      	add	r1, sp, #4
 800713a:	2a00      	cmp	r2, #0
 800713c:	d1f3      	bne.n	8007126 <__ascii_mbtowc+0x6>
 800713e:	4610      	mov	r0, r2
 8007140:	b002      	add	sp, #8
 8007142:	4770      	bx	lr
 8007144:	f06f 0001 	mvn.w	r0, #1
 8007148:	e7f4      	b.n	8007134 <__ascii_mbtowc+0x14>
 800714a:	bf00      	nop

0800714c <memmove>:
 800714c:	4288      	cmp	r0, r1
 800714e:	b4f0      	push	{r4, r5, r6, r7}
 8007150:	d90d      	bls.n	800716e <memmove+0x22>
 8007152:	188b      	adds	r3, r1, r2
 8007154:	4283      	cmp	r3, r0
 8007156:	d90a      	bls.n	800716e <memmove+0x22>
 8007158:	1884      	adds	r4, r0, r2
 800715a:	b132      	cbz	r2, 800716a <memmove+0x1e>
 800715c:	4622      	mov	r2, r4
 800715e:	f813 4d01 	ldrb.w	r4, [r3, #-1]!
 8007162:	f802 4d01 	strb.w	r4, [r2, #-1]!
 8007166:	4299      	cmp	r1, r3
 8007168:	d1f9      	bne.n	800715e <memmove+0x12>
 800716a:	bcf0      	pop	{r4, r5, r6, r7}
 800716c:	4770      	bx	lr
 800716e:	2a0f      	cmp	r2, #15
 8007170:	d949      	bls.n	8007206 <memmove+0xba>
 8007172:	ea40 0301 	orr.w	r3, r0, r1
 8007176:	079b      	lsls	r3, r3, #30
 8007178:	d147      	bne.n	800720a <memmove+0xbe>
 800717a:	f1a2 0310 	sub.w	r3, r2, #16
 800717e:	091b      	lsrs	r3, r3, #4
 8007180:	f101 0720 	add.w	r7, r1, #32
 8007184:	eb07 1703 	add.w	r7, r7, r3, lsl #4
 8007188:	f101 0410 	add.w	r4, r1, #16
 800718c:	f100 0510 	add.w	r5, r0, #16
 8007190:	f854 6c10 	ldr.w	r6, [r4, #-16]
 8007194:	f845 6c10 	str.w	r6, [r5, #-16]
 8007198:	f854 6c0c 	ldr.w	r6, [r4, #-12]
 800719c:	f845 6c0c 	str.w	r6, [r5, #-12]
 80071a0:	f854 6c08 	ldr.w	r6, [r4, #-8]
 80071a4:	f845 6c08 	str.w	r6, [r5, #-8]
 80071a8:	f854 6c04 	ldr.w	r6, [r4, #-4]
 80071ac:	f845 6c04 	str.w	r6, [r5, #-4]
 80071b0:	3410      	adds	r4, #16
 80071b2:	42bc      	cmp	r4, r7
 80071b4:	f105 0510 	add.w	r5, r5, #16
 80071b8:	d1ea      	bne.n	8007190 <memmove+0x44>
 80071ba:	3301      	adds	r3, #1
 80071bc:	f002 050f 	and.w	r5, r2, #15
 80071c0:	011b      	lsls	r3, r3, #4
 80071c2:	2d03      	cmp	r5, #3
 80071c4:	4419      	add	r1, r3
 80071c6:	4403      	add	r3, r0
 80071c8:	d921      	bls.n	800720e <memmove+0xc2>
 80071ca:	1f1f      	subs	r7, r3, #4
 80071cc:	460e      	mov	r6, r1
 80071ce:	462c      	mov	r4, r5
 80071d0:	3c04      	subs	r4, #4
 80071d2:	f856 cb04 	ldr.w	ip, [r6], #4
 80071d6:	f847 cf04 	str.w	ip, [r7, #4]!
 80071da:	2c03      	cmp	r4, #3
 80071dc:	d8f8      	bhi.n	80071d0 <memmove+0x84>
 80071de:	1f2c      	subs	r4, r5, #4
 80071e0:	f024 0403 	bic.w	r4, r4, #3
 80071e4:	3404      	adds	r4, #4
 80071e6:	4423      	add	r3, r4
 80071e8:	4421      	add	r1, r4
 80071ea:	f002 0203 	and.w	r2, r2, #3
 80071ee:	2a00      	cmp	r2, #0
 80071f0:	d0bb      	beq.n	800716a <memmove+0x1e>
 80071f2:	3b01      	subs	r3, #1
 80071f4:	440a      	add	r2, r1
 80071f6:	f811 4b01 	ldrb.w	r4, [r1], #1
 80071fa:	f803 4f01 	strb.w	r4, [r3, #1]!
 80071fe:	4291      	cmp	r1, r2
 8007200:	d1f9      	bne.n	80071f6 <memmove+0xaa>
 8007202:	bcf0      	pop	{r4, r5, r6, r7}
 8007204:	4770      	bx	lr
 8007206:	4603      	mov	r3, r0
 8007208:	e7f1      	b.n	80071ee <memmove+0xa2>
 800720a:	4603      	mov	r3, r0
 800720c:	e7f1      	b.n	80071f2 <memmove+0xa6>
 800720e:	462a      	mov	r2, r5
 8007210:	e7ed      	b.n	80071ee <memmove+0xa2>
 8007212:	bf00      	nop

08007214 <_realloc_r>:
 8007214:	e92d 4ff0 	stmdb	sp!, {r4, r5, r6, r7, r8, r9, sl, fp, lr}
 8007218:	4692      	mov	sl, r2
 800721a:	b083      	sub	sp, #12
 800721c:	2900      	cmp	r1, #0
 800721e:	f000 80a1 	beq.w	8007364 <_realloc_r+0x150>
 8007222:	460d      	mov	r5, r1
 8007224:	4680      	mov	r8, r0
 8007226:	f10a 040b 	add.w	r4, sl, #11
 800722a:	f7fb fb7f 	bl	800292c <__malloc_lock>
 800722e:	f855 2c04 	ldr.w	r2, [r5, #-4]
 8007232:	2c16      	cmp	r4, #22
 8007234:	f022 0603 	bic.w	r6, r2, #3
 8007238:	f1a5 0708 	sub.w	r7, r5, #8
 800723c:	d83e      	bhi.n	80072bc <_realloc_r+0xa8>
 800723e:	2410      	movs	r4, #16
 8007240:	4621      	mov	r1, r4
 8007242:	45a2      	cmp	sl, r4
 8007244:	d83f      	bhi.n	80072c6 <_realloc_r+0xb2>
 8007246:	428e      	cmp	r6, r1
 8007248:	eb07 0906 	add.w	r9, r7, r6
 800724c:	da74      	bge.n	8007338 <_realloc_r+0x124>
 800724e:	4bc7      	ldr	r3, [pc, #796]	; (800756c <_realloc_r+0x358>)
 8007250:	6898      	ldr	r0, [r3, #8]
 8007252:	4548      	cmp	r0, r9
 8007254:	f000 80aa 	beq.w	80073ac <_realloc_r+0x198>
 8007258:	f8d9 0004 	ldr.w	r0, [r9, #4]
 800725c:	f020 0301 	bic.w	r3, r0, #1
 8007260:	444b      	add	r3, r9
 8007262:	685b      	ldr	r3, [r3, #4]
 8007264:	07db      	lsls	r3, r3, #31
 8007266:	f140 8083 	bpl.w	8007370 <_realloc_r+0x15c>
 800726a:	07d2      	lsls	r2, r2, #31
 800726c:	d534      	bpl.n	80072d8 <_realloc_r+0xc4>
 800726e:	4651      	mov	r1, sl
 8007270:	4640      	mov	r0, r8
 8007272:	f7fb f86d 	bl	8002350 <_malloc_r>
 8007276:	4682      	mov	sl, r0
 8007278:	b1e0      	cbz	r0, 80072b4 <_realloc_r+0xa0>
 800727a:	f855 3c04 	ldr.w	r3, [r5, #-4]
 800727e:	f023 0301 	bic.w	r3, r3, #1
 8007282:	443b      	add	r3, r7
 8007284:	f1a0 0208 	sub.w	r2, r0, #8
 8007288:	4293      	cmp	r3, r2
 800728a:	f000 80f9 	beq.w	8007480 <_realloc_r+0x26c>
 800728e:	1f32      	subs	r2, r6, #4
 8007290:	2a24      	cmp	r2, #36	; 0x24
 8007292:	f200 8107 	bhi.w	80074a4 <_realloc_r+0x290>
 8007296:	2a13      	cmp	r2, #19
 8007298:	6829      	ldr	r1, [r5, #0]
 800729a:	f200 80e6 	bhi.w	800746a <_realloc_r+0x256>
 800729e:	4603      	mov	r3, r0
 80072a0:	462a      	mov	r2, r5
 80072a2:	6019      	str	r1, [r3, #0]
 80072a4:	6851      	ldr	r1, [r2, #4]
 80072a6:	6059      	str	r1, [r3, #4]
 80072a8:	6892      	ldr	r2, [r2, #8]
 80072aa:	609a      	str	r2, [r3, #8]
 80072ac:	4629      	mov	r1, r5
 80072ae:	4640      	mov	r0, r8
 80072b0:	f7fe f998 	bl	80055e4 <_free_r>
 80072b4:	4640      	mov	r0, r8
 80072b6:	f7fb fb3f 	bl	8002938 <__malloc_unlock>
 80072ba:	e04f      	b.n	800735c <_realloc_r+0x148>
 80072bc:	f024 0407 	bic.w	r4, r4, #7
 80072c0:	2c00      	cmp	r4, #0
 80072c2:	4621      	mov	r1, r4
 80072c4:	dabd      	bge.n	8007242 <_realloc_r+0x2e>
 80072c6:	f04f 0a00 	mov.w	sl, #0
 80072ca:	230c      	movs	r3, #12
 80072cc:	4650      	mov	r0, sl
 80072ce:	f8c8 3000 	str.w	r3, [r8]
 80072d2:	b003      	add	sp, #12
 80072d4:	e8bd 8ff0 	ldmia.w	sp!, {r4, r5, r6, r7, r8, r9, sl, fp, pc}
 80072d8:	f855 3c08 	ldr.w	r3, [r5, #-8]
 80072dc:	eba7 0b03 	sub.w	fp, r7, r3
 80072e0:	f8db 2004 	ldr.w	r2, [fp, #4]
 80072e4:	f022 0203 	bic.w	r2, r2, #3
 80072e8:	18b3      	adds	r3, r6, r2
 80072ea:	428b      	cmp	r3, r1
 80072ec:	dbbf      	blt.n	800726e <_realloc_r+0x5a>
 80072ee:	46da      	mov	sl, fp
 80072f0:	f8db 100c 	ldr.w	r1, [fp, #12]
 80072f4:	f85a 0f08 	ldr.w	r0, [sl, #8]!
 80072f8:	1f32      	subs	r2, r6, #4
 80072fa:	2a24      	cmp	r2, #36	; 0x24
 80072fc:	60c1      	str	r1, [r0, #12]
 80072fe:	eb0b 0903 	add.w	r9, fp, r3
 8007302:	6088      	str	r0, [r1, #8]
 8007304:	f200 80c6 	bhi.w	8007494 <_realloc_r+0x280>
 8007308:	2a13      	cmp	r2, #19
 800730a:	6829      	ldr	r1, [r5, #0]
 800730c:	f240 80c0 	bls.w	8007490 <_realloc_r+0x27c>
 8007310:	f8cb 1008 	str.w	r1, [fp, #8]
 8007314:	6869      	ldr	r1, [r5, #4]
 8007316:	f8cb 100c 	str.w	r1, [fp, #12]
 800731a:	2a1b      	cmp	r2, #27
 800731c:	68a9      	ldr	r1, [r5, #8]
 800731e:	f200 80d8 	bhi.w	80074d2 <_realloc_r+0x2be>
 8007322:	f10b 0210 	add.w	r2, fp, #16
 8007326:	3508      	adds	r5, #8
 8007328:	6011      	str	r1, [r2, #0]
 800732a:	6869      	ldr	r1, [r5, #4]
 800732c:	6051      	str	r1, [r2, #4]
 800732e:	68a9      	ldr	r1, [r5, #8]
 8007330:	6091      	str	r1, [r2, #8]
 8007332:	461e      	mov	r6, r3
 8007334:	465f      	mov	r7, fp
 8007336:	4655      	mov	r5, sl
 8007338:	687b      	ldr	r3, [r7, #4]
 800733a:	1b32      	subs	r2, r6, r4
 800733c:	2a0f      	cmp	r2, #15
 800733e:	f003 0301 	and.w	r3, r3, #1
 8007342:	d822      	bhi.n	800738a <_realloc_r+0x176>
 8007344:	4333      	orrs	r3, r6
 8007346:	607b      	str	r3, [r7, #4]
 8007348:	f8d9 3004 	ldr.w	r3, [r9, #4]
 800734c:	f043 0301 	orr.w	r3, r3, #1
 8007350:	f8c9 3004 	str.w	r3, [r9, #4]
 8007354:	4640      	mov	r0, r8
 8007356:	f7fb faef 	bl	8002938 <__malloc_unlock>
 800735a:	46aa      	mov	sl, r5
 800735c:	4650      	mov	r0, sl
 800735e:	b003      	add	sp, #12
 8007360:	e8bd 8ff0 	ldmia.w	sp!, {r4, r5, r6, r7, r8, r9, sl, fp, pc}
 8007364:	4611      	mov	r1, r2
 8007366:	b003      	add	sp, #12
 8007368:	e8bd 4ff0 	ldmia.w	sp!, {r4, r5, r6, r7, r8, r9, sl, fp, lr}
 800736c:	f7fa bff0 	b.w	8002350 <_malloc_r>
 8007370:	f020 0003 	bic.w	r0, r0, #3
 8007374:	1833      	adds	r3, r6, r0
 8007376:	428b      	cmp	r3, r1
 8007378:	db61      	blt.n	800743e <_realloc_r+0x22a>
 800737a:	e9d9 1202 	ldrd	r1, r2, [r9, #8]
 800737e:	461e      	mov	r6, r3
 8007380:	60ca      	str	r2, [r1, #12]
 8007382:	eb07 0903 	add.w	r9, r7, r3
 8007386:	6091      	str	r1, [r2, #8]
 8007388:	e7d6      	b.n	8007338 <_realloc_r+0x124>
 800738a:	1939      	adds	r1, r7, r4
 800738c:	4323      	orrs	r3, r4
 800738e:	f042 0201 	orr.w	r2, r2, #1
 8007392:	607b      	str	r3, [r7, #4]
 8007394:	604a      	str	r2, [r1, #4]
 8007396:	f8d9 3004 	ldr.w	r3, [r9, #4]
 800739a:	f043 0301 	orr.w	r3, r3, #1
 800739e:	3108      	adds	r1, #8
 80073a0:	f8c9 3004 	str.w	r3, [r9, #4]
 80073a4:	4640      	mov	r0, r8
 80073a6:	f7fe f91d 	bl	80055e4 <_free_r>
 80073aa:	e7d3      	b.n	8007354 <_realloc_r+0x140>
 80073ac:	6840      	ldr	r0, [r0, #4]
 80073ae:	f020 0903 	bic.w	r9, r0, #3
 80073b2:	44b1      	add	r9, r6
 80073b4:	f104 0010 	add.w	r0, r4, #16
 80073b8:	4581      	cmp	r9, r0
 80073ba:	da77      	bge.n	80074ac <_realloc_r+0x298>
 80073bc:	07d2      	lsls	r2, r2, #31
 80073be:	f53f af56 	bmi.w	800726e <_realloc_r+0x5a>
 80073c2:	f855 2c08 	ldr.w	r2, [r5, #-8]
 80073c6:	eba7 0b02 	sub.w	fp, r7, r2
 80073ca:	f8db 2004 	ldr.w	r2, [fp, #4]
 80073ce:	f022 0203 	bic.w	r2, r2, #3
 80073d2:	4491      	add	r9, r2
 80073d4:	4548      	cmp	r0, r9
 80073d6:	dc87      	bgt.n	80072e8 <_realloc_r+0xd4>
 80073d8:	46da      	mov	sl, fp
 80073da:	f8db 100c 	ldr.w	r1, [fp, #12]
 80073de:	f85a 0f08 	ldr.w	r0, [sl, #8]!
 80073e2:	1f32      	subs	r2, r6, #4
 80073e4:	2a24      	cmp	r2, #36	; 0x24
 80073e6:	60c1      	str	r1, [r0, #12]
 80073e8:	6088      	str	r0, [r1, #8]
 80073ea:	f200 80a1 	bhi.w	8007530 <_realloc_r+0x31c>
 80073ee:	2a13      	cmp	r2, #19
 80073f0:	6829      	ldr	r1, [r5, #0]
 80073f2:	f240 809b 	bls.w	800752c <_realloc_r+0x318>
 80073f6:	f8cb 1008 	str.w	r1, [fp, #8]
 80073fa:	6869      	ldr	r1, [r5, #4]
 80073fc:	f8cb 100c 	str.w	r1, [fp, #12]
 8007400:	2a1b      	cmp	r2, #27
 8007402:	68a9      	ldr	r1, [r5, #8]
 8007404:	f200 809b 	bhi.w	800753e <_realloc_r+0x32a>
 8007408:	f10b 0210 	add.w	r2, fp, #16
 800740c:	3508      	adds	r5, #8
 800740e:	6011      	str	r1, [r2, #0]
 8007410:	6869      	ldr	r1, [r5, #4]
 8007412:	6051      	str	r1, [r2, #4]
 8007414:	68a9      	ldr	r1, [r5, #8]
 8007416:	6091      	str	r1, [r2, #8]
 8007418:	eb0b 0104 	add.w	r1, fp, r4
 800741c:	eba9 0204 	sub.w	r2, r9, r4
 8007420:	f042 0201 	orr.w	r2, r2, #1
 8007424:	6099      	str	r1, [r3, #8]
 8007426:	604a      	str	r2, [r1, #4]
 8007428:	f8db 3004 	ldr.w	r3, [fp, #4]
 800742c:	f003 0301 	and.w	r3, r3, #1
 8007430:	431c      	orrs	r4, r3
 8007432:	4640      	mov	r0, r8
 8007434:	f8cb 4004 	str.w	r4, [fp, #4]
 8007438:	f7fb fa7e 	bl	8002938 <__malloc_unlock>
 800743c:	e78e      	b.n	800735c <_realloc_r+0x148>
 800743e:	07d3      	lsls	r3, r2, #31
 8007440:	f53f af15 	bmi.w	800726e <_realloc_r+0x5a>
 8007444:	f855 3c08 	ldr.w	r3, [r5, #-8]
 8007448:	eba7 0b03 	sub.w	fp, r7, r3
 800744c:	f8db 2004 	ldr.w	r2, [fp, #4]
 8007450:	f022 0203 	bic.w	r2, r2, #3
 8007454:	4410      	add	r0, r2
 8007456:	1983      	adds	r3, r0, r6
 8007458:	428b      	cmp	r3, r1
 800745a:	f6ff af45 	blt.w	80072e8 <_realloc_r+0xd4>
 800745e:	e9d9 1202 	ldrd	r1, r2, [r9, #8]
 8007462:	46da      	mov	sl, fp
 8007464:	60ca      	str	r2, [r1, #12]
 8007466:	6091      	str	r1, [r2, #8]
 8007468:	e742      	b.n	80072f0 <_realloc_r+0xdc>
 800746a:	6001      	str	r1, [r0, #0]
 800746c:	686b      	ldr	r3, [r5, #4]
 800746e:	6043      	str	r3, [r0, #4]
 8007470:	2a1b      	cmp	r2, #27
 8007472:	d83a      	bhi.n	80074ea <_realloc_r+0x2d6>
 8007474:	f105 0208 	add.w	r2, r5, #8
 8007478:	f100 0308 	add.w	r3, r0, #8
 800747c:	68a9      	ldr	r1, [r5, #8]
 800747e:	e710      	b.n	80072a2 <_realloc_r+0x8e>
 8007480:	f850 3c04 	ldr.w	r3, [r0, #-4]
 8007484:	f023 0303 	bic.w	r3, r3, #3
 8007488:	441e      	add	r6, r3
 800748a:	eb07 0906 	add.w	r9, r7, r6
 800748e:	e753      	b.n	8007338 <_realloc_r+0x124>
 8007490:	4652      	mov	r2, sl
 8007492:	e749      	b.n	8007328 <_realloc_r+0x114>
 8007494:	4629      	mov	r1, r5
 8007496:	4650      	mov	r0, sl
 8007498:	461e      	mov	r6, r3
 800749a:	465f      	mov	r7, fp
 800749c:	f7ff fe56 	bl	800714c <memmove>
 80074a0:	4655      	mov	r5, sl
 80074a2:	e749      	b.n	8007338 <_realloc_r+0x124>
 80074a4:	4629      	mov	r1, r5
 80074a6:	f7ff fe51 	bl	800714c <memmove>
 80074aa:	e6ff      	b.n	80072ac <_realloc_r+0x98>
 80074ac:	4427      	add	r7, r4
 80074ae:	eba9 0904 	sub.w	r9, r9, r4
 80074b2:	f049 0201 	orr.w	r2, r9, #1
 80074b6:	609f      	str	r7, [r3, #8]
 80074b8:	607a      	str	r2, [r7, #4]
 80074ba:	f855 3c04 	ldr.w	r3, [r5, #-4]
 80074be:	f003 0301 	and.w	r3, r3, #1
 80074c2:	431c      	orrs	r4, r3
 80074c4:	4640      	mov	r0, r8
 80074c6:	f845 4c04 	str.w	r4, [r5, #-4]
 80074ca:	f7fb fa35 	bl	8002938 <__malloc_unlock>
 80074ce:	46aa      	mov	sl, r5
 80074d0:	e744      	b.n	800735c <_realloc_r+0x148>
 80074d2:	f8cb 1010 	str.w	r1, [fp, #16]
 80074d6:	68e9      	ldr	r1, [r5, #12]
 80074d8:	f8cb 1014 	str.w	r1, [fp, #20]
 80074dc:	2a24      	cmp	r2, #36	; 0x24
 80074de:	d010      	beq.n	8007502 <_realloc_r+0x2ee>
 80074e0:	6929      	ldr	r1, [r5, #16]
 80074e2:	f10b 0218 	add.w	r2, fp, #24
 80074e6:	3510      	adds	r5, #16
 80074e8:	e71e      	b.n	8007328 <_realloc_r+0x114>
 80074ea:	68ab      	ldr	r3, [r5, #8]
 80074ec:	6083      	str	r3, [r0, #8]
 80074ee:	68eb      	ldr	r3, [r5, #12]
 80074f0:	60c3      	str	r3, [r0, #12]
 80074f2:	2a24      	cmp	r2, #36	; 0x24
 80074f4:	d010      	beq.n	8007518 <_realloc_r+0x304>
 80074f6:	f105 0210 	add.w	r2, r5, #16
 80074fa:	f100 0310 	add.w	r3, r0, #16
 80074fe:	6929      	ldr	r1, [r5, #16]
 8007500:	e6cf      	b.n	80072a2 <_realloc_r+0x8e>
 8007502:	692a      	ldr	r2, [r5, #16]
 8007504:	f8cb 2018 	str.w	r2, [fp, #24]
 8007508:	696a      	ldr	r2, [r5, #20]
 800750a:	f8cb 201c 	str.w	r2, [fp, #28]
 800750e:	69a9      	ldr	r1, [r5, #24]
 8007510:	f10b 0220 	add.w	r2, fp, #32
 8007514:	3518      	adds	r5, #24
 8007516:	e707      	b.n	8007328 <_realloc_r+0x114>
 8007518:	692b      	ldr	r3, [r5, #16]
 800751a:	6103      	str	r3, [r0, #16]
 800751c:	696b      	ldr	r3, [r5, #20]
 800751e:	6143      	str	r3, [r0, #20]
 8007520:	69a9      	ldr	r1, [r5, #24]
 8007522:	f105 0218 	add.w	r2, r5, #24
 8007526:	f100 0318 	add.w	r3, r0, #24
 800752a:	e6ba      	b.n	80072a2 <_realloc_r+0x8e>
 800752c:	4652      	mov	r2, sl
 800752e:	e76e      	b.n	800740e <_realloc_r+0x1fa>
 8007530:	4629      	mov	r1, r5
 8007532:	4650      	mov	r0, sl
 8007534:	9301      	str	r3, [sp, #4]
 8007536:	f7ff fe09 	bl	800714c <memmove>
 800753a:	9b01      	ldr	r3, [sp, #4]
 800753c:	e76c      	b.n	8007418 <_realloc_r+0x204>
 800753e:	f8cb 1010 	str.w	r1, [fp, #16]
 8007542:	68e9      	ldr	r1, [r5, #12]
 8007544:	f8cb 1014 	str.w	r1, [fp, #20]
 8007548:	2a24      	cmp	r2, #36	; 0x24
 800754a:	d004      	beq.n	8007556 <_realloc_r+0x342>
 800754c:	6929      	ldr	r1, [r5, #16]
 800754e:	f10b 0218 	add.w	r2, fp, #24
 8007552:	3510      	adds	r5, #16
 8007554:	e75b      	b.n	800740e <_realloc_r+0x1fa>
 8007556:	692a      	ldr	r2, [r5, #16]
 8007558:	f8cb 2018 	str.w	r2, [fp, #24]
 800755c:	696a      	ldr	r2, [r5, #20]
 800755e:	f8cb 201c 	str.w	r2, [fp, #28]
 8007562:	69a9      	ldr	r1, [r5, #24]
 8007564:	f10b 0220 	add.w	r2, fp, #32
 8007568:	3518      	adds	r5, #24
 800756a:	e750      	b.n	800740e <_realloc_r+0x1fa>
 800756c:	20000430 	.word	0x20000430
	...
 8007580:	eba2 0003 	sub.w	r0, r2, r3
 8007584:	4770      	bx	lr
 8007586:	bf00      	nop

08007588 <strcmp>:
 8007588:	7802      	ldrb	r2, [r0, #0]
 800758a:	780b      	ldrb	r3, [r1, #0]
 800758c:	2a01      	cmp	r2, #1
 800758e:	bf28      	it	cs
 8007590:	429a      	cmpcs	r2, r3
 8007592:	d1f5      	bne.n	8007580 <_realloc_r+0x36c>
 8007594:	e96d 4504 	strd	r4, r5, [sp, #-16]!
 8007598:	ea40 0401 	orr.w	r4, r0, r1
 800759c:	e9cd 6702 	strd	r6, r7, [sp, #8]
 80075a0:	f06f 0c00 	mvn.w	ip, #0
 80075a4:	ea4f 7244 	mov.w	r2, r4, lsl #29
 80075a8:	b312      	cbz	r2, 80075f0 <strcmp+0x68>
 80075aa:	ea80 0401 	eor.w	r4, r0, r1
 80075ae:	f014 0f07 	tst.w	r4, #7
 80075b2:	d16a      	bne.n	800768a <strcmp+0x102>
 80075b4:	f000 0407 	and.w	r4, r0, #7
 80075b8:	f020 0007 	bic.w	r0, r0, #7
 80075bc:	f004 0503 	and.w	r5, r4, #3
 80075c0:	f021 0107 	bic.w	r1, r1, #7
 80075c4:	ea4f 05c5 	mov.w	r5, r5, lsl #3
 80075c8:	e8f0 2304 	ldrd	r2, r3, [r0], #16
 80075cc:	f014 0f04 	tst.w	r4, #4
 80075d0:	e8f1 6704 	ldrd	r6, r7, [r1], #16
 80075d4:	fa0c f405 	lsl.w	r4, ip, r5
 80075d8:	ea62 0204 	orn	r2, r2, r4
 80075dc:	ea66 0604 	orn	r6, r6, r4
 80075e0:	d00a      	beq.n	80075f8 <strcmp+0x70>
 80075e2:	ea63 0304 	orn	r3, r3, r4
 80075e6:	4662      	mov	r2, ip
 80075e8:	ea67 0704 	orn	r7, r7, r4
 80075ec:	4666      	mov	r6, ip
 80075ee:	e003      	b.n	80075f8 <strcmp+0x70>
 80075f0:	e8f0 2304 	ldrd	r2, r3, [r0], #16
 80075f4:	e8f1 6704 	ldrd	r6, r7, [r1], #16
 80075f8:	fa82 f54c 	uadd8	r5, r2, ip
 80075fc:	ea82 0406 	eor.w	r4, r2, r6
 8007600:	faa4 f48c 	sel	r4, r4, ip
 8007604:	bb6c      	cbnz	r4, 8007662 <strcmp+0xda>
 8007606:	fa83 f54c 	uadd8	r5, r3, ip
 800760a:	ea83 0507 	eor.w	r5, r3, r7
 800760e:	faa5 f58c 	sel	r5, r5, ip
 8007612:	b995      	cbnz	r5, 800763a <strcmp+0xb2>
 8007614:	e950 2302 	ldrd	r2, r3, [r0, #-8]
 8007618:	e951 6702 	ldrd	r6, r7, [r1, #-8]
 800761c:	fa82 f54c 	uadd8	r5, r2, ip
 8007620:	ea82 0406 	eor.w	r4, r2, r6
 8007624:	faa4 f48c 	sel	r4, r4, ip
 8007628:	fa83 f54c 	uadd8	r5, r3, ip
 800762c:	ea83 0507 	eor.w	r5, r3, r7
 8007630:	faa5 f58c 	sel	r5, r5, ip
 8007634:	4325      	orrs	r5, r4
 8007636:	d0db      	beq.n	80075f0 <strcmp+0x68>
 8007638:	b99c      	cbnz	r4, 8007662 <strcmp+0xda>
 800763a:	ba2d      	rev	r5, r5
 800763c:	fab5 f485 	clz	r4, r5
 8007640:	f024 0407 	bic.w	r4, r4, #7
 8007644:	fa27 f104 	lsr.w	r1, r7, r4
 8007648:	e9dd 6702 	ldrd	r6, r7, [sp, #8]
 800764c:	fa23 f304 	lsr.w	r3, r3, r4
 8007650:	f003 00ff 	and.w	r0, r3, #255	; 0xff
 8007654:	f001 01ff 	and.w	r1, r1, #255	; 0xff
 8007658:	e8fd 4504 	ldrd	r4, r5, [sp], #16
 800765c:	eba0 0001 	sub.w	r0, r0, r1
 8007660:	4770      	bx	lr
 8007662:	ba24      	rev	r4, r4
 8007664:	fab4 f484 	clz	r4, r4
 8007668:	f024 0407 	bic.w	r4, r4, #7
 800766c:	fa26 f104 	lsr.w	r1, r6, r4
 8007670:	e9dd 6702 	ldrd	r6, r7, [sp, #8]
 8007674:	fa22 f204 	lsr.w	r2, r2, r4
 8007678:	f002 00ff 	and.w	r0, r2, #255	; 0xff
 800767c:	f001 01ff 	and.w	r1, r1, #255	; 0xff
 8007680:	e8fd 4504 	ldrd	r4, r5, [sp], #16
 8007684:	eba0 0001 	sub.w	r0, r0, r1
 8007688:	4770      	bx	lr
 800768a:	f014 0f03 	tst.w	r4, #3
 800768e:	d13c      	bne.n	800770a <strcmp+0x182>
 8007690:	f010 0403 	ands.w	r4, r0, #3
 8007694:	d128      	bne.n	80076e8 <strcmp+0x160>
 8007696:	f850 2b08 	ldr.w	r2, [r0], #8
 800769a:	f851 3b08 	ldr.w	r3, [r1], #8
 800769e:	fa82 f54c 	uadd8	r5, r2, ip
 80076a2:	ea82 0503 	eor.w	r5, r2, r3
 80076a6:	faa5 f58c 	sel	r5, r5, ip
 80076aa:	b95d      	cbnz	r5, 80076c4 <strcmp+0x13c>
 80076ac:	f850 2c04 	ldr.w	r2, [r0, #-4]
 80076b0:	f851 3c04 	ldr.w	r3, [r1, #-4]
 80076b4:	fa82 f54c 	uadd8	r5, r2, ip
 80076b8:	ea82 0503 	eor.w	r5, r2, r3
 80076bc:	faa5 f58c 	sel	r5, r5, ip
 80076c0:	2d00      	cmp	r5, #0
 80076c2:	d0e8      	beq.n	8007696 <strcmp+0x10e>
 80076c4:	ba2d      	rev	r5, r5
 80076c6:	fab5 f485 	clz	r4, r5
 80076ca:	f024 0407 	bic.w	r4, r4, #7
 80076ce:	fa23 f104 	lsr.w	r1, r3, r4
 80076d2:	fa22 f204 	lsr.w	r2, r2, r4
 80076d6:	f002 00ff 	and.w	r0, r2, #255	; 0xff
 80076da:	f001 01ff 	and.w	r1, r1, #255	; 0xff
 80076de:	e8fd 4504 	ldrd	r4, r5, [sp], #16
 80076e2:	eba0 0001 	sub.w	r0, r0, r1
 80076e6:	4770      	bx	lr
 80076e8:	ea4f 04c4 	mov.w	r4, r4, lsl #3
 80076ec:	f020 0003 	bic.w	r0, r0, #3
 80076f0:	f850 2b08 	ldr.w	r2, [r0], #8
 80076f4:	f021 0103 	bic.w	r1, r1, #3
 80076f8:	f851 3b08 	ldr.w	r3, [r1], #8
 80076fc:	fa0c f404 	lsl.w	r4, ip, r4
 8007700:	ea62 0204 	orn	r2, r2, r4
 8007704:	ea63 0304 	orn	r3, r3, r4
 8007708:	e7c9      	b.n	800769e <strcmp+0x116>
 800770a:	f010 0403 	ands.w	r4, r0, #3
 800770e:	d01a      	beq.n	8007746 <strcmp+0x1be>
 8007710:	eba1 0104 	sub.w	r1, r1, r4
 8007714:	f020 0003 	bic.w	r0, r0, #3
 8007718:	07e4      	lsls	r4, r4, #31
 800771a:	f850 2b04 	ldr.w	r2, [r0], #4
 800771e:	d006      	beq.n	800772e <strcmp+0x1a6>
 8007720:	d20f      	bcs.n	8007742 <strcmp+0x1ba>
 8007722:	788b      	ldrb	r3, [r1, #2]
 8007724:	fa5f f4a2 	uxtb.w	r4, r2, ror #16
 8007728:	1ae4      	subs	r4, r4, r3
 800772a:	d106      	bne.n	800773a <strcmp+0x1b2>
 800772c:	b12b      	cbz	r3, 800773a <strcmp+0x1b2>
 800772e:	78cb      	ldrb	r3, [r1, #3]
 8007730:	fa5f f4b2 	uxtb.w	r4, r2, ror #24
 8007734:	1ae4      	subs	r4, r4, r3
 8007736:	d100      	bne.n	800773a <strcmp+0x1b2>
 8007738:	b91b      	cbnz	r3, 8007742 <strcmp+0x1ba>
 800773a:	4620      	mov	r0, r4
 800773c:	f85d 4b10 	ldr.w	r4, [sp], #16
 8007740:	4770      	bx	lr
 8007742:	f101 0104 	add.w	r1, r1, #4
 8007746:	f850 2b04 	ldr.w	r2, [r0], #4
 800774a:	07cc      	lsls	r4, r1, #31
 800774c:	f021 0103 	bic.w	r1, r1, #3
 8007750:	f851 3b04 	ldr.w	r3, [r1], #4
 8007754:	d848      	bhi.n	80077e8 <strcmp+0x260>
 8007756:	d224      	bcs.n	80077a2 <strcmp+0x21a>
 8007758:	f022 447f 	bic.w	r4, r2, #4278190080	; 0xff000000
 800775c:	fa82 f54c 	uadd8	r5, r2, ip
 8007760:	ea94 2513 	eors.w	r5, r4, r3, lsr #8
 8007764:	faa5 f58c 	sel	r5, r5, ip
 8007768:	d10a      	bne.n	8007780 <strcmp+0x1f8>
 800776a:	b965      	cbnz	r5, 8007786 <strcmp+0x1fe>
 800776c:	f851 3b04 	ldr.w	r3, [r1], #4
 8007770:	ea84 0402 	eor.w	r4, r4, r2
 8007774:	ebb4 6f03 	cmp.w	r4, r3, lsl #24
 8007778:	d10e      	bne.n	8007798 <strcmp+0x210>
 800777a:	f850 2b04 	ldr.w	r2, [r0], #4
 800777e:	e7eb      	b.n	8007758 <strcmp+0x1d0>
 8007780:	ea4f 2313 	mov.w	r3, r3, lsr #8
 8007784:	e055      	b.n	8007832 <strcmp+0x2aa>
 8007786:	f035 457f 	bics.w	r5, r5, #4278190080	; 0xff000000
 800778a:	d14d      	bne.n	8007828 <strcmp+0x2a0>
 800778c:	7808      	ldrb	r0, [r1, #0]
 800778e:	e8fd 4504 	ldrd	r4, r5, [sp], #16
 8007792:	f1c0 0000 	rsb	r0, r0, #0
 8007796:	4770      	bx	lr
 8007798:	ea4f 6212 	mov.w	r2, r2, lsr #24
 800779c:	f003 03ff 	and.w	r3, r3, #255	; 0xff
 80077a0:	e047      	b.n	8007832 <strcmp+0x2aa>
 80077a2:	ea02 441c 	and.w	r4, r2, ip, lsr #16
 80077a6:	fa82 f54c 	uadd8	r5, r2, ip
 80077aa:	ea94 4513 	eors.w	r5, r4, r3, lsr #16
 80077ae:	faa5 f58c 	sel	r5, r5, ip
 80077b2:	d10a      	bne.n	80077ca <strcmp+0x242>
 80077b4:	b965      	cbnz	r5, 80077d0 <strcmp+0x248>
 80077b6:	f851 3b04 	ldr.w	r3, [r1], #4
 80077ba:	ea84 0402 	eor.w	r4, r4, r2
 80077be:	ebb4 4f03 	cmp.w	r4, r3, lsl #16
 80077c2:	d10c      	bne.n	80077de <strcmp+0x256>
 80077c4:	f850 2b04 	ldr.w	r2, [r0], #4
 80077c8:	e7eb      	b.n	80077a2 <strcmp+0x21a>
 80077ca:	ea4f 4313 	mov.w	r3, r3, lsr #16
 80077ce:	e030      	b.n	8007832 <strcmp+0x2aa>
 80077d0:	ea15 451c 	ands.w	r5, r5, ip, lsr #16
 80077d4:	d128      	bne.n	8007828 <strcmp+0x2a0>
 80077d6:	880b      	ldrh	r3, [r1, #0]
 80077d8:	ea4f 4212 	mov.w	r2, r2, lsr #16
 80077dc:	e029      	b.n	8007832 <strcmp+0x2aa>
 80077de:	ea4f 4212 	mov.w	r2, r2, lsr #16
 80077e2:	ea03 431c 	and.w	r3, r3, ip, lsr #16
 80077e6:	e024      	b.n	8007832 <strcmp+0x2aa>
 80077e8:	f002 04ff 	and.w	r4, r2, #255	; 0xff
 80077ec:	fa82 f54c 	uadd8	r5, r2, ip
 80077f0:	ea94 6513 	eors.w	r5, r4, r3, lsr #24
 80077f4:	faa5 f58c 	sel	r5, r5, ip
 80077f8:	d10a      	bne.n	8007810 <strcmp+0x288>
 80077fa:	b965      	cbnz	r5, 8007816 <strcmp+0x28e>
 80077fc:	f851 3b04 	ldr.w	r3, [r1], #4
 8007800:	ea84 0402 	eor.w	r4, r4, r2
 8007804:	ebb4 2f03 	cmp.w	r4, r3, lsl #8
 8007808:	d109      	bne.n	800781e <strcmp+0x296>
 800780a:	f850 2b04 	ldr.w	r2, [r0], #4
 800780e:	e7eb      	b.n	80077e8 <strcmp+0x260>
 8007810:	ea4f 6313 	mov.w	r3, r3, lsr #24
 8007814:	e00d      	b.n	8007832 <strcmp+0x2aa>
 8007816:	f015 0fff 	tst.w	r5, #255	; 0xff
 800781a:	d105      	bne.n	8007828 <strcmp+0x2a0>
 800781c:	680b      	ldr	r3, [r1, #0]
 800781e:	ea4f 2212 	mov.w	r2, r2, lsr #8
 8007822:	f023 437f 	bic.w	r3, r3, #4278190080	; 0xff000000
 8007826:	e004      	b.n	8007832 <strcmp+0x2aa>
 8007828:	f04f 0000 	mov.w	r0, #0
 800782c:	e8fd 4504 	ldrd	r4, r5, [sp], #16
 8007830:	4770      	bx	lr
 8007832:	ba12      	rev	r2, r2
 8007834:	ba1b      	rev	r3, r3
 8007836:	fa82 f44c 	uadd8	r4, r2, ip
 800783a:	ea82 0403 	eor.w	r4, r2, r3
 800783e:	faa4 f58c 	sel	r5, r4, ip
 8007842:	fab5 f485 	clz	r4, r5
 8007846:	fa02 f204 	lsl.w	r2, r2, r4
 800784a:	fa03 f304 	lsl.w	r3, r3, r4
 800784e:	ea4f 6012 	mov.w	r0, r2, lsr #24
 8007852:	e8fd 4504 	ldrd	r4, r5, [sp], #16
 8007856:	eba0 6013 	sub.w	r0, r0, r3, lsr #24
 800785a:	4770      	bx	lr

0800785c <_wctomb_r>:
 800785c:	b430      	push	{r4, r5}
 800785e:	4c06      	ldr	r4, [pc, #24]	; (8007878 <_wctomb_r+0x1c>)
 8007860:	4d06      	ldr	r5, [pc, #24]	; (800787c <_wctomb_r+0x20>)
 8007862:	6824      	ldr	r4, [r4, #0]
 8007864:	6b64      	ldr	r4, [r4, #52]	; 0x34
 8007866:	2c00      	cmp	r4, #0
 8007868:	bf08      	it	eq
 800786a:	462c      	moveq	r4, r5
 800786c:	f8d4 40e0 	ldr.w	r4, [r4, #224]	; 0xe0
 8007870:	46a4      	mov	ip, r4
 8007872:	bc30      	pop	{r4, r5}
 8007874:	4760      	bx	ip
 8007876:	bf00      	nop
 8007878:	20000004 	.word	0x20000004
 800787c:	20000840 	.word	0x20000840

08007880 <__ascii_wctomb>:
 8007880:	b121      	cbz	r1, 800788c <__ascii_wctomb+0xc>
 8007882:	2aff      	cmp	r2, #255	; 0xff
 8007884:	d804      	bhi.n	8007890 <__ascii_wctomb+0x10>
 8007886:	700a      	strb	r2, [r1, #0]
 8007888:	2001      	movs	r0, #1
 800788a:	4770      	bx	lr
 800788c:	4608      	mov	r0, r1
 800788e:	4770      	bx	lr
 8007890:	238a      	movs	r3, #138	; 0x8a
 8007892:	6003      	str	r3, [r0, #0]
 8007894:	f04f 30ff 	mov.w	r0, #4294967295	; 0xffffffff
 8007898:	4770      	bx	lr
 800789a:	bf00      	nop

0800789c <__aeabi_uldivmod>:
 800789c:	b953      	cbnz	r3, 80078b4 <__aeabi_uldivmod+0x18>
 800789e:	b94a      	cbnz	r2, 80078b4 <__aeabi_uldivmod+0x18>
 80078a0:	2900      	cmp	r1, #0
 80078a2:	bf08      	it	eq
 80078a4:	2800      	cmpeq	r0, #0
 80078a6:	bf1c      	itt	ne
 80078a8:	f04f 31ff 	movne.w	r1, #4294967295	; 0xffffffff
 80078ac:	f04f 30ff 	movne.w	r0, #4294967295	; 0xffffffff
 80078b0:	f000 b972 	b.w	8007b98 <__aeabi_idiv0>
 80078b4:	f1ad 0c08 	sub.w	ip, sp, #8
 80078b8:	e96d ce04 	strd	ip, lr, [sp, #-16]!
 80078bc:	f000 f806 	bl	80078cc <__udivmoddi4>
 80078c0:	f8dd e004 	ldr.w	lr, [sp, #4]
 80078c4:	e9dd 2302 	ldrd	r2, r3, [sp, #8]
 80078c8:	b004      	add	sp, #16
 80078ca:	4770      	bx	lr

080078cc <__udivmoddi4>:
 80078cc:	e92d 47f0 	stmdb	sp!, {r4, r5, r6, r7, r8, r9, sl, lr}
 80078d0:	9e08      	ldr	r6, [sp, #32]
 80078d2:	4604      	mov	r4, r0
 80078d4:	4688      	mov	r8, r1
 80078d6:	2b00      	cmp	r3, #0
 80078d8:	d14b      	bne.n	8007972 <__udivmoddi4+0xa6>
 80078da:	428a      	cmp	r2, r1
 80078dc:	4615      	mov	r5, r2
 80078de:	d967      	bls.n	80079b0 <__udivmoddi4+0xe4>
 80078e0:	fab2 f282 	clz	r2, r2
 80078e4:	b14a      	cbz	r2, 80078fa <__udivmoddi4+0x2e>
 80078e6:	f1c2 0720 	rsb	r7, r2, #32
 80078ea:	fa01 f302 	lsl.w	r3, r1, r2
 80078ee:	fa20 f707 	lsr.w	r7, r0, r7
 80078f2:	4095      	lsls	r5, r2
 80078f4:	ea47 0803 	orr.w	r8, r7, r3
 80078f8:	4094      	lsls	r4, r2
 80078fa:	ea4f 4e15 	mov.w	lr, r5, lsr #16
 80078fe:	0c23      	lsrs	r3, r4, #16
 8007900:	fbb8 f7fe 	udiv	r7, r8, lr
 8007904:	fa1f fc85 	uxth.w	ip, r5
 8007908:	fb0e 8817 	mls	r8, lr, r7, r8
 800790c:	ea43 4308 	orr.w	r3, r3, r8, lsl #16
 8007910:	fb07 f10c 	mul.w	r1, r7, ip
 8007914:	4299      	cmp	r1, r3
 8007916:	d909      	bls.n	800792c <__udivmoddi4+0x60>
 8007918:	18eb      	adds	r3, r5, r3
 800791a:	f107 30ff 	add.w	r0, r7, #4294967295	; 0xffffffff
 800791e:	f080 811b 	bcs.w	8007b58 <__udivmoddi4+0x28c>
 8007922:	4299      	cmp	r1, r3
 8007924:	f240 8118 	bls.w	8007b58 <__udivmoddi4+0x28c>
 8007928:	3f02      	subs	r7, #2
 800792a:	442b      	add	r3, r5
 800792c:	1a5b      	subs	r3, r3, r1
 800792e:	b2a4      	uxth	r4, r4
 8007930:	fbb3 f0fe 	udiv	r0, r3, lr
 8007934:	fb0e 3310 	mls	r3, lr, r0, r3
 8007938:	ea44 4403 	orr.w	r4, r4, r3, lsl #16
 800793c:	fb00 fc0c 	mul.w	ip, r0, ip
 8007940:	45a4      	cmp	ip, r4
 8007942:	d909      	bls.n	8007958 <__udivmoddi4+0x8c>
 8007944:	192c      	adds	r4, r5, r4
 8007946:	f100 33ff 	add.w	r3, r0, #4294967295	; 0xffffffff
 800794a:	f080 8107 	bcs.w	8007b5c <__udivmoddi4+0x290>
 800794e:	45a4      	cmp	ip, r4
 8007950:	f240 8104 	bls.w	8007b5c <__udivmoddi4+0x290>
 8007954:	3802      	subs	r0, #2
 8007956:	442c      	add	r4, r5
 8007958:	ea40 4007 	orr.w	r0, r0, r7, lsl #16
 800795c:	eba4 040c 	sub.w	r4, r4, ip
 8007960:	2700      	movs	r7, #0
 8007962:	b11e      	cbz	r6, 800796c <__udivmoddi4+0xa0>
 8007964:	40d4      	lsrs	r4, r2
 8007966:	2300      	movs	r3, #0
 8007968:	e9c6 4300 	strd	r4, r3, [r6]
 800796c:	4639      	mov	r1, r7
 800796e:	e8bd 87f0 	ldmia.w	sp!, {r4, r5, r6, r7, r8, r9, sl, pc}
 8007972:	428b      	cmp	r3, r1
 8007974:	d909      	bls.n	800798a <__udivmoddi4+0xbe>
 8007976:	2e00      	cmp	r6, #0
 8007978:	f000 80eb 	beq.w	8007b52 <__udivmoddi4+0x286>
 800797c:	2700      	movs	r7, #0
 800797e:	e9c6 0100 	strd	r0, r1, [r6]
 8007982:	4638      	mov	r0, r7
 8007984:	4639      	mov	r1, r7
 8007986:	e8bd 87f0 	ldmia.w	sp!, {r4, r5, r6, r7, r8, r9, sl, pc}
 800798a:	fab3 f783 	clz	r7, r3
 800798e:	2f00      	cmp	r7, #0
 8007990:	d147      	bne.n	8007a22 <__udivmoddi4+0x156>
 8007992:	428b      	cmp	r3, r1
 8007994:	d302      	bcc.n	800799c <__udivmoddi4+0xd0>
 8007996:	4282      	cmp	r2, r0
 8007998:	f200 80fa 	bhi.w	8007b90 <__udivmoddi4+0x2c4>
 800799c:	1a84      	subs	r4, r0, r2
 800799e:	eb61 0303 	sbc.w	r3, r1, r3
 80079a2:	2001      	movs	r0, #1
 80079a4:	4698      	mov	r8, r3
 80079a6:	2e00      	cmp	r6, #0
 80079a8:	d0e0      	beq.n	800796c <__udivmoddi4+0xa0>
 80079aa:	e9c6 4800 	strd	r4, r8, [r6]
 80079ae:	e7dd      	b.n	800796c <__udivmoddi4+0xa0>
 80079b0:	b902      	cbnz	r2, 80079b4 <__udivmoddi4+0xe8>
 80079b2:	deff      	udf	#255	; 0xff
 80079b4:	fab2 f282 	clz	r2, r2
 80079b8:	2a00      	cmp	r2, #0
 80079ba:	f040 808f 	bne.w	8007adc <__udivmoddi4+0x210>
 80079be:	1b49      	subs	r1, r1, r5
 80079c0:	ea4f 4e15 	mov.w	lr, r5, lsr #16
 80079c4:	fa1f f885 	uxth.w	r8, r5
 80079c8:	2701      	movs	r7, #1
 80079ca:	fbb1 fcfe 	udiv	ip, r1, lr
 80079ce:	0c23      	lsrs	r3, r4, #16
 80079d0:	fb0e 111c 	mls	r1, lr, ip, r1
 80079d4:	ea43 4301 	orr.w	r3, r3, r1, lsl #16
 80079d8:	fb08 f10c 	mul.w	r1, r8, ip
 80079dc:	4299      	cmp	r1, r3
 80079de:	d907      	bls.n	80079f0 <__udivmoddi4+0x124>
 80079e0:	18eb      	adds	r3, r5, r3
 80079e2:	f10c 30ff 	add.w	r0, ip, #4294967295	; 0xffffffff
 80079e6:	d202      	bcs.n	80079ee <__udivmoddi4+0x122>
 80079e8:	4299      	cmp	r1, r3
 80079ea:	f200 80cd 	bhi.w	8007b88 <__udivmoddi4+0x2bc>
 80079ee:	4684      	mov	ip, r0
 80079f0:	1a59      	subs	r1, r3, r1
 80079f2:	b2a3      	uxth	r3, r4
 80079f4:	fbb1 f0fe 	udiv	r0, r1, lr
 80079f8:	fb0e 1410 	mls	r4, lr, r0, r1
 80079fc:	ea43 4404 	orr.w	r4, r3, r4, lsl #16
 8007a00:	fb08 f800 	mul.w	r8, r8, r0
 8007a04:	45a0      	cmp	r8, r4
 8007a06:	d907      	bls.n	8007a18 <__udivmoddi4+0x14c>
 8007a08:	192c      	adds	r4, r5, r4
 8007a0a:	f100 33ff 	add.w	r3, r0, #4294967295	; 0xffffffff
 8007a0e:	d202      	bcs.n	8007a16 <__udivmoddi4+0x14a>
 8007a10:	45a0      	cmp	r8, r4
 8007a12:	f200 80b6 	bhi.w	8007b82 <__udivmoddi4+0x2b6>
 8007a16:	4618      	mov	r0, r3
 8007a18:	eba4 0408 	sub.w	r4, r4, r8
 8007a1c:	ea40 400c 	orr.w	r0, r0, ip, lsl #16
 8007a20:	e79f      	b.n	8007962 <__udivmoddi4+0x96>
 8007a22:	f1c7 0c20 	rsb	ip, r7, #32
 8007a26:	40bb      	lsls	r3, r7
 8007a28:	fa22 fe0c 	lsr.w	lr, r2, ip
 8007a2c:	ea4e 0e03 	orr.w	lr, lr, r3
 8007a30:	fa01 f407 	lsl.w	r4, r1, r7
 8007a34:	fa20 f50c 	lsr.w	r5, r0, ip
 8007a38:	fa21 f30c 	lsr.w	r3, r1, ip
 8007a3c:	ea4f 481e 	mov.w	r8, lr, lsr #16
 8007a40:	4325      	orrs	r5, r4
 8007a42:	fbb3 f9f8 	udiv	r9, r3, r8
 8007a46:	0c2c      	lsrs	r4, r5, #16
 8007a48:	fb08 3319 	mls	r3, r8, r9, r3
 8007a4c:	fa1f fa8e 	uxth.w	sl, lr
 8007a50:	ea44 4303 	orr.w	r3, r4, r3, lsl #16
 8007a54:	fb09 f40a 	mul.w	r4, r9, sl
 8007a58:	429c      	cmp	r4, r3
 8007a5a:	fa02 f207 	lsl.w	r2, r2, r7
 8007a5e:	fa00 f107 	lsl.w	r1, r0, r7
 8007a62:	d90b      	bls.n	8007a7c <__udivmoddi4+0x1b0>
 8007a64:	eb1e 0303 	adds.w	r3, lr, r3
 8007a68:	f109 30ff 	add.w	r0, r9, #4294967295	; 0xffffffff
 8007a6c:	f080 8087 	bcs.w	8007b7e <__udivmoddi4+0x2b2>
 8007a70:	429c      	cmp	r4, r3
 8007a72:	f240 8084 	bls.w	8007b7e <__udivmoddi4+0x2b2>
 8007a76:	f1a9 0902 	sub.w	r9, r9, #2
 8007a7a:	4473      	add	r3, lr
 8007a7c:	1b1b      	subs	r3, r3, r4
 8007a7e:	b2ad      	uxth	r5, r5
 8007a80:	fbb3 f0f8 	udiv	r0, r3, r8
 8007a84:	fb08 3310 	mls	r3, r8, r0, r3
 8007a88:	ea45 4403 	orr.w	r4, r5, r3, lsl #16
 8007a8c:	fb00 fa0a 	mul.w	sl, r0, sl
 8007a90:	45a2      	cmp	sl, r4
 8007a92:	d908      	bls.n	8007aa6 <__udivmoddi4+0x1da>
 8007a94:	eb1e 0404 	adds.w	r4, lr, r4
 8007a98:	f100 33ff 	add.w	r3, r0, #4294967295	; 0xffffffff
 8007a9c:	d26b      	bcs.n	8007b76 <__udivmoddi4+0x2aa>
 8007a9e:	45a2      	cmp	sl, r4
 8007aa0:	d969      	bls.n	8007b76 <__udivmoddi4+0x2aa>
 8007aa2:	3802      	subs	r0, #2
 8007aa4:	4474      	add	r4, lr
 8007aa6:	ea40 4009 	orr.w	r0, r0, r9, lsl #16
 8007aaa:	fba0 8902 	umull	r8, r9, r0, r2
 8007aae:	eba4 040a 	sub.w	r4, r4, sl
 8007ab2:	454c      	cmp	r4, r9
 8007ab4:	46c2      	mov	sl, r8
 8007ab6:	464b      	mov	r3, r9
 8007ab8:	d354      	bcc.n	8007b64 <__udivmoddi4+0x298>
 8007aba:	d051      	beq.n	8007b60 <__udivmoddi4+0x294>
 8007abc:	2e00      	cmp	r6, #0
 8007abe:	d069      	beq.n	8007b94 <__udivmoddi4+0x2c8>
 8007ac0:	ebb1 050a 	subs.w	r5, r1, sl
 8007ac4:	eb64 0403 	sbc.w	r4, r4, r3
 8007ac8:	fa04 fc0c 	lsl.w	ip, r4, ip
 8007acc:	40fd      	lsrs	r5, r7
 8007ace:	40fc      	lsrs	r4, r7
 8007ad0:	ea4c 0505 	orr.w	r5, ip, r5
 8007ad4:	e9c6 5400 	strd	r5, r4, [r6]
 8007ad8:	2700      	movs	r7, #0
 8007ada:	e747      	b.n	800796c <__udivmoddi4+0xa0>
 8007adc:	f1c2 0320 	rsb	r3, r2, #32
 8007ae0:	fa20 f703 	lsr.w	r7, r0, r3
 8007ae4:	4095      	lsls	r5, r2
 8007ae6:	fa01 f002 	lsl.w	r0, r1, r2
 8007aea:	fa21 f303 	lsr.w	r3, r1, r3
 8007aee:	ea4f 4e15 	mov.w	lr, r5, lsr #16
 8007af2:	4338      	orrs	r0, r7
 8007af4:	0c01      	lsrs	r1, r0, #16
 8007af6:	fbb3 f7fe 	udiv	r7, r3, lr
 8007afa:	fa1f f885 	uxth.w	r8, r5
 8007afe:	fb0e 3317 	mls	r3, lr, r7, r3
 8007b02:	ea41 4103 	orr.w	r1, r1, r3, lsl #16
 8007b06:	fb07 f308 	mul.w	r3, r7, r8
 8007b0a:	428b      	cmp	r3, r1
 8007b0c:	fa04 f402 	lsl.w	r4, r4, r2
 8007b10:	d907      	bls.n	8007b22 <__udivmoddi4+0x256>
 8007b12:	1869      	adds	r1, r5, r1
 8007b14:	f107 3cff 	add.w	ip, r7, #4294967295	; 0xffffffff
 8007b18:	d22f      	bcs.n	8007b7a <__udivmoddi4+0x2ae>
 8007b1a:	428b      	cmp	r3, r1
 8007b1c:	d92d      	bls.n	8007b7a <__udivmoddi4+0x2ae>
 8007b1e:	3f02      	subs	r7, #2
 8007b20:	4429      	add	r1, r5
 8007b22:	1acb      	subs	r3, r1, r3
 8007b24:	b281      	uxth	r1, r0
 8007b26:	fbb3 f0fe 	udiv	r0, r3, lr
 8007b2a:	fb0e 3310 	mls	r3, lr, r0, r3
 8007b2e:	ea41 4103 	orr.w	r1, r1, r3, lsl #16
 8007b32:	fb00 f308 	mul.w	r3, r0, r8
 8007b36:	428b      	cmp	r3, r1
 8007b38:	d907      	bls.n	8007b4a <__udivmoddi4+0x27e>
 8007b3a:	1869      	adds	r1, r5, r1
 8007b3c:	f100 3cff 	add.w	ip, r0, #4294967295	; 0xffffffff
 8007b40:	d217      	bcs.n	8007b72 <__udivmoddi4+0x2a6>
 8007b42:	428b      	cmp	r3, r1
 8007b44:	d915      	bls.n	8007b72 <__udivmoddi4+0x2a6>
 8007b46:	3802      	subs	r0, #2
 8007b48:	4429      	add	r1, r5
 8007b4a:	1ac9      	subs	r1, r1, r3
 8007b4c:	ea40 4707 	orr.w	r7, r0, r7, lsl #16
 8007b50:	e73b      	b.n	80079ca <__udivmoddi4+0xfe>
 8007b52:	4637      	mov	r7, r6
 8007b54:	4630      	mov	r0, r6
 8007b56:	e709      	b.n	800796c <__udivmoddi4+0xa0>
 8007b58:	4607      	mov	r7, r0
 8007b5a:	e6e7      	b.n	800792c <__udivmoddi4+0x60>
 8007b5c:	4618      	mov	r0, r3
 8007b5e:	e6fb      	b.n	8007958 <__udivmoddi4+0x8c>
 8007b60:	4541      	cmp	r1, r8
 8007b62:	d2ab      	bcs.n	8007abc <__udivmoddi4+0x1f0>
 8007b64:	ebb8 0a02 	subs.w	sl, r8, r2
 8007b68:	eb69 020e 	sbc.w	r2, r9, lr
 8007b6c:	3801      	subs	r0, #1
 8007b6e:	4613      	mov	r3, r2
 8007b70:	e7a4      	b.n	8007abc <__udivmoddi4+0x1f0>
 8007b72:	4660      	mov	r0, ip
 8007b74:	e7e9      	b.n	8007b4a <__udivmoddi4+0x27e>
 8007b76:	4618      	mov	r0, r3
 8007b78:	e795      	b.n	8007aa6 <__udivmoddi4+0x1da>
 8007b7a:	4667      	mov	r7, ip
 8007b7c:	e7d1      	b.n	8007b22 <__udivmoddi4+0x256>
 8007b7e:	4681      	mov	r9, r0
 8007b80:	e77c      	b.n	8007a7c <__udivmoddi4+0x1b0>
 8007b82:	3802      	subs	r0, #2
 8007b84:	442c      	add	r4, r5
 8007b86:	e747      	b.n	8007a18 <__udivmoddi4+0x14c>
 8007b88:	f1ac 0c02 	sub.w	ip, ip, #2
 8007b8c:	442b      	add	r3, r5
 8007b8e:	e72f      	b.n	80079f0 <__udivmoddi4+0x124>
 8007b90:	4638      	mov	r0, r7
 8007b92:	e708      	b.n	80079a6 <__udivmoddi4+0xda>
 8007b94:	4637      	mov	r7, r6
 8007b96:	e6e9      	b.n	800796c <__udivmoddi4+0xa0>

08007b98 <__aeabi_idiv0>:
 8007b98:	4770      	bx	lr
 8007b9a:	bf00      	nop
 8007b9c:	00000030 	.word	0x00000030

08007ba0 <dot_duration>:
 8007ba0:	                                         d.

08007ba2 <dash_duration>:
 8007ba2:	                                         ,.

08007ba4 <letter_spacing>:
 8007ba4:	                                         ,.

08007ba6 <word_spacing>:
 8007ba6:	008002bc 00000000 00000001 00200000     .............. .
 8007bb6:	20490000 204e4143 53524f4d 00300045     ..I CAN MORSE.0.
 8007bc6:	6c250000 6f6c0064 00303167               ..%ld.log10...

08007bd4 <_global_impure_ptr>:
 8007bd4:	20000008 00464e49 00666e69 004e414e     ... INF.inf.NAN.
 8007be4:	006e616e 33323130 37363534 62613938     nan.0123456789ab
 8007bf4:	66656463 00000000 33323130 37363534     cdef....01234567
 8007c04:	42413938 46454443 00000000 6c756e28     89ABCDEF....(nul
 8007c14:	0000296c                                l)..

08007c18 <blanks.7315>:
 8007c18:	20202020 20202020 20202020 20202020                     

08007c28 <zeroes.7316>:
 8007c28:	30303030 30303030 30303030 30303030     0000000000000000
 8007c38:	69666e49 7974696e 00000000 004e614e     Infinity....NaN.

08007c48 <__mprec_bigtens>:
 8007c48:	37e08000 4341c379 b5056e17 4693b8b5     ...7y.AC.n.....F
 8007c58:	e93ff9f5 4d384f03 f9301d32 5a827748     ..?..O8M2.0.Hw.Z
 8007c68:	7f73bf3c 75154fdd                       <.s..O.u

08007c70 <__mprec_tens>:
 8007c70:	00000000 3ff00000 00000000 40240000     .......?......$@
 8007c80:	00000000 40590000 00000000 408f4000     ......Y@.....@.@
 8007c90:	00000000 40c38800 00000000 40f86a00     .......@.....j.@
 8007ca0:	00000000 412e8480 00000000 416312d0     .......A......cA
 8007cb0:	00000000 4197d784 00000000 41cdcd65     .......A....e..A
 8007cc0:	20000000 4202a05f e8000000 42374876     ... _..B....vH7B
 8007cd0:	a2000000 426d1a94 e5400000 42a2309c     ......mB..@..0.B
 8007ce0:	1e900000 42d6bcc4 26340000 430c6bf5     .......B..4&.k.C
 8007cf0:	37e08000 4341c379 85d8a000 43763457     ...7y.AC....W4vC
 8007d00:	674ec800 43abc16d 60913d00 43e158e4     ..Ngm..C.=.`.X.C
 8007d10:	78b58c40 4415af1d d6e2ef50 444b1ae4     @..x...DP.....KD
 8007d20:	064dd592 4480f0cf c7e14af6 44b52d02     ..M....D.J...-.D
 8007d30:	79d99db4 44ea7843                       ...yCx.D

08007d38 <__mprec_tinytens>:
 8007d38:	97d889bc 3c9cd2b2 d5a8a733 3949f623     .......<3...#.I9
 8007d48:	44f4a73d 32a50ffd cf8c979d 255bba08     =..D...2......[%
 8007d58:	64ac6f43 0ac80628                       Co.d(...

08007d60 <p05.6092>:
 8007d60:	00000005 00000019 0000007d              ........}...

08007d6c <blanks.7294>:
 8007d6c:	20202020 20202020 20202020 20202020                     

08007d7c <zeroes.7295>:
 8007d7c:	30303030 30303030 30303030 30303030     0000000000000000
 8007d8c:	00000043 49534f50 00000058 0000002e     C...POSIX.......

08007d9c <_ctype_>:
 8007d9c:	20202000 20202020 28282020 20282828     .         ((((( 
 8007dac:	20202020 20202020 20202020 20202020                     
 8007dbc:	10108820 10101010 10101010 10101010      ...............
 8007dcc:	04040410 04040404 10040404 10101010     ................
 8007ddc:	41411010 41414141 01010101 01010101     ..AAAAAA........
 8007dec:	01010101 01010101 01010101 10101010     ................
 8007dfc:	42421010 42424242 02020202 02020202     ..BBBBBB........
 8007e0c:	02020202 02020202 02020202 10101010     ................
 8007e1c:	00000020 00000000 00000000 00000000      ...............
	...
